
main.elf:     file format elf64-littleriscv


Disassembly of section .text:

0000000000010120 <exit>:
   10120:	1141                	addi	sp,sp,-16
   10122:	4581                	li	a1,0
   10124:	e022                	sd	s0,0(sp)
   10126:	e406                	sd	ra,8(sp)
   10128:	842a                	mv	s0,a0
   1012a:	760000ef          	jal	1088a <__call_exitprocs>
   1012e:	1a01b783          	ld	a5,416(gp) # 129b8 <__stdio_exit_handler>
   10132:	c391                	beqz	a5,10136 <exit+0x16>
   10134:	9782                	jalr	a5
   10136:	8522                	mv	a0,s0
   10138:	586010ef          	jal	116be <_exit>

000000000001013c <main>:
   1013c:	4501                	li	a0,0
   1013e:	8082                	ret

0000000000010140 <register_fini>:
   10140:	00000793          	li	a5,0
   10144:	c791                	beqz	a5,10150 <register_fini+0x10>
   10146:	6545                	lui	a0,0x11
   10148:	5f250513          	addi	a0,a0,1522 # 115f2 <__libc_fini_array>
   1014c:	0110006f          	j	1095c <atexit>
   10150:	8082                	ret

0000000000010152 <_start>:
   10152:	00002197          	auipc	gp,0x2
   10156:	6c618193          	addi	gp,gp,1734 # 12818 <__global_pointer$>
   1015a:	00003517          	auipc	a0,0x3
   1015e:	85e50513          	addi	a0,a0,-1954 # 129b8 <__stdio_exit_handler>
   10162:	00003617          	auipc	a2,0x3
   10166:	e1660613          	addi	a2,a2,-490 # 12f78 <__BSS_END__>
   1016a:	8e09                	sub	a2,a2,a0
   1016c:	4581                	li	a1,0
   1016e:	672000ef          	jal	107e0 <memset>
   10172:	00000517          	auipc	a0,0x0
   10176:	7ea50513          	addi	a0,a0,2026 # 1095c <atexit>
   1017a:	c519                	beqz	a0,10188 <_start+0x36>
   1017c:	00001517          	auipc	a0,0x1
   10180:	47650513          	addi	a0,a0,1142 # 115f2 <__libc_fini_array>
   10184:	7d8000ef          	jal	1095c <atexit>
   10188:	5f6000ef          	jal	1077e <__libc_init_array>
   1018c:	4502                	lw	a0,0(sp)
   1018e:	002c                	addi	a1,sp,8
   10190:	4601                	li	a2,0
   10192:	fabff0ef          	jal	1013c <main>
   10196:	b769                	j	10120 <exit>

0000000000010198 <__do_global_dtors_aux>:
   10198:	1141                	addi	sp,sp,-16
   1019a:	e022                	sd	s0,0(sp)
   1019c:	1d81c783          	lbu	a5,472(gp) # 129f0 <completed.1>
   101a0:	e406                	sd	ra,8(sp)
   101a2:	ef91                	bnez	a5,101be <__do_global_dtors_aux+0x26>
   101a4:	00000793          	li	a5,0
   101a8:	cb81                	beqz	a5,101b8 <__do_global_dtors_aux+0x20>
   101aa:	6545                	lui	a0,0x11
   101ac:	7b850513          	addi	a0,a0,1976 # 117b8 <__EH_FRAME_BEGIN__>
   101b0:	00000097          	auipc	ra,0x0
   101b4:	000000e7          	jalr	zero # 0 <exit-0x10120>
   101b8:	4785                	li	a5,1
   101ba:	1cf18c23          	sb	a5,472(gp) # 129f0 <completed.1>
   101be:	60a2                	ld	ra,8(sp)
   101c0:	6402                	ld	s0,0(sp)
   101c2:	0141                	addi	sp,sp,16
   101c4:	8082                	ret

00000000000101c6 <frame_dummy>:
   101c6:	00000793          	li	a5,0
   101ca:	cb91                	beqz	a5,101de <frame_dummy+0x18>
   101cc:	6545                	lui	a0,0x11
   101ce:	1e018593          	addi	a1,gp,480 # 129f8 <object.0>
   101d2:	7b850513          	addi	a0,a0,1976 # 117b8 <__EH_FRAME_BEGIN__>
   101d6:	00000317          	auipc	t1,0x0
   101da:	00000067          	jr	zero # 0 <exit-0x10120>
   101de:	8082                	ret

00000000000101e0 <foo>:
   101e0:	06d05163          	blez	a3,10242 <foo+0x62>
   101e4:	ffc50713          	addi	a4,a0,-4
   101e8:	40b70333          	sub	t1,a4,a1
   101ec:	8f11                	sub	a4,a4,a2
   101ee:	88aa                	mv	a7,a0
   101f0:	87ae                	mv	a5,a1
   101f2:	8832                	mv	a6,a2
   101f4:	04e36863          	bltu	t1,a4,10244 <foo+0x64>
   101f8:	c2202373          	csrr	t1,vlenb
   101fc:	1361                	addi	t1,t1,-8 # 101ce <frame_dummy+0x8>
   101fe:	02e37563          	bgeu	t1,a4,10228 <foo+0x48>
   10202:	0d06f7d7          	vsetvli	a5,a3,e32,m1,ta,ma
   10206:	0205e107          	vle32.v	v2,(a1)
   1020a:	02066087          	vle32.v	v1,(a2)
   1020e:	8e9d                	sub	a3,a3,a5
   10210:	20b7c5b3          	sh2add	a1,a5,a1
   10214:	20c7c633          	sh2add	a2,a5,a2
   10218:	021100d7          	vadd.vv	v1,v1,v2
   1021c:	020560a7          	vse32.v	v1,(a0)
   10220:	20a7c533          	sh2add	a0,a5,a0
   10224:	fef9                	bnez	a3,10202 <foo+0x22>
   10226:	8082                	ret
   10228:	20b6c6b3          	sh2add	a3,a3,a1
   1022c:	4390                	lw	a2,0(a5)
   1022e:	00082703          	lw	a4,0(a6)
   10232:	0791                	addi	a5,a5,4
   10234:	0811                	addi	a6,a6,4
   10236:	9f31                	addw	a4,a4,a2
   10238:	00e8a023          	sw	a4,0(a7)
   1023c:	0891                	addi	a7,a7,4
   1023e:	fed797e3          	bne	a5,a3,1022c <foo+0x4c>
   10242:	8082                	ret
   10244:	871a                	mv	a4,t1
   10246:	bf4d                	j	101f8 <foo+0x18>

0000000000010248 <__fp_lock>:
   10248:	4501                	li	a0,0
   1024a:	8082                	ret

000000000001024c <stdio_exit_handler>:
   1024c:	6649                	lui	a2,0x12
   1024e:	65c5                	lui	a1,0x11
   10250:	6549                	lui	a0,0x12
   10252:	01860613          	addi	a2,a2,24 # 12018 <__sglue>
   10256:	2e258593          	addi	a1,a1,738 # 112e2 <_fclose_r>
   1025a:	03050513          	addi	a0,a0,48 # 12030 <_impure_data>
   1025e:	aca1                	j	104b6 <_fwalk_sglue>

0000000000010260 <cleanup_stdio>:
   10260:	650c                	ld	a1,8(a0)
   10262:	1141                	addi	sp,sp,-16
   10264:	e022                	sd	s0,0(sp)
   10266:	e406                	sd	ra,8(sp)
   10268:	21018793          	addi	a5,gp,528 # 12a28 <__sf>
   1026c:	842a                	mv	s0,a0
   1026e:	00f58463          	beq	a1,a5,10276 <cleanup_stdio+0x16>
   10272:	070010ef          	jal	112e2 <_fclose_r>
   10276:	680c                	ld	a1,16(s0)
   10278:	2c018793          	addi	a5,gp,704 # 12ad8 <__sf+0xb0>
   1027c:	00f58563          	beq	a1,a5,10286 <cleanup_stdio+0x26>
   10280:	8522                	mv	a0,s0
   10282:	060010ef          	jal	112e2 <_fclose_r>
   10286:	6c0c                	ld	a1,24(s0)
   10288:	37018793          	addi	a5,gp,880 # 12b88 <__sf+0x160>
   1028c:	00f58863          	beq	a1,a5,1029c <cleanup_stdio+0x3c>
   10290:	8522                	mv	a0,s0
   10292:	6402                	ld	s0,0(sp)
   10294:	60a2                	ld	ra,8(sp)
   10296:	0141                	addi	sp,sp,16
   10298:	04a0106f          	j	112e2 <_fclose_r>
   1029c:	60a2                	ld	ra,8(sp)
   1029e:	6402                	ld	s0,0(sp)
   102a0:	0141                	addi	sp,sp,16
   102a2:	8082                	ret

00000000000102a4 <__fp_unlock>:
   102a4:	4501                	li	a0,0
   102a6:	8082                	ret

00000000000102a8 <global_stdio_init.part.0>:
   102a8:	7179                	addi	sp,sp,-48
   102aa:	67c1                	lui	a5,0x10
   102ac:	f022                	sd	s0,32(sp)
   102ae:	24c78793          	addi	a5,a5,588 # 1024c <stdio_exit_handler>
   102b2:	21018413          	addi	s0,gp,528 # 12a28 <__sf>
   102b6:	f406                	sd	ra,40(sp)
   102b8:	ec26                	sd	s1,24(sp)
   102ba:	e84a                	sd	s2,16(sp)
   102bc:	e44e                	sd	s3,8(sp)
   102be:	e052                	sd	s4,0(sp)
   102c0:	1af1b023          	sd	a5,416(gp) # 129b8 <__stdio_exit_handler>
   102c4:	4621                	li	a2,8
   102c6:	4791                	li	a5,4
   102c8:	4581                	li	a1,0
   102ca:	2b418513          	addi	a0,gp,692 # 12acc <__sf+0xa4>
   102ce:	c81c                	sw	a5,16(s0)
   102d0:	00043023          	sd	zero,0(s0)
   102d4:	00043423          	sd	zero,8(s0)
   102d8:	0a042623          	sw	zero,172(s0)
   102dc:	00043c23          	sd	zero,24(s0)
   102e0:	02042023          	sw	zero,32(s0)
   102e4:	02042423          	sw	zero,40(s0)
   102e8:	4f8000ef          	jal	107e0 <memset>
   102ec:	6a41                	lui	s4,0x10
   102ee:	69c1                	lui	s3,0x10
   102f0:	6941                	lui	s2,0x10
   102f2:	64c1                	lui	s1,0x10
   102f4:	67c1                	lui	a5,0x10
   102f6:	538a0a13          	addi	s4,s4,1336 # 10538 <__sread>
   102fa:	57498993          	addi	s3,s3,1396 # 10574 <__swrite>
   102fe:	5c690913          	addi	s2,s2,1478 # 105c6 <__sseek>
   10302:	60848493          	addi	s1,s1,1544 # 10608 <__sclose>
   10306:	07a5                	addi	a5,a5,9 # 10009 <exit-0x117>
   10308:	4621                	li	a2,8
   1030a:	4581                	li	a1,0
   1030c:	36418513          	addi	a0,gp,868 # 12b7c <__sf+0x154>
   10310:	0cf42023          	sw	a5,192(s0)
   10314:	03443c23          	sd	s4,56(s0)
   10318:	05343023          	sd	s3,64(s0)
   1031c:	05243423          	sd	s2,72(s0)
   10320:	e824                	sd	s1,80(s0)
   10322:	f800                	sd	s0,48(s0)
   10324:	0a043823          	sd	zero,176(s0)
   10328:	0a043c23          	sd	zero,184(s0)
   1032c:	14042e23          	sw	zero,348(s0)
   10330:	0c043423          	sd	zero,200(s0)
   10334:	0c042823          	sw	zero,208(s0)
   10338:	0c042c23          	sw	zero,216(s0)
   1033c:	4a4000ef          	jal	107e0 <memset>
   10340:	000207b7          	lui	a5,0x20
   10344:	07c9                	addi	a5,a5,18 # 20012 <__BSS_END__+0xd09a>
   10346:	2c018713          	addi	a4,gp,704 # 12ad8 <__sf+0xb0>
   1034a:	41418513          	addi	a0,gp,1044 # 12c2c <__sf+0x204>
   1034e:	4621                	li	a2,8
   10350:	4581                	li	a1,0
   10352:	0f443423          	sd	s4,232(s0)
   10356:	0f343823          	sd	s3,240(s0)
   1035a:	0f243c23          	sd	s2,248(s0)
   1035e:	10943023          	sd	s1,256(s0)
   10362:	16f42823          	sw	a5,368(s0)
   10366:	16043023          	sd	zero,352(s0)
   1036a:	16043423          	sd	zero,360(s0)
   1036e:	20042623          	sw	zero,524(s0)
   10372:	16043c23          	sd	zero,376(s0)
   10376:	18042023          	sw	zero,384(s0)
   1037a:	18042423          	sw	zero,392(s0)
   1037e:	f078                	sd	a4,224(s0)
   10380:	460000ef          	jal	107e0 <memset>
   10384:	37018793          	addi	a5,gp,880 # 12b88 <__sf+0x160>
   10388:	19443c23          	sd	s4,408(s0)
   1038c:	1b343023          	sd	s3,416(s0)
   10390:	1b243423          	sd	s2,424(s0)
   10394:	1a943823          	sd	s1,432(s0)
   10398:	70a2                	ld	ra,40(sp)
   1039a:	18f43823          	sd	a5,400(s0)
   1039e:	7402                	ld	s0,32(sp)
   103a0:	64e2                	ld	s1,24(sp)
   103a2:	6942                	ld	s2,16(sp)
   103a4:	69a2                	ld	s3,8(sp)
   103a6:	6a02                	ld	s4,0(sp)
   103a8:	6145                	addi	sp,sp,48
   103aa:	8082                	ret

00000000000103ac <__sfp>:
   103ac:	1a01b783          	ld	a5,416(gp) # 129b8 <__stdio_exit_handler>
   103b0:	7179                	addi	sp,sp,-48
   103b2:	ec26                	sd	s1,24(sp)
   103b4:	f406                	sd	ra,40(sp)
   103b6:	f022                	sd	s0,32(sp)
   103b8:	84aa                	mv	s1,a0
   103ba:	cbcd                	beqz	a5,1046c <__sfp+0xc0>
   103bc:	66c9                	lui	a3,0x12
   103be:	01868693          	addi	a3,a3,24 # 12018 <__sglue>
   103c2:	0b000813          	li	a6,176
   103c6:	4698                	lw	a4,8(a3)
   103c8:	06e05363          	blez	a4,1042e <__sfp+0x82>
   103cc:	1702                	slli	a4,a4,0x20
   103ce:	9301                	srli	a4,a4,0x20
   103d0:	03070733          	mul	a4,a4,a6
   103d4:	6a80                	ld	s0,16(a3)
   103d6:	9722                	add	a4,a4,s0
   103d8:	a029                	j	103e2 <__sfp+0x36>
   103da:	0b040413          	addi	s0,s0,176
   103de:	04e40863          	beq	s0,a4,1042e <__sfp+0x82>
   103e2:	01041783          	lh	a5,16(s0)
   103e6:	fbf5                	bnez	a5,103da <__sfp+0x2e>
   103e8:	77c1                	lui	a5,0xffff0
   103ea:	0785                	addi	a5,a5,1 # ffffffffffff0001 <__BSS_END__+0xfffffffffffdd089>
   103ec:	c81c                	sw	a5,16(s0)
   103ee:	0a042623          	sw	zero,172(s0)
   103f2:	00043023          	sd	zero,0(s0)
   103f6:	00043423          	sd	zero,8(s0)
   103fa:	00043c23          	sd	zero,24(s0)
   103fe:	02042023          	sw	zero,32(s0)
   10402:	02042423          	sw	zero,40(s0)
   10406:	4621                	li	a2,8
   10408:	4581                	li	a1,0
   1040a:	0a440513          	addi	a0,s0,164
   1040e:	3d2000ef          	jal	107e0 <memset>
   10412:	04043c23          	sd	zero,88(s0)
   10416:	06042023          	sw	zero,96(s0)
   1041a:	06043c23          	sd	zero,120(s0)
   1041e:	08042023          	sw	zero,128(s0)
   10422:	70a2                	ld	ra,40(sp)
   10424:	8522                	mv	a0,s0
   10426:	7402                	ld	s0,32(sp)
   10428:	64e2                	ld	s1,24(sp)
   1042a:	6145                	addi	sp,sp,48
   1042c:	8082                	ret
   1042e:	6280                	ld	s0,0(a3)
   10430:	c019                	beqz	s0,10436 <__sfp+0x8a>
   10432:	86a2                	mv	a3,s0
   10434:	bf49                	j	103c6 <__sfp+0x1a>
   10436:	2d800593          	li	a1,728
   1043a:	8526                	mv	a0,s1
   1043c:	e436                	sd	a3,8(sp)
   1043e:	02b000ef          	jal	10c68 <_malloc_r>
   10442:	66a2                	ld	a3,8(sp)
   10444:	842a                	mv	s0,a0
   10446:	c515                	beqz	a0,10472 <__sfp+0xc6>
   10448:	4791                	li	a5,4
   1044a:	c51c                	sw	a5,8(a0)
   1044c:	0561                	addi	a0,a0,24
   1044e:	00043023          	sd	zero,0(s0)
   10452:	e808                	sd	a0,16(s0)
   10454:	2c000613          	li	a2,704
   10458:	4581                	li	a1,0
   1045a:	e436                	sd	a3,8(sp)
   1045c:	384000ef          	jal	107e0 <memset>
   10460:	66a2                	ld	a3,8(sp)
   10462:	0b000813          	li	a6,176
   10466:	e280                	sd	s0,0(a3)
   10468:	86a2                	mv	a3,s0
   1046a:	bfb1                	j	103c6 <__sfp+0x1a>
   1046c:	e3dff0ef          	jal	102a8 <global_stdio_init.part.0>
   10470:	b7b1                	j	103bc <__sfp+0x10>
   10472:	0006b023          	sd	zero,0(a3)
   10476:	47b1                	li	a5,12
   10478:	c09c                	sw	a5,0(s1)
   1047a:	b765                	j	10422 <__sfp+0x76>

000000000001047c <__sinit>:
   1047c:	653c                	ld	a5,72(a0)
   1047e:	c391                	beqz	a5,10482 <__sinit+0x6>
   10480:	8082                	ret
   10482:	67c1                	lui	a5,0x10
   10484:	1a01b703          	ld	a4,416(gp) # 129b8 <__stdio_exit_handler>
   10488:	26078793          	addi	a5,a5,608 # 10260 <cleanup_stdio>
   1048c:	e53c                	sd	a5,72(a0)
   1048e:	fb6d                	bnez	a4,10480 <__sinit+0x4>
   10490:	bd21                	j	102a8 <global_stdio_init.part.0>

0000000000010492 <__sfp_lock_acquire>:
   10492:	8082                	ret

0000000000010494 <__sfp_lock_release>:
   10494:	8082                	ret

0000000000010496 <__fp_lock_all>:
   10496:	6649                	lui	a2,0x12
   10498:	65c1                	lui	a1,0x10
   1049a:	01860613          	addi	a2,a2,24 # 12018 <__sglue>
   1049e:	24858593          	addi	a1,a1,584 # 10248 <__fp_lock>
   104a2:	4501                	li	a0,0
   104a4:	a809                	j	104b6 <_fwalk_sglue>

00000000000104a6 <__fp_unlock_all>:
   104a6:	6649                	lui	a2,0x12
   104a8:	65c1                	lui	a1,0x10
   104aa:	01860613          	addi	a2,a2,24 # 12018 <__sglue>
   104ae:	2a458593          	addi	a1,a1,676 # 102a4 <__fp_unlock>
   104b2:	4501                	li	a0,0
   104b4:	a009                	j	104b6 <_fwalk_sglue>

00000000000104b6 <_fwalk_sglue>:
   104b6:	715d                	addi	sp,sp,-80
   104b8:	f84a                	sd	s2,48(sp)
   104ba:	f44e                	sd	s3,40(sp)
   104bc:	f052                	sd	s4,32(sp)
   104be:	ec56                	sd	s5,24(sp)
   104c0:	e85a                	sd	s6,16(sp)
   104c2:	e45e                	sd	s7,8(sp)
   104c4:	e062                	sd	s8,0(sp)
   104c6:	e486                	sd	ra,72(sp)
   104c8:	e0a2                	sd	s0,64(sp)
   104ca:	fc26                	sd	s1,56(sp)
   104cc:	89b2                	mv	s3,a2
   104ce:	8aaa                	mv	s5,a0
   104d0:	8b2e                	mv	s6,a1
   104d2:	4901                	li	s2,0
   104d4:	0b000b93          	li	s7,176
   104d8:	4c05                	li	s8,1
   104da:	5a7d                	li	s4,-1
   104dc:	0089a483          	lw	s1,8(s3)
   104e0:	02905b63          	blez	s1,10516 <_fwalk_sglue+0x60>
   104e4:	1482                	slli	s1,s1,0x20
   104e6:	9081                	srli	s1,s1,0x20
   104e8:	037484b3          	mul	s1,s1,s7
   104ec:	0109b403          	ld	s0,16(s3)
   104f0:	94a2                	add	s1,s1,s0
   104f2:	01045783          	lhu	a5,16(s0)
   104f6:	00fc7c63          	bgeu	s8,a5,1050e <_fwalk_sglue+0x58>
   104fa:	01241783          	lh	a5,18(s0)
   104fe:	85a2                	mv	a1,s0
   10500:	8556                	mv	a0,s5
   10502:	01478663          	beq	a5,s4,1050e <_fwalk_sglue+0x58>
   10506:	9b02                	jalr	s6
   10508:	01256933          	or	s2,a0,s2
   1050c:	2901                	sext.w	s2,s2
   1050e:	0b040413          	addi	s0,s0,176
   10512:	fe9410e3          	bne	s0,s1,104f2 <_fwalk_sglue+0x3c>
   10516:	0009b983          	ld	s3,0(s3)
   1051a:	fc0991e3          	bnez	s3,104dc <_fwalk_sglue+0x26>
   1051e:	60a6                	ld	ra,72(sp)
   10520:	6406                	ld	s0,64(sp)
   10522:	74e2                	ld	s1,56(sp)
   10524:	79a2                	ld	s3,40(sp)
   10526:	7a02                	ld	s4,32(sp)
   10528:	6ae2                	ld	s5,24(sp)
   1052a:	6b42                	ld	s6,16(sp)
   1052c:	6ba2                	ld	s7,8(sp)
   1052e:	6c02                	ld	s8,0(sp)
   10530:	854a                	mv	a0,s2
   10532:	7942                	ld	s2,48(sp)
   10534:	6161                	addi	sp,sp,80
   10536:	8082                	ret

0000000000010538 <__sread>:
   10538:	1141                	addi	sp,sp,-16
   1053a:	e022                	sd	s0,0(sp)
   1053c:	842e                	mv	s0,a1
   1053e:	01259583          	lh	a1,18(a1)
   10542:	e406                	sd	ra,8(sp)
   10544:	1c2000ef          	jal	10706 <_read_r>
   10548:	00054963          	bltz	a0,1055a <__sread+0x22>
   1054c:	685c                	ld	a5,144(s0)
   1054e:	60a2                	ld	ra,8(sp)
   10550:	97aa                	add	a5,a5,a0
   10552:	e85c                	sd	a5,144(s0)
   10554:	6402                	ld	s0,0(sp)
   10556:	0141                	addi	sp,sp,16
   10558:	8082                	ret
   1055a:	01045783          	lhu	a5,16(s0)
   1055e:	777d                	lui	a4,0xfffff
   10560:	177d                	addi	a4,a4,-1 # ffffffffffffefff <__BSS_END__+0xfffffffffffec087>
   10562:	8ff9                	and	a5,a5,a4
   10564:	60a2                	ld	ra,8(sp)
   10566:	00f41823          	sh	a5,16(s0)
   1056a:	6402                	ld	s0,0(sp)
   1056c:	0141                	addi	sp,sp,16
   1056e:	8082                	ret

0000000000010570 <__seofread>:
   10570:	4501                	li	a0,0
   10572:	8082                	ret

0000000000010574 <__swrite>:
   10574:	01059783          	lh	a5,16(a1)
   10578:	7179                	addi	sp,sp,-48
   1057a:	8336                	mv	t1,a3
   1057c:	f406                	sd	ra,40(sp)
   1057e:	1007f693          	andi	a3,a5,256
   10582:	872e                	mv	a4,a1
   10584:	88b2                	mv	a7,a2
   10586:	882a                	mv	a6,a0
   10588:	ee91                	bnez	a3,105a4 <__swrite+0x30>
   1058a:	76fd                	lui	a3,0xfffff
   1058c:	16fd                	addi	a3,a3,-1 # ffffffffffffefff <__BSS_END__+0xfffffffffffec087>
   1058e:	70a2                	ld	ra,40(sp)
   10590:	8ff5                	and	a5,a5,a3
   10592:	01271583          	lh	a1,18(a4)
   10596:	00f71823          	sh	a5,16(a4)
   1059a:	869a                	mv	a3,t1
   1059c:	8646                	mv	a2,a7
   1059e:	8542                	mv	a0,a6
   105a0:	6145                	addi	sp,sp,48
   105a2:	a245                	j	10742 <_write_r>
   105a4:	01259583          	lh	a1,18(a1)
   105a8:	e832                	sd	a2,16(sp)
   105aa:	4689                	li	a3,2
   105ac:	4601                	li	a2,0
   105ae:	ec1a                	sd	t1,24(sp)
   105b0:	e03a                	sd	a4,0(sp)
   105b2:	e42a                	sd	a0,8(sp)
   105b4:	116000ef          	jal	106ca <_lseek_r>
   105b8:	6702                	ld	a4,0(sp)
   105ba:	6362                	ld	t1,24(sp)
   105bc:	68c2                	ld	a7,16(sp)
   105be:	01071783          	lh	a5,16(a4)
   105c2:	6822                	ld	a6,8(sp)
   105c4:	b7d9                	j	1058a <__swrite+0x16>

00000000000105c6 <__sseek>:
   105c6:	1141                	addi	sp,sp,-16
   105c8:	e022                	sd	s0,0(sp)
   105ca:	842e                	mv	s0,a1
   105cc:	01259583          	lh	a1,18(a1)
   105d0:	e406                	sd	ra,8(sp)
   105d2:	0f8000ef          	jal	106ca <_lseek_r>
   105d6:	577d                	li	a4,-1
   105d8:	01041783          	lh	a5,16(s0)
   105dc:	00e50b63          	beq	a0,a4,105f2 <__sseek+0x2c>
   105e0:	6705                	lui	a4,0x1
   105e2:	8fd9                	or	a5,a5,a4
   105e4:	60a2                	ld	ra,8(sp)
   105e6:	e848                	sd	a0,144(s0)
   105e8:	00f41823          	sh	a5,16(s0)
   105ec:	6402                	ld	s0,0(sp)
   105ee:	0141                	addi	sp,sp,16
   105f0:	8082                	ret
   105f2:	80050713          	addi	a4,a0,-2048
   105f6:	80070713          	addi	a4,a4,-2048 # 800 <exit-0xf920>
   105fa:	8ff9                	and	a5,a5,a4
   105fc:	60a2                	ld	ra,8(sp)
   105fe:	00f41823          	sh	a5,16(s0)
   10602:	6402                	ld	s0,0(sp)
   10604:	0141                	addi	sp,sp,16
   10606:	8082                	ret

0000000000010608 <__sclose>:
   10608:	01259583          	lh	a1,18(a1)
   1060c:	a009                	j	1060e <_close_r>

000000000001060e <_close_r>:
   1060e:	1101                	addi	sp,sp,-32
   10610:	e822                	sd	s0,16(sp)
   10612:	e426                	sd	s1,8(sp)
   10614:	84aa                	mv	s1,a0
   10616:	852e                	mv	a0,a1
   10618:	ec06                	sd	ra,24(sp)
   1061a:	1a01a423          	sw	zero,424(gp) # 129c0 <errno>
   1061e:	076010ef          	jal	11694 <_close>
   10622:	57fd                	li	a5,-1
   10624:	00f50763          	beq	a0,a5,10632 <_close_r+0x24>
   10628:	60e2                	ld	ra,24(sp)
   1062a:	6442                	ld	s0,16(sp)
   1062c:	64a2                	ld	s1,8(sp)
   1062e:	6105                	addi	sp,sp,32
   10630:	8082                	ret
   10632:	1a81a783          	lw	a5,424(gp) # 129c0 <errno>
   10636:	dbed                	beqz	a5,10628 <_close_r+0x1a>
   10638:	60e2                	ld	ra,24(sp)
   1063a:	6442                	ld	s0,16(sp)
   1063c:	c09c                	sw	a5,0(s1)
   1063e:	64a2                	ld	s1,8(sp)
   10640:	6105                	addi	sp,sp,32
   10642:	8082                	ret

0000000000010644 <_reclaim_reent>:
   10644:	1881b783          	ld	a5,392(gp) # 129a0 <_impure_ptr>
   10648:	08a78063          	beq	a5,a0,106c8 <_reclaim_reent+0x84>
   1064c:	752c                	ld	a1,104(a0)
   1064e:	7179                	addi	sp,sp,-48
   10650:	ec26                	sd	s1,24(sp)
   10652:	f406                	sd	ra,40(sp)
   10654:	f022                	sd	s0,32(sp)
   10656:	84aa                	mv	s1,a0
   10658:	c98d                	beqz	a1,1068a <_reclaim_reent+0x46>
   1065a:	e84a                	sd	s2,16(sp)
   1065c:	e44e                	sd	s3,8(sp)
   1065e:	4901                	li	s2,0
   10660:	20000993          	li	s3,512
   10664:	012587b3          	add	a5,a1,s2
   10668:	6380                	ld	s0,0(a5)
   1066a:	c801                	beqz	s0,1067a <_reclaim_reent+0x36>
   1066c:	85a2                	mv	a1,s0
   1066e:	6000                	ld	s0,0(s0)
   10670:	8526                	mv	a0,s1
   10672:	3bc000ef          	jal	10a2e <_free_r>
   10676:	f87d                	bnez	s0,1066c <_reclaim_reent+0x28>
   10678:	74ac                	ld	a1,104(s1)
   1067a:	0921                	addi	s2,s2,8
   1067c:	ff3914e3          	bne	s2,s3,10664 <_reclaim_reent+0x20>
   10680:	8526                	mv	a0,s1
   10682:	3ac000ef          	jal	10a2e <_free_r>
   10686:	6942                	ld	s2,16(sp)
   10688:	69a2                	ld	s3,8(sp)
   1068a:	68ac                	ld	a1,80(s1)
   1068c:	c581                	beqz	a1,10694 <_reclaim_reent+0x50>
   1068e:	8526                	mv	a0,s1
   10690:	39e000ef          	jal	10a2e <_free_r>
   10694:	70a0                	ld	s0,96(s1)
   10696:	c419                	beqz	s0,106a4 <_reclaim_reent+0x60>
   10698:	85a2                	mv	a1,s0
   1069a:	6000                	ld	s0,0(s0)
   1069c:	8526                	mv	a0,s1
   1069e:	390000ef          	jal	10a2e <_free_r>
   106a2:	f87d                	bnez	s0,10698 <_reclaim_reent+0x54>
   106a4:	7cac                	ld	a1,120(s1)
   106a6:	c581                	beqz	a1,106ae <_reclaim_reent+0x6a>
   106a8:	8526                	mv	a0,s1
   106aa:	384000ef          	jal	10a2e <_free_r>
   106ae:	64bc                	ld	a5,72(s1)
   106b0:	c799                	beqz	a5,106be <_reclaim_reent+0x7a>
   106b2:	7402                	ld	s0,32(sp)
   106b4:	70a2                	ld	ra,40(sp)
   106b6:	8526                	mv	a0,s1
   106b8:	64e2                	ld	s1,24(sp)
   106ba:	6145                	addi	sp,sp,48
   106bc:	8782                	jr	a5
   106be:	70a2                	ld	ra,40(sp)
   106c0:	7402                	ld	s0,32(sp)
   106c2:	64e2                	ld	s1,24(sp)
   106c4:	6145                	addi	sp,sp,48
   106c6:	8082                	ret
   106c8:	8082                	ret

00000000000106ca <_lseek_r>:
   106ca:	1101                	addi	sp,sp,-32
   106cc:	87ae                	mv	a5,a1
   106ce:	e822                	sd	s0,16(sp)
   106d0:	e426                	sd	s1,8(sp)
   106d2:	85b2                	mv	a1,a2
   106d4:	84aa                	mv	s1,a0
   106d6:	8636                	mv	a2,a3
   106d8:	853e                	mv	a0,a5
   106da:	ec06                	sd	ra,24(sp)
   106dc:	1a01a423          	sw	zero,424(gp) # 129c0 <errno>
   106e0:	000010ef          	jal	116e0 <_lseek>
   106e4:	57fd                	li	a5,-1
   106e6:	00f50763          	beq	a0,a5,106f4 <_lseek_r+0x2a>
   106ea:	60e2                	ld	ra,24(sp)
   106ec:	6442                	ld	s0,16(sp)
   106ee:	64a2                	ld	s1,8(sp)
   106f0:	6105                	addi	sp,sp,32
   106f2:	8082                	ret
   106f4:	1a81a783          	lw	a5,424(gp) # 129c0 <errno>
   106f8:	dbed                	beqz	a5,106ea <_lseek_r+0x20>
   106fa:	60e2                	ld	ra,24(sp)
   106fc:	6442                	ld	s0,16(sp)
   106fe:	c09c                	sw	a5,0(s1)
   10700:	64a2                	ld	s1,8(sp)
   10702:	6105                	addi	sp,sp,32
   10704:	8082                	ret

0000000000010706 <_read_r>:
   10706:	1101                	addi	sp,sp,-32
   10708:	87ae                	mv	a5,a1
   1070a:	e822                	sd	s0,16(sp)
   1070c:	e426                	sd	s1,8(sp)
   1070e:	85b2                	mv	a1,a2
   10710:	84aa                	mv	s1,a0
   10712:	8636                	mv	a2,a3
   10714:	853e                	mv	a0,a5
   10716:	ec06                	sd	ra,24(sp)
   10718:	1a01a423          	sw	zero,424(gp) # 129c0 <errno>
   1071c:	7ef000ef          	jal	1170a <_read>
   10720:	57fd                	li	a5,-1
   10722:	00f50763          	beq	a0,a5,10730 <_read_r+0x2a>
   10726:	60e2                	ld	ra,24(sp)
   10728:	6442                	ld	s0,16(sp)
   1072a:	64a2                	ld	s1,8(sp)
   1072c:	6105                	addi	sp,sp,32
   1072e:	8082                	ret
   10730:	1a81a783          	lw	a5,424(gp) # 129c0 <errno>
   10734:	dbed                	beqz	a5,10726 <_read_r+0x20>
   10736:	60e2                	ld	ra,24(sp)
   10738:	6442                	ld	s0,16(sp)
   1073a:	c09c                	sw	a5,0(s1)
   1073c:	64a2                	ld	s1,8(sp)
   1073e:	6105                	addi	sp,sp,32
   10740:	8082                	ret

0000000000010742 <_write_r>:
   10742:	1101                	addi	sp,sp,-32
   10744:	87ae                	mv	a5,a1
   10746:	e822                	sd	s0,16(sp)
   10748:	e426                	sd	s1,8(sp)
   1074a:	85b2                	mv	a1,a2
   1074c:	84aa                	mv	s1,a0
   1074e:	8636                	mv	a2,a3
   10750:	853e                	mv	a0,a5
   10752:	ec06                	sd	ra,24(sp)
   10754:	1a01a423          	sw	zero,424(gp) # 129c0 <errno>
   10758:	030010ef          	jal	11788 <_write>
   1075c:	57fd                	li	a5,-1
   1075e:	00f50763          	beq	a0,a5,1076c <_write_r+0x2a>
   10762:	60e2                	ld	ra,24(sp)
   10764:	6442                	ld	s0,16(sp)
   10766:	64a2                	ld	s1,8(sp)
   10768:	6105                	addi	sp,sp,32
   1076a:	8082                	ret
   1076c:	1a81a783          	lw	a5,424(gp) # 129c0 <errno>
   10770:	dbed                	beqz	a5,10762 <_write_r+0x20>
   10772:	60e2                	ld	ra,24(sp)
   10774:	6442                	ld	s0,16(sp)
   10776:	c09c                	sw	a5,0(s1)
   10778:	64a2                	ld	s1,8(sp)
   1077a:	6105                	addi	sp,sp,32
   1077c:	8082                	ret

000000000001077e <__libc_init_array>:
   1077e:	1101                	addi	sp,sp,-32
   10780:	e822                	sd	s0,16(sp)
   10782:	e04a                	sd	s2,0(sp)
   10784:	6449                	lui	s0,0x12
   10786:	6949                	lui	s2,0x12
   10788:	ec06                	sd	ra,24(sp)
   1078a:	e426                	sd	s1,8(sp)
   1078c:	00090913          	mv	s2,s2
   10790:	00040413          	mv	s0,s0
   10794:	00890d63          	beq	s2,s0,107ae <__libc_init_array+0x30>
   10798:	40890933          	sub	s2,s2,s0
   1079c:	40395913          	srai	s2,s2,0x3
   107a0:	4481                	li	s1,0
   107a2:	601c                	ld	a5,0(s0)
   107a4:	0485                	addi	s1,s1,1
   107a6:	0421                	addi	s0,s0,8 # 12008 <__frame_dummy_init_array_entry>
   107a8:	9782                	jalr	a5
   107aa:	ff24ece3          	bltu	s1,s2,107a2 <__libc_init_array+0x24>
   107ae:	6949                	lui	s2,0x12
   107b0:	6449                	lui	s0,0x12
   107b2:	01090913          	addi	s2,s2,16 # 12010 <__do_global_dtors_aux_fini_array_entry>
   107b6:	00040413          	mv	s0,s0
   107ba:	00890d63          	beq	s2,s0,107d4 <__libc_init_array+0x56>
   107be:	40890933          	sub	s2,s2,s0
   107c2:	40395913          	srai	s2,s2,0x3
   107c6:	4481                	li	s1,0
   107c8:	601c                	ld	a5,0(s0)
   107ca:	0485                	addi	s1,s1,1
   107cc:	0421                	addi	s0,s0,8 # 12008 <__frame_dummy_init_array_entry>
   107ce:	9782                	jalr	a5
   107d0:	ff24ece3          	bltu	s1,s2,107c8 <__libc_init_array+0x4a>
   107d4:	60e2                	ld	ra,24(sp)
   107d6:	6442                	ld	s0,16(sp)
   107d8:	64a2                	ld	s1,8(sp)
   107da:	6902                	ld	s2,0(sp)
   107dc:	6105                	addi	sp,sp,32
   107de:	8082                	ret

00000000000107e0 <memset>:
   107e0:	433d                	li	t1,15
   107e2:	872a                	mv	a4,a0
   107e4:	02c37163          	bgeu	t1,a2,10806 <memset+0x26>
   107e8:	00f77793          	andi	a5,a4,15
   107ec:	e3c1                	bnez	a5,1086c <memset+0x8c>
   107ee:	e1bd                	bnez	a1,10854 <memset+0x74>
   107f0:	ff067693          	andi	a3,a2,-16
   107f4:	8a3d                	andi	a2,a2,15
   107f6:	96ba                	add	a3,a3,a4
   107f8:	e30c                	sd	a1,0(a4)
   107fa:	e70c                	sd	a1,8(a4)
   107fc:	0741                	addi	a4,a4,16
   107fe:	fed76de3          	bltu	a4,a3,107f8 <memset+0x18>
   10802:	e211                	bnez	a2,10806 <memset+0x26>
   10804:	8082                	ret
   10806:	40c306b3          	sub	a3,t1,a2
   1080a:	068a                	slli	a3,a3,0x2
   1080c:	00000297          	auipc	t0,0x0
   10810:	9696                	add	a3,a3,t0
   10812:	00a68067          	jr	10(a3)
   10816:	00b70723          	sb	a1,14(a4)
   1081a:	00b706a3          	sb	a1,13(a4)
   1081e:	00b70623          	sb	a1,12(a4)
   10822:	00b705a3          	sb	a1,11(a4)
   10826:	00b70523          	sb	a1,10(a4)
   1082a:	00b704a3          	sb	a1,9(a4)
   1082e:	00b70423          	sb	a1,8(a4)
   10832:	00b703a3          	sb	a1,7(a4)
   10836:	00b70323          	sb	a1,6(a4)
   1083a:	00b702a3          	sb	a1,5(a4)
   1083e:	00b70223          	sb	a1,4(a4)
   10842:	00b701a3          	sb	a1,3(a4)
   10846:	00b70123          	sb	a1,2(a4)
   1084a:	00b700a3          	sb	a1,1(a4)
   1084e:	00b70023          	sb	a1,0(a4)
   10852:	8082                	ret
   10854:	0ff5f593          	zext.b	a1,a1
   10858:	00859693          	slli	a3,a1,0x8
   1085c:	8dd5                	or	a1,a1,a3
   1085e:	01059693          	slli	a3,a1,0x10
   10862:	8dd5                	or	a1,a1,a3
   10864:	02059693          	slli	a3,a1,0x20
   10868:	8dd5                	or	a1,a1,a3
   1086a:	b759                	j	107f0 <memset+0x10>
   1086c:	00279693          	slli	a3,a5,0x2
   10870:	00000297          	auipc	t0,0x0
   10874:	9696                	add	a3,a3,t0
   10876:	8286                	mv	t0,ra
   10878:	fa2680e7          	jalr	-94(a3)
   1087c:	8096                	mv	ra,t0
   1087e:	17c1                	addi	a5,a5,-16
   10880:	8f1d                	sub	a4,a4,a5
   10882:	963e                	add	a2,a2,a5
   10884:	f8c371e3          	bgeu	t1,a2,10806 <memset+0x26>
   10888:	b79d                	j	107ee <memset+0xe>

000000000001088a <__call_exitprocs>:
   1088a:	715d                	addi	sp,sp,-80
   1088c:	f052                	sd	s4,32(sp)
   1088e:	f84a                	sd	s2,48(sp)
   10890:	1b01b903          	ld	s2,432(gp) # 129c8 <__atexit>
   10894:	e486                	sd	ra,72(sp)
   10896:	04090863          	beqz	s2,108e6 <__call_exitprocs+0x5c>
   1089a:	f44e                	sd	s3,40(sp)
   1089c:	ec56                	sd	s5,24(sp)
   1089e:	e85a                	sd	s6,16(sp)
   108a0:	e45e                	sd	s7,8(sp)
   108a2:	e0a2                	sd	s0,64(sp)
   108a4:	fc26                	sd	s1,56(sp)
   108a6:	e062                	sd	s8,0(sp)
   108a8:	8b2a                	mv	s6,a0
   108aa:	8bae                	mv	s7,a1
   108ac:	59fd                	li	s3,-1
   108ae:	4a85                	li	s5,1
   108b0:	00892403          	lw	s0,8(s2)
   108b4:	347d                	addiw	s0,s0,-1
   108b6:	02044163          	bltz	s0,108d8 <__call_exitprocs+0x4e>
   108ba:	01090493          	addi	s1,s2,16
   108be:	00341793          	slli	a5,s0,0x3
   108c2:	94be                	add	s1,s1,a5
   108c4:	020b8663          	beqz	s7,108f0 <__call_exitprocs+0x66>
   108c8:	2004b783          	ld	a5,512(s1)
   108cc:	03778263          	beq	a5,s7,108f0 <__call_exitprocs+0x66>
   108d0:	347d                	addiw	s0,s0,-1
   108d2:	14e1                	addi	s1,s1,-8
   108d4:	ff341ae3          	bne	s0,s3,108c8 <__call_exitprocs+0x3e>
   108d8:	6406                	ld	s0,64(sp)
   108da:	74e2                	ld	s1,56(sp)
   108dc:	79a2                	ld	s3,40(sp)
   108de:	6ae2                	ld	s5,24(sp)
   108e0:	6b42                	ld	s6,16(sp)
   108e2:	6ba2                	ld	s7,8(sp)
   108e4:	6c02                	ld	s8,0(sp)
   108e6:	60a6                	ld	ra,72(sp)
   108e8:	7942                	ld	s2,48(sp)
   108ea:	7a02                	ld	s4,32(sp)
   108ec:	6161                	addi	sp,sp,80
   108ee:	8082                	ret
   108f0:	00892783          	lw	a5,8(s2)
   108f4:	6094                	ld	a3,0(s1)
   108f6:	37fd                	addiw	a5,a5,-1
   108f8:	04878c63          	beq	a5,s0,10950 <__call_exitprocs+0xc6>
   108fc:	0004b023          	sd	zero,0(s1)
   10900:	c295                	beqz	a3,10924 <__call_exitprocs+0x9a>
   10902:	31092783          	lw	a5,784(s2)
   10906:	008a973b          	sllw	a4,s5,s0
   1090a:	00892c03          	lw	s8,8(s2)
   1090e:	8ff9                	and	a5,a5,a4
   10910:	ef99                	bnez	a5,1092e <__call_exitprocs+0xa4>
   10912:	9682                	jalr	a3
   10914:	00892703          	lw	a4,8(s2)
   10918:	1b01b783          	ld	a5,432(gp) # 129c8 <__atexit>
   1091c:	03871763          	bne	a4,s8,1094a <__call_exitprocs+0xc0>
   10920:	03279563          	bne	a5,s2,1094a <__call_exitprocs+0xc0>
   10924:	347d                	addiw	s0,s0,-1
   10926:	14e1                	addi	s1,s1,-8
   10928:	f9341ee3          	bne	s0,s3,108c4 <__call_exitprocs+0x3a>
   1092c:	b775                	j	108d8 <__call_exitprocs+0x4e>
   1092e:	31492783          	lw	a5,788(s2)
   10932:	1004b583          	ld	a1,256(s1)
   10936:	8f7d                	and	a4,a4,a5
   10938:	ef19                	bnez	a4,10956 <__call_exitprocs+0xcc>
   1093a:	855a                	mv	a0,s6
   1093c:	9682                	jalr	a3
   1093e:	00892703          	lw	a4,8(s2)
   10942:	1b01b783          	ld	a5,432(gp) # 129c8 <__atexit>
   10946:	fd870de3          	beq	a4,s8,10920 <__call_exitprocs+0x96>
   1094a:	d7d9                	beqz	a5,108d8 <__call_exitprocs+0x4e>
   1094c:	893e                	mv	s2,a5
   1094e:	b78d                	j	108b0 <__call_exitprocs+0x26>
   10950:	00892423          	sw	s0,8(s2)
   10954:	b775                	j	10900 <__call_exitprocs+0x76>
   10956:	852e                	mv	a0,a1
   10958:	9682                	jalr	a3
   1095a:	bf6d                	j	10914 <__call_exitprocs+0x8a>

000000000001095c <atexit>:
   1095c:	85aa                	mv	a1,a0
   1095e:	4681                	li	a3,0
   10960:	4601                	li	a2,0
   10962:	4501                	li	a0,0
   10964:	4c30006f          	j	11626 <__register_exitproc>

0000000000010968 <_malloc_trim_r>:
   10968:	7179                	addi	sp,sp,-48
   1096a:	e84a                	sd	s2,16(sp)
   1096c:	6949                	lui	s2,0x12
   1096e:	f022                	sd	s0,32(sp)
   10970:	ec26                	sd	s1,24(sp)
   10972:	e44e                	sd	s3,8(sp)
   10974:	842e                	mv	s0,a1
   10976:	f406                	sd	ra,40(sp)
   10978:	89aa                	mv	s3,a0
   1097a:	18890913          	addi	s2,s2,392 # 12188 <__malloc_av_>
   1097e:	161000ef          	jal	112de <__malloc_lock>
   10982:	01093783          	ld	a5,16(s2)
   10986:	6705                	lui	a4,0x1
   10988:	6784                	ld	s1,8(a5)
   1098a:	98f1                	andi	s1,s1,-4
   1098c:	7ff48793          	addi	a5,s1,2047
   10990:	7e078793          	addi	a5,a5,2016
   10994:	40878433          	sub	s0,a5,s0
   10998:	8031                	srli	s0,s0,0xc
   1099a:	147d                	addi	s0,s0,-1
   1099c:	0432                	slli	s0,s0,0xc
   1099e:	00e44b63          	blt	s0,a4,109b4 <_malloc_trim_r+0x4c>
   109a2:	4581                	li	a1,0
   109a4:	854e                	mv	a0,s3
   109a6:	417000ef          	jal	115bc <_sbrk_r>
   109aa:	01093783          	ld	a5,16(s2)
   109ae:	97a6                	add	a5,a5,s1
   109b0:	00f50d63          	beq	a0,a5,109ca <_malloc_trim_r+0x62>
   109b4:	854e                	mv	a0,s3
   109b6:	12b000ef          	jal	112e0 <__malloc_unlock>
   109ba:	70a2                	ld	ra,40(sp)
   109bc:	7402                	ld	s0,32(sp)
   109be:	64e2                	ld	s1,24(sp)
   109c0:	6942                	ld	s2,16(sp)
   109c2:	69a2                	ld	s3,8(sp)
   109c4:	4501                	li	a0,0
   109c6:	6145                	addi	sp,sp,48
   109c8:	8082                	ret
   109ca:	408005b3          	neg	a1,s0
   109ce:	854e                	mv	a0,s3
   109d0:	3ed000ef          	jal	115bc <_sbrk_r>
   109d4:	57fd                	li	a5,-1
   109d6:	02f50863          	beq	a0,a5,10a06 <_malloc_trim_r+0x9e>
   109da:	01093683          	ld	a3,16(s2)
   109de:	4201a783          	lw	a5,1056(gp) # 12c38 <__malloc_current_mallinfo>
   109e2:	8c81                	sub	s1,s1,s0
   109e4:	0014e493          	ori	s1,s1,1
   109e8:	854e                	mv	a0,s3
   109ea:	9f81                	subw	a5,a5,s0
   109ec:	e684                	sd	s1,8(a3)
   109ee:	42f1a023          	sw	a5,1056(gp) # 12c38 <__malloc_current_mallinfo>
   109f2:	0ef000ef          	jal	112e0 <__malloc_unlock>
   109f6:	70a2                	ld	ra,40(sp)
   109f8:	7402                	ld	s0,32(sp)
   109fa:	64e2                	ld	s1,24(sp)
   109fc:	6942                	ld	s2,16(sp)
   109fe:	69a2                	ld	s3,8(sp)
   10a00:	4505                	li	a0,1
   10a02:	6145                	addi	sp,sp,48
   10a04:	8082                	ret
   10a06:	4581                	li	a1,0
   10a08:	854e                	mv	a0,s3
   10a0a:	3b3000ef          	jal	115bc <_sbrk_r>
   10a0e:	01093703          	ld	a4,16(s2)
   10a12:	46fd                	li	a3,31
   10a14:	40e507b3          	sub	a5,a0,a4
   10a18:	f8f6dee3          	bge	a3,a5,109b4 <_malloc_trim_r+0x4c>
   10a1c:	1901b603          	ld	a2,400(gp) # 129a8 <__malloc_sbrk_base>
   10a20:	0017e793          	ori	a5,a5,1
   10a24:	8d11                	sub	a0,a0,a2
   10a26:	e71c                	sd	a5,8(a4)
   10a28:	42a1a023          	sw	a0,1056(gp) # 12c38 <__malloc_current_mallinfo>
   10a2c:	b761                	j	109b4 <_malloc_trim_r+0x4c>

0000000000010a2e <_free_r>:
   10a2e:	c1ed                	beqz	a1,10b10 <_free_r+0xe2>
   10a30:	1101                	addi	sp,sp,-32
   10a32:	e822                	sd	s0,16(sp)
   10a34:	e42e                	sd	a1,8(sp)
   10a36:	842a                	mv	s0,a0
   10a38:	ec06                	sd	ra,24(sp)
   10a3a:	0a5000ef          	jal	112de <__malloc_lock>
   10a3e:	65a2                	ld	a1,8(sp)
   10a40:	6849                	lui	a6,0x12
   10a42:	18880813          	addi	a6,a6,392 # 12188 <__malloc_av_>
   10a46:	ff85b503          	ld	a0,-8(a1)
   10a4a:	ff058713          	addi	a4,a1,-16
   10a4e:	01083883          	ld	a7,16(a6)
   10a52:	ffe57793          	andi	a5,a0,-2
   10a56:	00f70633          	add	a2,a4,a5
   10a5a:	6614                	ld	a3,8(a2)
   10a5c:	00157313          	andi	t1,a0,1
   10a60:	9af1                	andi	a3,a3,-4
   10a62:	12c88363          	beq	a7,a2,10b88 <_free_r+0x15a>
   10a66:	e614                	sd	a3,8(a2)
   10a68:	00d608b3          	add	a7,a2,a3
   10a6c:	0088b883          	ld	a7,8(a7)
   10a70:	0018f893          	andi	a7,a7,1
   10a74:	06031a63          	bnez	t1,10ae8 <_free_r+0xba>
   10a78:	ff05b303          	ld	t1,-16(a1)
   10a7c:	65c9                	lui	a1,0x12
   10a7e:	19858593          	addi	a1,a1,408 # 12198 <__malloc_av_+0x10>
   10a82:	40670733          	sub	a4,a4,t1
   10a86:	6b08                	ld	a0,16(a4)
   10a88:	979a                	add	a5,a5,t1
   10a8a:	0eb50263          	beq	a0,a1,10b6e <_free_r+0x140>
   10a8e:	01873303          	ld	t1,24(a4) # 1018 <exit-0xf108>
   10a92:	00653c23          	sd	t1,24(a0)
   10a96:	00a33823          	sd	a0,16(t1)
   10a9a:	12088163          	beqz	a7,10bbc <_free_r+0x18e>
   10a9e:	0017e693          	ori	a3,a5,1
   10aa2:	e714                	sd	a3,8(a4)
   10aa4:	e21c                	sd	a5,0(a2)
   10aa6:	1ff00693          	li	a3,511
   10aaa:	06f6ed63          	bltu	a3,a5,10b24 <_free_r+0xf6>
   10aae:	838d                	srli	a5,a5,0x3
   10ab0:	00179693          	slli	a3,a5,0x1
   10ab4:	2689                	addiw	a3,a3,2
   10ab6:	068e                	slli	a3,a3,0x3
   10ab8:	00883503          	ld	a0,8(a6)
   10abc:	96c2                	add	a3,a3,a6
   10abe:	628c                	ld	a1,0(a3)
   10ac0:	4027d61b          	sraiw	a2,a5,0x2
   10ac4:	4785                	li	a5,1
   10ac6:	00c797b3          	sll	a5,a5,a2
   10aca:	8fc9                	or	a5,a5,a0
   10acc:	ff068613          	addi	a2,a3,-16
   10ad0:	eb0c                	sd	a1,16(a4)
   10ad2:	ef10                	sd	a2,24(a4)
   10ad4:	00f83423          	sd	a5,8(a6)
   10ad8:	e298                	sd	a4,0(a3)
   10ada:	ed98                	sd	a4,24(a1)
   10adc:	8522                	mv	a0,s0
   10ade:	6442                	ld	s0,16(sp)
   10ae0:	60e2                	ld	ra,24(sp)
   10ae2:	6105                	addi	sp,sp,32
   10ae4:	7fc0006f          	j	112e0 <__malloc_unlock>
   10ae8:	02089563          	bnez	a7,10b12 <_free_r+0xe4>
   10aec:	65c9                	lui	a1,0x12
   10aee:	97b6                	add	a5,a5,a3
   10af0:	19858593          	addi	a1,a1,408 # 12198 <__malloc_av_+0x10>
   10af4:	6a14                	ld	a3,16(a2)
   10af6:	0017e893          	ori	a7,a5,1
   10afa:	00f70533          	add	a0,a4,a5
   10afe:	0eb68f63          	beq	a3,a1,10bfc <_free_r+0x1ce>
   10b02:	6e10                	ld	a2,24(a2)
   10b04:	ee90                	sd	a2,24(a3)
   10b06:	ea14                	sd	a3,16(a2)
   10b08:	01173423          	sd	a7,8(a4)
   10b0c:	e11c                	sd	a5,0(a0)
   10b0e:	bf61                	j	10aa6 <_free_r+0x78>
   10b10:	8082                	ret
   10b12:	00156513          	ori	a0,a0,1
   10b16:	fea5bc23          	sd	a0,-8(a1)
   10b1a:	e21c                	sd	a5,0(a2)
   10b1c:	1ff00693          	li	a3,511
   10b20:	f8f6f7e3          	bgeu	a3,a5,10aae <_free_r+0x80>
   10b24:	0097d693          	srli	a3,a5,0x9
   10b28:	4611                	li	a2,4
   10b2a:	08d66b63          	bltu	a2,a3,10bc0 <_free_r+0x192>
   10b2e:	0067d693          	srli	a3,a5,0x6
   10b32:	00169593          	slli	a1,a3,0x1
   10b36:	0725859b          	addiw	a1,a1,114
   10b3a:	058e                	slli	a1,a1,0x3
   10b3c:	0386861b          	addiw	a2,a3,56
   10b40:	95c2                	add	a1,a1,a6
   10b42:	6194                	ld	a3,0(a1)
   10b44:	15c1                	addi	a1,a1,-16
   10b46:	00d59663          	bne	a1,a3,10b52 <_free_r+0x124>
   10b4a:	a0d9                	j	10c10 <_free_r+0x1e2>
   10b4c:	6a94                	ld	a3,16(a3)
   10b4e:	00d58663          	beq	a1,a3,10b5a <_free_r+0x12c>
   10b52:	6690                	ld	a2,8(a3)
   10b54:	9a71                	andi	a2,a2,-4
   10b56:	fec7ebe3          	bltu	a5,a2,10b4c <_free_r+0x11e>
   10b5a:	6e8c                	ld	a1,24(a3)
   10b5c:	ef0c                	sd	a1,24(a4)
   10b5e:	eb14                	sd	a3,16(a4)
   10b60:	8522                	mv	a0,s0
   10b62:	6442                	ld	s0,16(sp)
   10b64:	60e2                	ld	ra,24(sp)
   10b66:	e998                	sd	a4,16(a1)
   10b68:	ee98                	sd	a4,24(a3)
   10b6a:	6105                	addi	sp,sp,32
   10b6c:	af95                	j	112e0 <__malloc_unlock>
   10b6e:	06089a63          	bnez	a7,10be2 <_free_r+0x1b4>
   10b72:	6e0c                	ld	a1,24(a2)
   10b74:	6a10                	ld	a2,16(a2)
   10b76:	96be                	add	a3,a3,a5
   10b78:	0016e793          	ori	a5,a3,1
   10b7c:	ee0c                	sd	a1,24(a2)
   10b7e:	e990                	sd	a2,16(a1)
   10b80:	e71c                	sd	a5,8(a4)
   10b82:	9736                	add	a4,a4,a3
   10b84:	e314                	sd	a3,0(a4)
   10b86:	bf99                	j	10adc <_free_r+0xae>
   10b88:	96be                	add	a3,a3,a5
   10b8a:	00031a63          	bnez	t1,10b9e <_free_r+0x170>
   10b8e:	ff05b783          	ld	a5,-16(a1)
   10b92:	8f1d                	sub	a4,a4,a5
   10b94:	6b10                	ld	a2,16(a4)
   10b96:	96be                	add	a3,a3,a5
   10b98:	6f1c                	ld	a5,24(a4)
   10b9a:	ee1c                	sd	a5,24(a2)
   10b9c:	eb90                	sd	a2,16(a5)
   10b9e:	0016e613          	ori	a2,a3,1
   10ba2:	1981b783          	ld	a5,408(gp) # 129b0 <__malloc_trim_threshold>
   10ba6:	e710                	sd	a2,8(a4)
   10ba8:	00e83823          	sd	a4,16(a6)
   10bac:	f2f6e8e3          	bltu	a3,a5,10adc <_free_r+0xae>
   10bb0:	1c81b583          	ld	a1,456(gp) # 129e0 <__malloc_top_pad>
   10bb4:	8522                	mv	a0,s0
   10bb6:	db3ff0ef          	jal	10968 <_malloc_trim_r>
   10bba:	b70d                	j	10adc <_free_r+0xae>
   10bbc:	97b6                	add	a5,a5,a3
   10bbe:	bf1d                	j	10af4 <_free_r+0xc6>
   10bc0:	4651                	li	a2,20
   10bc2:	02d67563          	bgeu	a2,a3,10bec <_free_r+0x1be>
   10bc6:	05400613          	li	a2,84
   10bca:	04d66e63          	bltu	a2,a3,10c26 <_free_r+0x1f8>
   10bce:	00c7d693          	srli	a3,a5,0xc
   10bd2:	00169593          	slli	a1,a3,0x1
   10bd6:	0de5859b          	addiw	a1,a1,222
   10bda:	058e                	slli	a1,a1,0x3
   10bdc:	06e6861b          	addiw	a2,a3,110
   10be0:	b785                	j	10b40 <_free_r+0x112>
   10be2:	0017e693          	ori	a3,a5,1
   10be6:	e714                	sd	a3,8(a4)
   10be8:	e21c                	sd	a5,0(a2)
   10bea:	bdcd                	j	10adc <_free_r+0xae>
   10bec:	00169593          	slli	a1,a3,0x1
   10bf0:	0b85859b          	addiw	a1,a1,184
   10bf4:	058e                	slli	a1,a1,0x3
   10bf6:	05b6861b          	addiw	a2,a3,91
   10bfa:	b799                	j	10b40 <_free_r+0x112>
   10bfc:	02e83423          	sd	a4,40(a6)
   10c00:	02e83023          	sd	a4,32(a6)
   10c04:	ef0c                	sd	a1,24(a4)
   10c06:	eb0c                	sd	a1,16(a4)
   10c08:	01173423          	sd	a7,8(a4)
   10c0c:	e11c                	sd	a5,0(a0)
   10c0e:	b5f9                	j	10adc <_free_r+0xae>
   10c10:	00883503          	ld	a0,8(a6)
   10c14:	4026561b          	sraiw	a2,a2,0x2
   10c18:	4785                	li	a5,1
   10c1a:	00c797b3          	sll	a5,a5,a2
   10c1e:	8fc9                	or	a5,a5,a0
   10c20:	00f83423          	sd	a5,8(a6)
   10c24:	bf25                	j	10b5c <_free_r+0x12e>
   10c26:	15400613          	li	a2,340
   10c2a:	00d66c63          	bltu	a2,a3,10c42 <_free_r+0x214>
   10c2e:	00f7d693          	srli	a3,a5,0xf
   10c32:	00169593          	slli	a1,a3,0x1
   10c36:	0f05859b          	addiw	a1,a1,240
   10c3a:	058e                	slli	a1,a1,0x3
   10c3c:	0776861b          	addiw	a2,a3,119
   10c40:	b701                	j	10b40 <_free_r+0x112>
   10c42:	55400613          	li	a2,1364
   10c46:	00d66c63          	bltu	a2,a3,10c5e <_free_r+0x230>
   10c4a:	0127d693          	srli	a3,a5,0x12
   10c4e:	00169593          	slli	a1,a3,0x1
   10c52:	0fa5859b          	addiw	a1,a1,250
   10c56:	058e                	slli	a1,a1,0x3
   10c58:	07c6861b          	addiw	a2,a3,124
   10c5c:	b5d5                	j	10b40 <_free_r+0x112>
   10c5e:	7f000593          	li	a1,2032
   10c62:	07e00613          	li	a2,126
   10c66:	bde9                	j	10b40 <_free_r+0x112>

0000000000010c68 <_malloc_r>:
   10c68:	711d                	addi	sp,sp,-96
   10c6a:	e8a2                	sd	s0,80(sp)
   10c6c:	ec86                	sd	ra,88(sp)
   10c6e:	01758713          	addi	a4,a1,23
   10c72:	02e00793          	li	a5,46
   10c76:	842a                	mv	s0,a0
   10c78:	06e7e363          	bltu	a5,a4,10cde <_malloc_r+0x76>
   10c7c:	02000713          	li	a4,32
   10c80:	04b76863          	bltu	a4,a1,10cd0 <_malloc_r+0x68>
   10c84:	65a000ef          	jal	112de <__malloc_lock>
   10c88:	02000713          	li	a4,32
   10c8c:	05000693          	li	a3,80
   10c90:	4891                	li	a7,4
   10c92:	6849                	lui	a6,0x12
   10c94:	18880813          	addi	a6,a6,392 # 12188 <__malloc_av_>
   10c98:	96c2                	add	a3,a3,a6
   10c9a:	669c                	ld	a5,8(a3)
   10c9c:	ff068613          	addi	a2,a3,-16
   10ca0:	32c78663          	beq	a5,a2,10fcc <_malloc_r+0x364>
   10ca4:	6798                	ld	a4,8(a5)
   10ca6:	6f90                	ld	a2,24(a5)
   10ca8:	6b8c                	ld	a1,16(a5)
   10caa:	9b71                	andi	a4,a4,-4
   10cac:	973e                	add	a4,a4,a5
   10cae:	6714                	ld	a3,8(a4)
   10cb0:	ed90                	sd	a2,24(a1)
   10cb2:	ea0c                	sd	a1,16(a2)
   10cb4:	0016e693          	ori	a3,a3,1
   10cb8:	8522                	mv	a0,s0
   10cba:	e714                	sd	a3,8(a4)
   10cbc:	e43e                	sd	a5,8(sp)
   10cbe:	622000ef          	jal	112e0 <__malloc_unlock>
   10cc2:	67a2                	ld	a5,8(sp)
   10cc4:	60e6                	ld	ra,88(sp)
   10cc6:	6446                	ld	s0,80(sp)
   10cc8:	01078513          	addi	a0,a5,16
   10ccc:	6125                	addi	sp,sp,96
   10cce:	8082                	ret
   10cd0:	47b1                	li	a5,12
   10cd2:	c01c                	sw	a5,0(s0)
   10cd4:	4501                	li	a0,0
   10cd6:	60e6                	ld	ra,88(sp)
   10cd8:	6446                	ld	s0,80(sp)
   10cda:	6125                	addi	sp,sp,96
   10cdc:	8082                	ret
   10cde:	4785                	li	a5,1
   10ce0:	9b41                	andi	a4,a4,-16
   10ce2:	07fe                	slli	a5,a5,0x1f
   10ce4:	fef776e3          	bgeu	a4,a5,10cd0 <_malloc_r+0x68>
   10ce8:	feb764e3          	bltu	a4,a1,10cd0 <_malloc_r+0x68>
   10cec:	e43a                	sd	a4,8(sp)
   10cee:	5f0000ef          	jal	112de <__malloc_lock>
   10cf2:	6722                	ld	a4,8(sp)
   10cf4:	1f700793          	li	a5,503
   10cf8:	38e7f863          	bgeu	a5,a4,11088 <_malloc_r+0x420>
   10cfc:	00975793          	srli	a5,a4,0x9
   10d00:	12078463          	beqz	a5,10e28 <_malloc_r+0x1c0>
   10d04:	4691                	li	a3,4
   10d06:	30f6ea63          	bltu	a3,a5,1101a <_malloc_r+0x3b2>
   10d0a:	00675793          	srli	a5,a4,0x6
   10d0e:	0397889b          	addiw	a7,a5,57
   10d12:	0018951b          	slliw	a0,a7,0x1
   10d16:	03878e1b          	addiw	t3,a5,56
   10d1a:	050e                	slli	a0,a0,0x3
   10d1c:	6849                	lui	a6,0x12
   10d1e:	18880813          	addi	a6,a6,392 # 12188 <__malloc_av_>
   10d22:	9542                	add	a0,a0,a6
   10d24:	651c                	ld	a5,8(a0)
   10d26:	1541                	addi	a0,a0,-16
   10d28:	02f50163          	beq	a0,a5,10d4a <_malloc_r+0xe2>
   10d2c:	437d                	li	t1,31
   10d2e:	a039                	j	10d3c <_malloc_r+0xd4>
   10d30:	6f8c                	ld	a1,24(a5)
   10d32:	26065a63          	bgez	a2,10fa6 <_malloc_r+0x33e>
   10d36:	00b50a63          	beq	a0,a1,10d4a <_malloc_r+0xe2>
   10d3a:	87ae                	mv	a5,a1
   10d3c:	6794                	ld	a3,8(a5)
   10d3e:	9af1                	andi	a3,a3,-4
   10d40:	40e68633          	sub	a2,a3,a4
   10d44:	fec356e3          	bge	t1,a2,10d30 <_malloc_r+0xc8>
   10d48:	88f2                	mv	a7,t3
   10d4a:	02083783          	ld	a5,32(a6)
   10d4e:	6e49                	lui	t3,0x12
   10d50:	198e0e13          	addi	t3,t3,408 # 12198 <__malloc_av_+0x10>
   10d54:	23c78263          	beq	a5,t3,10f78 <_malloc_r+0x310>
   10d58:	0087b303          	ld	t1,8(a5)
   10d5c:	467d                	li	a2,31
   10d5e:	ffc37313          	andi	t1,t1,-4
   10d62:	40e306b3          	sub	a3,t1,a4
   10d66:	34d64863          	blt	a2,a3,110b6 <_malloc_r+0x44e>
   10d6a:	03c83423          	sd	t3,40(a6)
   10d6e:	03c83023          	sd	t3,32(a6)
   10d72:	3206d363          	bgez	a3,11098 <_malloc_r+0x430>
   10d76:	1ff00693          	li	a3,511
   10d7a:	00883583          	ld	a1,8(a6)
   10d7e:	2466ec63          	bltu	a3,t1,10fd6 <_malloc_r+0x36e>
   10d82:	00335313          	srli	t1,t1,0x3
   10d86:	00131693          	slli	a3,t1,0x1
   10d8a:	2689                	addiw	a3,a3,2
   10d8c:	068e                	slli	a3,a3,0x3
   10d8e:	96c2                	add	a3,a3,a6
   10d90:	6288                	ld	a0,0(a3)
   10d92:	4023531b          	sraiw	t1,t1,0x2
   10d96:	4605                	li	a2,1
   10d98:	00661633          	sll	a2,a2,t1
   10d9c:	8dd1                	or	a1,a1,a2
   10d9e:	ff068613          	addi	a2,a3,-16
   10da2:	eb88                	sd	a0,16(a5)
   10da4:	ef90                	sd	a2,24(a5)
   10da6:	00b83423          	sd	a1,8(a6)
   10daa:	e29c                	sd	a5,0(a3)
   10dac:	ed1c                	sd	a5,24(a0)
   10dae:	4028d79b          	sraiw	a5,a7,0x2
   10db2:	4505                	li	a0,1
   10db4:	00f51533          	sll	a0,a0,a5
   10db8:	06a5ef63          	bltu	a1,a0,10e36 <_malloc_r+0x1ce>
   10dbc:	00b577b3          	and	a5,a0,a1
   10dc0:	ef89                	bnez	a5,10dda <_malloc_r+0x172>
   10dc2:	0506                	slli	a0,a0,0x1
   10dc4:	ffc8f893          	andi	a7,a7,-4
   10dc8:	00b577b3          	and	a5,a0,a1
   10dcc:	2891                	addiw	a7,a7,4
   10dce:	e791                	bnez	a5,10dda <_malloc_r+0x172>
   10dd0:	0506                	slli	a0,a0,0x1
   10dd2:	00b577b3          	and	a5,a0,a1
   10dd6:	2891                	addiw	a7,a7,4
   10dd8:	dfe5                	beqz	a5,10dd0 <_malloc_r+0x168>
   10dda:	4efd                	li	t4,31
   10ddc:	00189f13          	slli	t5,a7,0x1
   10de0:	2f09                	addiw	t5,t5,2
   10de2:	0f0e                	slli	t5,t5,0x3
   10de4:	1f41                	addi	t5,t5,-16
   10de6:	9f42                	add	t5,t5,a6
   10de8:	837a                	mv	t1,t5
   10dea:	01833683          	ld	a3,24(t1)
   10dee:	8fc6                	mv	t6,a7
   10df0:	24d30663          	beq	t1,a3,1103c <_malloc_r+0x3d4>
   10df4:	6690                	ld	a2,8(a3)
   10df6:	87b6                	mv	a5,a3
   10df8:	6e94                	ld	a3,24(a3)
   10dfa:	9a71                	andi	a2,a2,-4
   10dfc:	40e605b3          	sub	a1,a2,a4
   10e00:	24bec763          	blt	t4,a1,1104e <_malloc_r+0x3e6>
   10e04:	fe05c6e3          	bltz	a1,10df0 <_malloc_r+0x188>
   10e08:	963e                	add	a2,a2,a5
   10e0a:	6618                	ld	a4,8(a2)
   10e0c:	6b8c                	ld	a1,16(a5)
   10e0e:	8522                	mv	a0,s0
   10e10:	00176713          	ori	a4,a4,1
   10e14:	e618                	sd	a4,8(a2)
   10e16:	ed94                	sd	a3,24(a1)
   10e18:	ea8c                	sd	a1,16(a3)
   10e1a:	e43e                	sd	a5,8(sp)
   10e1c:	4c4000ef          	jal	112e0 <__malloc_unlock>
   10e20:	67a2                	ld	a5,8(sp)
   10e22:	01078513          	addi	a0,a5,16
   10e26:	bd45                	j	10cd6 <_malloc_r+0x6e>
   10e28:	40000513          	li	a0,1024
   10e2c:	04000893          	li	a7,64
   10e30:	03f00e13          	li	t3,63
   10e34:	b5e5                	j	10d1c <_malloc_r+0xb4>
   10e36:	01083783          	ld	a5,16(a6)
   10e3a:	6794                	ld	a3,8(a5)
   10e3c:	ffc6f893          	andi	a7,a3,-4
   10e40:	40e88633          	sub	a2,a7,a4
   10e44:	00e8e663          	bltu	a7,a4,10e50 <_malloc_r+0x1e8>
   10e48:	02062693          	slti	a3,a2,32
   10e4c:	12068963          	beqz	a3,10f7e <_malloc_r+0x316>
   10e50:	1c81b583          	ld	a1,456(gp) # 129e0 <__malloc_top_pad>
   10e54:	1901b603          	ld	a2,400(gp) # 129a8 <__malloc_sbrk_base>
   10e58:	56fd                	li	a3,-1
   10e5a:	95ba                	add	a1,a1,a4
   10e5c:	30d60a63          	beq	a2,a3,11170 <_malloc_r+0x508>
   10e60:	6685                	lui	a3,0x1
   10e62:	06fd                	addi	a3,a3,31 # 101f <exit-0xf101>
   10e64:	95b6                	add	a1,a1,a3
   10e66:	76fd                	lui	a3,0xfffff
   10e68:	8df5                	and	a1,a1,a3
   10e6a:	8522                	mv	a0,s0
   10e6c:	f442                	sd	a6,40(sp)
   10e6e:	f03e                	sd	a5,32(sp)
   10e70:	ec3a                	sd	a4,24(sp)
   10e72:	e846                	sd	a7,16(sp)
   10e74:	e42e                	sd	a1,8(sp)
   10e76:	746000ef          	jal	115bc <_sbrk_r>
   10e7a:	56fd                	li	a3,-1
   10e7c:	65a2                	ld	a1,8(sp)
   10e7e:	68c2                	ld	a7,16(sp)
   10e80:	6762                	ld	a4,24(sp)
   10e82:	7782                	ld	a5,32(sp)
   10e84:	7822                	ld	a6,40(sp)
   10e86:	832a                	mv	t1,a0
   10e88:	26d50d63          	beq	a0,a3,11102 <_malloc_r+0x49a>
   10e8c:	011786b3          	add	a3,a5,a7
   10e90:	26d56763          	bltu	a0,a3,110fe <_malloc_r+0x496>
   10e94:	42018e13          	addi	t3,gp,1056 # 12c38 <__malloc_current_mallinfo>
   10e98:	000e2603          	lw	a2,0(t3)
   10e9c:	9e2d                	addw	a2,a2,a1
   10e9e:	00ce2023          	sw	a2,0(t3)
   10ea2:	8532                	mv	a0,a2
   10ea4:	36668563          	beq	a3,t1,1120e <_malloc_r+0x5a6>
   10ea8:	1901bf03          	ld	t5,400(gp) # 129a8 <__malloc_sbrk_base>
   10eac:	567d                	li	a2,-1
   10eae:	36cf0c63          	beq	t5,a2,11226 <_malloc_r+0x5be>
   10eb2:	40d306b3          	sub	a3,t1,a3
   10eb6:	9ea9                	addw	a3,a3,a0
   10eb8:	00de2023          	sw	a3,0(t3)
   10ebc:	00f37e93          	andi	t4,t1,15
   10ec0:	2c0e8463          	beqz	t4,11188 <_malloc_r+0x520>
   10ec4:	ff037313          	andi	t1,t1,-16
   10ec8:	6685                	lui	a3,0x1
   10eca:	0341                	addi	t1,t1,16
   10ecc:	06c1                	addi	a3,a3,16 # 1010 <exit-0xf110>
   10ece:	00b30633          	add	a2,t1,a1
   10ed2:	41d685b3          	sub	a1,a3,t4
   10ed6:	8d91                	sub	a1,a1,a2
   10ed8:	15d2                	slli	a1,a1,0x34
   10eda:	91d1                	srli	a1,a1,0x34
   10edc:	8522                	mv	a0,s0
   10ede:	e0f2                	sd	t3,64(sp)
   10ee0:	fc42                	sd	a6,56(sp)
   10ee2:	f83e                	sd	a5,48(sp)
   10ee4:	f43a                	sd	a4,40(sp)
   10ee6:	f046                	sd	a7,32(sp)
   10ee8:	ec1a                	sd	t1,24(sp)
   10eea:	e876                	sd	t4,16(sp)
   10eec:	e432                	sd	a2,8(sp)
   10eee:	e4ae                	sd	a1,72(sp)
   10ef0:	6cc000ef          	jal	115bc <_sbrk_r>
   10ef4:	86aa                	mv	a3,a0
   10ef6:	557d                	li	a0,-1
   10ef8:	6622                	ld	a2,8(sp)
   10efa:	6ec2                	ld	t4,16(sp)
   10efc:	6362                	ld	t1,24(sp)
   10efe:	7882                	ld	a7,32(sp)
   10f00:	7722                	ld	a4,40(sp)
   10f02:	77c2                	ld	a5,48(sp)
   10f04:	7862                	ld	a6,56(sp)
   10f06:	6e06                	ld	t3,64(sp)
   10f08:	36a68263          	beq	a3,a0,1126c <_malloc_r+0x604>
   10f0c:	65a6                	ld	a1,72(sp)
   10f0e:	0005851b          	sext.w	a0,a1
   10f12:	000e2603          	lw	a2,0(t3)
   10f16:	406686b3          	sub	a3,a3,t1
   10f1a:	96ae                	add	a3,a3,a1
   10f1c:	0016e693          	ori	a3,a3,1
   10f20:	00683823          	sd	t1,16(a6)
   10f24:	9e29                	addw	a2,a2,a0
   10f26:	00d33423          	sd	a3,8(t1)
   10f2a:	00ce2023          	sw	a2,0(t3)
   10f2e:	03078763          	beq	a5,a6,10f5c <_malloc_r+0x2f4>
   10f32:	457d                	li	a0,31
   10f34:	2f157c63          	bgeu	a0,a7,1122c <_malloc_r+0x5c4>
   10f38:	678c                	ld	a1,8(a5)
   10f3a:	fe888693          	addi	a3,a7,-24
   10f3e:	9ac1                	andi	a3,a3,-16
   10f40:	8985                	andi	a1,a1,1
   10f42:	8dd5                	or	a1,a1,a3
   10f44:	e78c                	sd	a1,8(a5)
   10f46:	48a5                	li	a7,9
   10f48:	00d785b3          	add	a1,a5,a3
   10f4c:	0115b423          	sd	a7,8(a1)
   10f50:	0115b823          	sd	a7,16(a1)
   10f54:	32d56663          	bltu	a0,a3,11280 <_malloc_r+0x618>
   10f58:	00833683          	ld	a3,8(t1)
   10f5c:	1c01b583          	ld	a1,448(gp) # 129d8 <__malloc_max_sbrked_mem>
   10f60:	00c5f463          	bgeu	a1,a2,10f68 <_malloc_r+0x300>
   10f64:	1cc1b023          	sd	a2,448(gp) # 129d8 <__malloc_max_sbrked_mem>
   10f68:	1b81b583          	ld	a1,440(gp) # 129d0 <__malloc_max_total_mem>
   10f6c:	00c5f463          	bgeu	a1,a2,10f74 <_malloc_r+0x30c>
   10f70:	1ac1bc23          	sd	a2,440(gp) # 129d0 <__malloc_max_total_mem>
   10f74:	879a                	mv	a5,t1
   10f76:	aa49                	j	11108 <_malloc_r+0x4a0>
   10f78:	00883583          	ld	a1,8(a6)
   10f7c:	bd0d                	j	10dae <_malloc_r+0x146>
   10f7e:	00176693          	ori	a3,a4,1
   10f82:	e794                	sd	a3,8(a5)
   10f84:	973e                	add	a4,a4,a5
   10f86:	00166613          	ori	a2,a2,1
   10f8a:	00e83823          	sd	a4,16(a6)
   10f8e:	8522                	mv	a0,s0
   10f90:	e710                	sd	a2,8(a4)
   10f92:	e43e                	sd	a5,8(sp)
   10f94:	34c000ef          	jal	112e0 <__malloc_unlock>
   10f98:	67a2                	ld	a5,8(sp)
   10f9a:	60e6                	ld	ra,88(sp)
   10f9c:	6446                	ld	s0,80(sp)
   10f9e:	01078513          	addi	a0,a5,16
   10fa2:	6125                	addi	sp,sp,96
   10fa4:	8082                	ret
   10fa6:	6b90                	ld	a2,16(a5)
   10fa8:	96be                	add	a3,a3,a5
   10faa:	6698                	ld	a4,8(a3)
   10fac:	ee0c                	sd	a1,24(a2)
   10fae:	e990                	sd	a2,16(a1)
   10fb0:	00176713          	ori	a4,a4,1
   10fb4:	8522                	mv	a0,s0
   10fb6:	e698                	sd	a4,8(a3)
   10fb8:	e43e                	sd	a5,8(sp)
   10fba:	326000ef          	jal	112e0 <__malloc_unlock>
   10fbe:	67a2                	ld	a5,8(sp)
   10fc0:	60e6                	ld	ra,88(sp)
   10fc2:	6446                	ld	s0,80(sp)
   10fc4:	01078513          	addi	a0,a5,16
   10fc8:	6125                	addi	sp,sp,96
   10fca:	8082                	ret
   10fcc:	6e9c                	ld	a5,24(a3)
   10fce:	2889                	addiw	a7,a7,2
   10fd0:	d6f68de3          	beq	a3,a5,10d4a <_malloc_r+0xe2>
   10fd4:	b9c1                	j	10ca4 <_malloc_r+0x3c>
   10fd6:	00935693          	srli	a3,t1,0x9
   10fda:	4611                	li	a2,4
   10fdc:	10d67763          	bgeu	a2,a3,110ea <_malloc_r+0x482>
   10fe0:	4651                	li	a2,20
   10fe2:	1ed66263          	bltu	a2,a3,111c6 <_malloc_r+0x55e>
   10fe6:	00169513          	slli	a0,a3,0x1
   10fea:	0b85051b          	addiw	a0,a0,184
   10fee:	050e                	slli	a0,a0,0x3
   10ff0:	05b6861b          	addiw	a2,a3,91
   10ff4:	9542                	add	a0,a0,a6
   10ff6:	6114                	ld	a3,0(a0)
   10ff8:	1541                	addi	a0,a0,-16
   10ffa:	00d51663          	bne	a0,a3,11006 <_malloc_r+0x39e>
   10ffe:	aaa5                	j	11176 <_malloc_r+0x50e>
   11000:	6a94                	ld	a3,16(a3)
   11002:	00d50663          	beq	a0,a3,1100e <_malloc_r+0x3a6>
   11006:	6690                	ld	a2,8(a3)
   11008:	9a71                	andi	a2,a2,-4
   1100a:	fec36be3          	bltu	t1,a2,11000 <_malloc_r+0x398>
   1100e:	6e88                	ld	a0,24(a3)
   11010:	ef88                	sd	a0,24(a5)
   11012:	eb94                	sd	a3,16(a5)
   11014:	e91c                	sd	a5,16(a0)
   11016:	ee9c                	sd	a5,24(a3)
   11018:	bb59                	j	10dae <_malloc_r+0x146>
   1101a:	46d1                	li	a3,20
   1101c:	10f6f363          	bgeu	a3,a5,11122 <_malloc_r+0x4ba>
   11020:	05400693          	li	a3,84
   11024:	1af6ef63          	bltu	a3,a5,111e2 <_malloc_r+0x57a>
   11028:	00c75793          	srli	a5,a4,0xc
   1102c:	06f7889b          	addiw	a7,a5,111
   11030:	0018951b          	slliw	a0,a7,0x1
   11034:	06e78e1b          	addiw	t3,a5,110
   11038:	050e                	slli	a0,a0,0x3
   1103a:	b1cd                	j	10d1c <_malloc_r+0xb4>
   1103c:	2f85                	addiw	t6,t6,1
   1103e:	003ff793          	andi	a5,t6,3
   11042:	0341                	addi	t1,t1,16
   11044:	0e078c63          	beqz	a5,1113c <_malloc_r+0x4d4>
   11048:	01833683          	ld	a3,24(t1)
   1104c:	b355                	j	10df0 <_malloc_r+0x188>
   1104e:	6b88                	ld	a0,16(a5)
   11050:	00176893          	ori	a7,a4,1
   11054:	0117b423          	sd	a7,8(a5)
   11058:	ed14                	sd	a3,24(a0)
   1105a:	ea88                	sd	a0,16(a3)
   1105c:	973e                	add	a4,a4,a5
   1105e:	02e83423          	sd	a4,40(a6)
   11062:	02e83023          	sd	a4,32(a6)
   11066:	0015e693          	ori	a3,a1,1
   1106a:	963e                	add	a2,a2,a5
   1106c:	01c73c23          	sd	t3,24(a4)
   11070:	01c73823          	sd	t3,16(a4)
   11074:	e714                	sd	a3,8(a4)
   11076:	8522                	mv	a0,s0
   11078:	e20c                	sd	a1,0(a2)
   1107a:	e43e                	sd	a5,8(sp)
   1107c:	264000ef          	jal	112e0 <__malloc_unlock>
   11080:	67a2                	ld	a5,8(sp)
   11082:	01078513          	addi	a0,a5,16
   11086:	b981                	j	10cd6 <_malloc_r+0x6e>
   11088:	00375893          	srli	a7,a4,0x3
   1108c:	00189693          	slli	a3,a7,0x1
   11090:	2689                	addiw	a3,a3,2
   11092:	068e                	slli	a3,a3,0x3
   11094:	2881                	sext.w	a7,a7
   11096:	bef5                	j	10c92 <_malloc_r+0x2a>
   11098:	933e                	add	t1,t1,a5
   1109a:	00833703          	ld	a4,8(t1)
   1109e:	8522                	mv	a0,s0
   110a0:	e43e                	sd	a5,8(sp)
   110a2:	00176713          	ori	a4,a4,1
   110a6:	00e33423          	sd	a4,8(t1)
   110aa:	236000ef          	jal	112e0 <__malloc_unlock>
   110ae:	67a2                	ld	a5,8(sp)
   110b0:	01078513          	addi	a0,a5,16
   110b4:	b10d                	j	10cd6 <_malloc_r+0x6e>
   110b6:	00176613          	ori	a2,a4,1
   110ba:	e790                	sd	a2,8(a5)
   110bc:	973e                	add	a4,a4,a5
   110be:	02e83423          	sd	a4,40(a6)
   110c2:	02e83023          	sd	a4,32(a6)
   110c6:	0016e613          	ori	a2,a3,1
   110ca:	933e                	add	t1,t1,a5
   110cc:	01c73c23          	sd	t3,24(a4)
   110d0:	01c73823          	sd	t3,16(a4)
   110d4:	e710                	sd	a2,8(a4)
   110d6:	8522                	mv	a0,s0
   110d8:	00d33023          	sd	a3,0(t1)
   110dc:	e43e                	sd	a5,8(sp)
   110de:	202000ef          	jal	112e0 <__malloc_unlock>
   110e2:	67a2                	ld	a5,8(sp)
   110e4:	01078513          	addi	a0,a5,16
   110e8:	b6fd                	j	10cd6 <_malloc_r+0x6e>
   110ea:	00635693          	srli	a3,t1,0x6
   110ee:	00169513          	slli	a0,a3,0x1
   110f2:	0725051b          	addiw	a0,a0,114
   110f6:	050e                	slli	a0,a0,0x3
   110f8:	0386861b          	addiw	a2,a3,56
   110fc:	bde5                	j	10ff4 <_malloc_r+0x38c>
   110fe:	11078063          	beq	a5,a6,111fe <_malloc_r+0x596>
   11102:	01083783          	ld	a5,16(a6)
   11106:	6794                	ld	a3,8(a5)
   11108:	9af1                	andi	a3,a3,-4
   1110a:	40e68633          	sub	a2,a3,a4
   1110e:	00e6e663          	bltu	a3,a4,1111a <_malloc_r+0x4b2>
   11112:	02062693          	slti	a3,a2,32
   11116:	e60684e3          	beqz	a3,10f7e <_malloc_r+0x316>
   1111a:	8522                	mv	a0,s0
   1111c:	1c4000ef          	jal	112e0 <__malloc_unlock>
   11120:	be55                	j	10cd4 <_malloc_r+0x6c>
   11122:	05c7889b          	addiw	a7,a5,92
   11126:	0018951b          	slliw	a0,a7,0x1
   1112a:	05b78e1b          	addiw	t3,a5,91
   1112e:	050e                	slli	a0,a0,0x3
   11130:	b6f5                	j	10d1c <_malloc_r+0xb4>
   11132:	010f3783          	ld	a5,16(t5)
   11136:	38fd                	addiw	a7,a7,-1
   11138:	1be79063          	bne	a5,t5,112d8 <_malloc_r+0x670>
   1113c:	0038f793          	andi	a5,a7,3
   11140:	1f41                	addi	t5,t5,-16
   11142:	fbe5                	bnez	a5,11132 <_malloc_r+0x4ca>
   11144:	00883683          	ld	a3,8(a6)
   11148:	fff54793          	not	a5,a0
   1114c:	8ff5                	and	a5,a5,a3
   1114e:	00f83423          	sd	a5,8(a6)
   11152:	0506                	slli	a0,a0,0x1
   11154:	fff50693          	addi	a3,a0,-1
   11158:	ccf6ffe3          	bgeu	a3,a5,10e36 <_malloc_r+0x1ce>
   1115c:	00f576b3          	and	a3,a0,a5
   11160:	e691                	bnez	a3,1116c <_malloc_r+0x504>
   11162:	0506                	slli	a0,a0,0x1
   11164:	00f576b3          	and	a3,a0,a5
   11168:	2f91                	addiw	t6,t6,4
   1116a:	dee5                	beqz	a3,11162 <_malloc_r+0x4fa>
   1116c:	88fe                	mv	a7,t6
   1116e:	b1bd                	j	10ddc <_malloc_r+0x174>
   11170:	02058593          	addi	a1,a1,32
   11174:	b9dd                	j	10e6a <_malloc_r+0x202>
   11176:	4026561b          	sraiw	a2,a2,0x2
   1117a:	4305                	li	t1,1
   1117c:	00c31633          	sll	a2,t1,a2
   11180:	8dd1                	or	a1,a1,a2
   11182:	00b83423          	sd	a1,8(a6)
   11186:	b569                	j	11010 <_malloc_r+0x3a8>
   11188:	00b30633          	add	a2,t1,a1
   1118c:	40c005b3          	neg	a1,a2
   11190:	15d2                	slli	a1,a1,0x34
   11192:	91d1                	srli	a1,a1,0x34
   11194:	8522                	mv	a0,s0
   11196:	fc72                	sd	t3,56(sp)
   11198:	f842                	sd	a6,48(sp)
   1119a:	f43e                	sd	a5,40(sp)
   1119c:	f03a                	sd	a4,32(sp)
   1119e:	ec46                	sd	a7,24(sp)
   111a0:	e81a                	sd	t1,16(sp)
   111a2:	e432                	sd	a2,8(sp)
   111a4:	e0ae                	sd	a1,64(sp)
   111a6:	416000ef          	jal	115bc <_sbrk_r>
   111aa:	86aa                	mv	a3,a0
   111ac:	557d                	li	a0,-1
   111ae:	6342                	ld	t1,16(sp)
   111b0:	68e2                	ld	a7,24(sp)
   111b2:	7702                	ld	a4,32(sp)
   111b4:	77a2                	ld	a5,40(sp)
   111b6:	7842                	ld	a6,48(sp)
   111b8:	7e62                	ld	t3,56(sp)
   111ba:	0aa68f63          	beq	a3,a0,11278 <_malloc_r+0x610>
   111be:	6586                	ld	a1,64(sp)
   111c0:	0005851b          	sext.w	a0,a1
   111c4:	b3b9                	j	10f12 <_malloc_r+0x2aa>
   111c6:	05400613          	li	a2,84
   111ca:	06d66563          	bltu	a2,a3,11234 <_malloc_r+0x5cc>
   111ce:	00c35693          	srli	a3,t1,0xc
   111d2:	00169513          	slli	a0,a3,0x1
   111d6:	0de5051b          	addiw	a0,a0,222
   111da:	050e                	slli	a0,a0,0x3
   111dc:	06e6861b          	addiw	a2,a3,110
   111e0:	bd11                	j	10ff4 <_malloc_r+0x38c>
   111e2:	15400693          	li	a3,340
   111e6:	06f6e563          	bltu	a3,a5,11250 <_malloc_r+0x5e8>
   111ea:	00f75793          	srli	a5,a4,0xf
   111ee:	0787889b          	addiw	a7,a5,120
   111f2:	0018951b          	slliw	a0,a7,0x1
   111f6:	07778e1b          	addiw	t3,a5,119
   111fa:	050e                	slli	a0,a0,0x3
   111fc:	b605                	j	10d1c <_malloc_r+0xb4>
   111fe:	42018e13          	addi	t3,gp,1056 # 12c38 <__malloc_current_mallinfo>
   11202:	000e2503          	lw	a0,0(t3)
   11206:	9d2d                	addw	a0,a0,a1
   11208:	00ae2023          	sw	a0,0(t3)
   1120c:	b971                	j	10ea8 <_malloc_r+0x240>
   1120e:	03431f13          	slli	t5,t1,0x34
   11212:	c80f1be3          	bnez	t5,10ea8 <_malloc_r+0x240>
   11216:	01083303          	ld	t1,16(a6)
   1121a:	95c6                	add	a1,a1,a7
   1121c:	0015e693          	ori	a3,a1,1
   11220:	00d33423          	sd	a3,8(t1)
   11224:	bb25                	j	10f5c <_malloc_r+0x2f4>
   11226:	1861b823          	sd	t1,400(gp) # 129a8 <__malloc_sbrk_base>
   1122a:	b949                	j	10ebc <_malloc_r+0x254>
   1122c:	4785                	li	a5,1
   1122e:	00f33423          	sd	a5,8(t1)
   11232:	b5e5                	j	1111a <_malloc_r+0x4b2>
   11234:	15400613          	li	a2,340
   11238:	06d66663          	bltu	a2,a3,112a4 <_malloc_r+0x63c>
   1123c:	00f35693          	srli	a3,t1,0xf
   11240:	00169513          	slli	a0,a3,0x1
   11244:	0f05051b          	addiw	a0,a0,240
   11248:	050e                	slli	a0,a0,0x3
   1124a:	0776861b          	addiw	a2,a3,119
   1124e:	b35d                	j	10ff4 <_malloc_r+0x38c>
   11250:	55400693          	li	a3,1364
   11254:	06f6e663          	bltu	a3,a5,112c0 <_malloc_r+0x658>
   11258:	01275793          	srli	a5,a4,0x12
   1125c:	07d7889b          	addiw	a7,a5,125
   11260:	0018951b          	slliw	a0,a7,0x1
   11264:	07c78e1b          	addiw	t3,a5,124
   11268:	050e                	slli	a0,a0,0x3
   1126a:	bc4d                	j	10d1c <_malloc_r+0xb4>
   1126c:	1ec1                	addi	t4,t4,-16
   1126e:	01d606b3          	add	a3,a2,t4
   11272:	4501                	li	a0,0
   11274:	4581                	li	a1,0
   11276:	b971                	j	10f12 <_malloc_r+0x2aa>
   11278:	66a2                	ld	a3,8(sp)
   1127a:	4581                	li	a1,0
   1127c:	4501                	li	a0,0
   1127e:	b951                	j	10f12 <_malloc_r+0x2aa>
   11280:	01078593          	addi	a1,a5,16
   11284:	8522                	mv	a0,s0
   11286:	ec72                	sd	t3,24(sp)
   11288:	e842                	sd	a6,16(sp)
   1128a:	e43a                	sd	a4,8(sp)
   1128c:	fa2ff0ef          	jal	10a2e <_free_r>
   11290:	6842                	ld	a6,16(sp)
   11292:	6e62                	ld	t3,24(sp)
   11294:	6722                	ld	a4,8(sp)
   11296:	01083303          	ld	t1,16(a6)
   1129a:	000e2603          	lw	a2,0(t3)
   1129e:	00833683          	ld	a3,8(t1)
   112a2:	b96d                	j	10f5c <_malloc_r+0x2f4>
   112a4:	55400613          	li	a2,1364
   112a8:	02d66363          	bltu	a2,a3,112ce <_malloc_r+0x666>
   112ac:	01235693          	srli	a3,t1,0x12
   112b0:	00169513          	slli	a0,a3,0x1
   112b4:	0fa5051b          	addiw	a0,a0,250
   112b8:	050e                	slli	a0,a0,0x3
   112ba:	07c6861b          	addiw	a2,a3,124
   112be:	bb1d                	j	10ff4 <_malloc_r+0x38c>
   112c0:	7f000513          	li	a0,2032
   112c4:	07f00893          	li	a7,127
   112c8:	07e00e13          	li	t3,126
   112cc:	bc81                	j	10d1c <_malloc_r+0xb4>
   112ce:	7f000513          	li	a0,2032
   112d2:	07e00613          	li	a2,126
   112d6:	bb39                	j	10ff4 <_malloc_r+0x38c>
   112d8:	00883783          	ld	a5,8(a6)
   112dc:	bd9d                	j	11152 <_malloc_r+0x4ea>

00000000000112de <__malloc_lock>:
   112de:	8082                	ret

00000000000112e0 <__malloc_unlock>:
   112e0:	8082                	ret

00000000000112e2 <_fclose_r>:
   112e2:	1101                	addi	sp,sp,-32
   112e4:	ec06                	sd	ra,24(sp)
   112e6:	e04a                	sd	s2,0(sp)
   112e8:	cd89                	beqz	a1,11302 <_fclose_r+0x20>
   112ea:	e822                	sd	s0,16(sp)
   112ec:	e426                	sd	s1,8(sp)
   112ee:	842e                	mv	s0,a1
   112f0:	84aa                	mv	s1,a0
   112f2:	c119                	beqz	a0,112f8 <_fclose_r+0x16>
   112f4:	653c                	ld	a5,72(a0)
   112f6:	c7d9                	beqz	a5,11384 <_fclose_r+0xa2>
   112f8:	01041783          	lh	a5,16(s0)
   112fc:	eb89                	bnez	a5,1130e <_fclose_r+0x2c>
   112fe:	6442                	ld	s0,16(sp)
   11300:	64a2                	ld	s1,8(sp)
   11302:	60e2                	ld	ra,24(sp)
   11304:	4901                	li	s2,0
   11306:	854a                	mv	a0,s2
   11308:	6902                	ld	s2,0(sp)
   1130a:	6105                	addi	sp,sp,32
   1130c:	8082                	ret
   1130e:	85a2                	mv	a1,s0
   11310:	8526                	mv	a0,s1
   11312:	080000ef          	jal	11392 <__sflush_r>
   11316:	683c                	ld	a5,80(s0)
   11318:	892a                	mv	s2,a0
   1131a:	c791                	beqz	a5,11326 <_fclose_r+0x44>
   1131c:	780c                	ld	a1,48(s0)
   1131e:	8526                	mv	a0,s1
   11320:	9782                	jalr	a5
   11322:	04054663          	bltz	a0,1136e <_fclose_r+0x8c>
   11326:	01045783          	lhu	a5,16(s0)
   1132a:	0807f793          	andi	a5,a5,128
   1132e:	e7b1                	bnez	a5,1137a <_fclose_r+0x98>
   11330:	6c2c                	ld	a1,88(s0)
   11332:	c991                	beqz	a1,11346 <_fclose_r+0x64>
   11334:	07440793          	addi	a5,s0,116
   11338:	00f58563          	beq	a1,a5,11342 <_fclose_r+0x60>
   1133c:	8526                	mv	a0,s1
   1133e:	ef0ff0ef          	jal	10a2e <_free_r>
   11342:	04043c23          	sd	zero,88(s0)
   11346:	7c2c                	ld	a1,120(s0)
   11348:	c591                	beqz	a1,11354 <_fclose_r+0x72>
   1134a:	8526                	mv	a0,s1
   1134c:	ee2ff0ef          	jal	10a2e <_free_r>
   11350:	06043c23          	sd	zero,120(s0)
   11354:	93eff0ef          	jal	10492 <__sfp_lock_acquire>
   11358:	00041823          	sh	zero,16(s0)
   1135c:	938ff0ef          	jal	10494 <__sfp_lock_release>
   11360:	60e2                	ld	ra,24(sp)
   11362:	6442                	ld	s0,16(sp)
   11364:	64a2                	ld	s1,8(sp)
   11366:	854a                	mv	a0,s2
   11368:	6902                	ld	s2,0(sp)
   1136a:	6105                	addi	sp,sp,32
   1136c:	8082                	ret
   1136e:	01045783          	lhu	a5,16(s0)
   11372:	597d                	li	s2,-1
   11374:	0807f793          	andi	a5,a5,128
   11378:	dfc5                	beqz	a5,11330 <_fclose_r+0x4e>
   1137a:	6c0c                	ld	a1,24(s0)
   1137c:	8526                	mv	a0,s1
   1137e:	eb0ff0ef          	jal	10a2e <_free_r>
   11382:	b77d                	j	11330 <_fclose_r+0x4e>
   11384:	8f8ff0ef          	jal	1047c <__sinit>
   11388:	bf85                	j	112f8 <_fclose_r+0x16>

000000000001138a <fclose>:
   1138a:	85aa                	mv	a1,a0
   1138c:	1881b503          	ld	a0,392(gp) # 129a0 <_impure_ptr>
   11390:	bf89                	j	112e2 <_fclose_r>

0000000000011392 <__sflush_r>:
   11392:	01059703          	lh	a4,16(a1)
   11396:	7179                	addi	sp,sp,-48
   11398:	f022                	sd	s0,32(sp)
   1139a:	e44e                	sd	s3,8(sp)
   1139c:	f406                	sd	ra,40(sp)
   1139e:	00877793          	andi	a5,a4,8
   113a2:	842e                	mv	s0,a1
   113a4:	89aa                	mv	s3,a0
   113a6:	e7f1                	bnez	a5,11472 <__sflush_r+0xe0>
   113a8:	6785                	lui	a5,0x1
   113aa:	80078793          	addi	a5,a5,-2048 # 800 <exit-0xf920>
   113ae:	4594                	lw	a3,8(a1)
   113b0:	8fd9                	or	a5,a5,a4
   113b2:	00f59823          	sh	a5,16(a1)
   113b6:	10d05b63          	blez	a3,114cc <__sflush_r+0x13a>
   113ba:	04843803          	ld	a6,72(s0)
   113be:	0a080463          	beqz	a6,11466 <__sflush_r+0xd4>
   113c2:	ec26                	sd	s1,24(sp)
   113c4:	03371693          	slli	a3,a4,0x33
   113c8:	0009a483          	lw	s1,0(s3)
   113cc:	0009a023          	sw	zero,0(s3)
   113d0:	1006c563          	bltz	a3,114da <__sflush_r+0x148>
   113d4:	780c                	ld	a1,48(s0)
   113d6:	4601                	li	a2,0
   113d8:	4685                	li	a3,1
   113da:	854e                	mv	a0,s3
   113dc:	9802                	jalr	a6
   113de:	57fd                	li	a5,-1
   113e0:	862a                	mv	a2,a0
   113e2:	12f50363          	beq	a0,a5,11508 <__sflush_r+0x176>
   113e6:	01041783          	lh	a5,16(s0)
   113ea:	04843803          	ld	a6,72(s0)
   113ee:	8b91                	andi	a5,a5,4
   113f0:	c799                	beqz	a5,113fe <__sflush_r+0x6c>
   113f2:	4418                	lw	a4,8(s0)
   113f4:	6c3c                	ld	a5,88(s0)
   113f6:	8e19                	sub	a2,a2,a4
   113f8:	c399                	beqz	a5,113fe <__sflush_r+0x6c>
   113fa:	583c                	lw	a5,112(s0)
   113fc:	8e1d                	sub	a2,a2,a5
   113fe:	780c                	ld	a1,48(s0)
   11400:	4681                	li	a3,0
   11402:	854e                	mv	a0,s3
   11404:	9802                	jalr	a6
   11406:	577d                	li	a4,-1
   11408:	01041783          	lh	a5,16(s0)
   1140c:	0ce51963          	bne	a0,a4,114de <__sflush_r+0x14c>
   11410:	0009a683          	lw	a3,0(s3)
   11414:	4775                	li	a4,29
   11416:	10d76463          	bltu	a4,a3,1151e <__sflush_r+0x18c>
   1141a:	20400737          	lui	a4,0x20400
   1141e:	0705                	addi	a4,a4,1 # 20400001 <__BSS_END__+0x203ed089>
   11420:	00d75733          	srl	a4,a4,a3
   11424:	8b05                	andi	a4,a4,1
   11426:	cf65                	beqz	a4,1151e <__sflush_r+0x18c>
   11428:	6c14                	ld	a3,24(s0)
   1142a:	777d                	lui	a4,0xfffff
   1142c:	7ff70713          	addi	a4,a4,2047 # fffffffffffff7ff <__BSS_END__+0xfffffffffffec887>
   11430:	8f7d                	and	a4,a4,a5
   11432:	00e41823          	sh	a4,16(s0)
   11436:	00042423          	sw	zero,8(s0)
   1143a:	e014                	sd	a3,0(s0)
   1143c:	03379713          	slli	a4,a5,0x33
   11440:	00075563          	bgez	a4,1144a <__sflush_r+0xb8>
   11444:	0009a783          	lw	a5,0(s3)
   11448:	cbcd                	beqz	a5,114fa <__sflush_r+0x168>
   1144a:	6c2c                	ld	a1,88(s0)
   1144c:	0099a023          	sw	s1,0(s3)
   11450:	c9d5                	beqz	a1,11504 <__sflush_r+0x172>
   11452:	07440793          	addi	a5,s0,116
   11456:	00f58563          	beq	a1,a5,11460 <__sflush_r+0xce>
   1145a:	854e                	mv	a0,s3
   1145c:	dd2ff0ef          	jal	10a2e <_free_r>
   11460:	64e2                	ld	s1,24(sp)
   11462:	04043c23          	sd	zero,88(s0)
   11466:	70a2                	ld	ra,40(sp)
   11468:	7402                	ld	s0,32(sp)
   1146a:	69a2                	ld	s3,8(sp)
   1146c:	4501                	li	a0,0
   1146e:	6145                	addi	sp,sp,48
   11470:	8082                	ret
   11472:	e84a                	sd	s2,16(sp)
   11474:	0185b903          	ld	s2,24(a1)
   11478:	04090f63          	beqz	s2,114d6 <__sflush_r+0x144>
   1147c:	ec26                	sd	s1,24(sp)
   1147e:	6184                	ld	s1,0(a1)
   11480:	8b0d                	andi	a4,a4,3
   11482:	0125b023          	sd	s2,0(a1)
   11486:	412484bb          	subw	s1,s1,s2
   1148a:	4781                	li	a5,0
   1148c:	e311                	bnez	a4,11490 <__sflush_r+0xfe>
   1148e:	519c                	lw	a5,32(a1)
   11490:	c45c                	sw	a5,12(s0)
   11492:	00904663          	bgtz	s1,1149e <__sflush_r+0x10c>
   11496:	a83d                	j	114d4 <__sflush_r+0x142>
   11498:	992a                	add	s2,s2,a0
   1149a:	02905d63          	blez	s1,114d4 <__sflush_r+0x142>
   1149e:	603c                	ld	a5,64(s0)
   114a0:	780c                	ld	a1,48(s0)
   114a2:	86a6                	mv	a3,s1
   114a4:	864a                	mv	a2,s2
   114a6:	854e                	mv	a0,s3
   114a8:	9782                	jalr	a5
   114aa:	9c89                	subw	s1,s1,a0
   114ac:	fea046e3          	bgtz	a0,11498 <__sflush_r+0x106>
   114b0:	01045783          	lhu	a5,16(s0)
   114b4:	6942                	ld	s2,16(sp)
   114b6:	0407e793          	ori	a5,a5,64
   114ba:	70a2                	ld	ra,40(sp)
   114bc:	00f41823          	sh	a5,16(s0)
   114c0:	7402                	ld	s0,32(sp)
   114c2:	64e2                	ld	s1,24(sp)
   114c4:	69a2                	ld	s3,8(sp)
   114c6:	557d                	li	a0,-1
   114c8:	6145                	addi	sp,sp,48
   114ca:	8082                	ret
   114cc:	59b4                	lw	a3,112(a1)
   114ce:	eed046e3          	bgtz	a3,113ba <__sflush_r+0x28>
   114d2:	bf51                	j	11466 <__sflush_r+0xd4>
   114d4:	64e2                	ld	s1,24(sp)
   114d6:	6942                	ld	s2,16(sp)
   114d8:	b779                	j	11466 <__sflush_r+0xd4>
   114da:	6850                	ld	a2,144(s0)
   114dc:	bf09                	j	113ee <__sflush_r+0x5c>
   114de:	6c14                	ld	a3,24(s0)
   114e0:	777d                	lui	a4,0xfffff
   114e2:	7ff70713          	addi	a4,a4,2047 # fffffffffffff7ff <__BSS_END__+0xfffffffffffec887>
   114e6:	8f7d                	and	a4,a4,a5
   114e8:	00e41823          	sh	a4,16(s0)
   114ec:	00042423          	sw	zero,8(s0)
   114f0:	e014                	sd	a3,0(s0)
   114f2:	03379713          	slli	a4,a5,0x33
   114f6:	f4075ae3          	bgez	a4,1144a <__sflush_r+0xb8>
   114fa:	6c2c                	ld	a1,88(s0)
   114fc:	e848                	sd	a0,144(s0)
   114fe:	0099a023          	sw	s1,0(s3)
   11502:	f9a1                	bnez	a1,11452 <__sflush_r+0xc0>
   11504:	64e2                	ld	s1,24(sp)
   11506:	b785                	j	11466 <__sflush_r+0xd4>
   11508:	0009a783          	lw	a5,0(s3)
   1150c:	ec078de3          	beqz	a5,113e6 <__sflush_r+0x54>
   11510:	fe378713          	addi	a4,a5,-29
   11514:	cb01                	beqz	a4,11524 <__sflush_r+0x192>
   11516:	17a9                	addi	a5,a5,-22
   11518:	c791                	beqz	a5,11524 <__sflush_r+0x192>
   1151a:	01045783          	lhu	a5,16(s0)
   1151e:	0407e793          	ori	a5,a5,64
   11522:	bf61                	j	114ba <__sflush_r+0x128>
   11524:	0099a023          	sw	s1,0(s3)
   11528:	64e2                	ld	s1,24(sp)
   1152a:	bf35                	j	11466 <__sflush_r+0xd4>

000000000001152c <_fflush_r>:
   1152c:	87aa                	mv	a5,a0
   1152e:	c119                	beqz	a0,11534 <_fflush_r+0x8>
   11530:	6538                	ld	a4,72(a0)
   11532:	cb01                	beqz	a4,11542 <_fflush_r+0x16>
   11534:	01059703          	lh	a4,16(a1)
   11538:	e319                	bnez	a4,1153e <_fflush_r+0x12>
   1153a:	4501                	li	a0,0
   1153c:	8082                	ret
   1153e:	853e                	mv	a0,a5
   11540:	bd89                	j	11392 <__sflush_r>
   11542:	1101                	addi	sp,sp,-32
   11544:	e42e                	sd	a1,8(sp)
   11546:	ec06                	sd	ra,24(sp)
   11548:	e02a                	sd	a0,0(sp)
   1154a:	f33fe0ef          	jal	1047c <__sinit>
   1154e:	65a2                	ld	a1,8(sp)
   11550:	6782                	ld	a5,0(sp)
   11552:	01059703          	lh	a4,16(a1)
   11556:	c709                	beqz	a4,11560 <_fflush_r+0x34>
   11558:	60e2                	ld	ra,24(sp)
   1155a:	853e                	mv	a0,a5
   1155c:	6105                	addi	sp,sp,32
   1155e:	bd15                	j	11392 <__sflush_r>
   11560:	60e2                	ld	ra,24(sp)
   11562:	4501                	li	a0,0
   11564:	6105                	addi	sp,sp,32
   11566:	8082                	ret

0000000000011568 <fflush>:
   11568:	cd05                	beqz	a0,115a0 <fflush+0x38>
   1156a:	85aa                	mv	a1,a0
   1156c:	1881b503          	ld	a0,392(gp) # 129a0 <_impure_ptr>
   11570:	c119                	beqz	a0,11576 <fflush+0xe>
   11572:	653c                	ld	a5,72(a0)
   11574:	c799                	beqz	a5,11582 <fflush+0x1a>
   11576:	01059783          	lh	a5,16(a1)
   1157a:	e399                	bnez	a5,11580 <fflush+0x18>
   1157c:	4501                	li	a0,0
   1157e:	8082                	ret
   11580:	bd09                	j	11392 <__sflush_r>
   11582:	1101                	addi	sp,sp,-32
   11584:	e42e                	sd	a1,8(sp)
   11586:	e02a                	sd	a0,0(sp)
   11588:	ec06                	sd	ra,24(sp)
   1158a:	ef3fe0ef          	jal	1047c <__sinit>
   1158e:	65a2                	ld	a1,8(sp)
   11590:	6502                	ld	a0,0(sp)
   11592:	01059783          	lh	a5,16(a1)
   11596:	e385                	bnez	a5,115b6 <fflush+0x4e>
   11598:	60e2                	ld	ra,24(sp)
   1159a:	4501                	li	a0,0
   1159c:	6105                	addi	sp,sp,32
   1159e:	8082                	ret
   115a0:	6649                	lui	a2,0x12
   115a2:	65c5                	lui	a1,0x11
   115a4:	6549                	lui	a0,0x12
   115a6:	01860613          	addi	a2,a2,24 # 12018 <__sglue>
   115aa:	52c58593          	addi	a1,a1,1324 # 1152c <_fflush_r>
   115ae:	03050513          	addi	a0,a0,48 # 12030 <_impure_data>
   115b2:	f05fe06f          	j	104b6 <_fwalk_sglue>
   115b6:	60e2                	ld	ra,24(sp)
   115b8:	6105                	addi	sp,sp,32
   115ba:	bbe1                	j	11392 <__sflush_r>

00000000000115bc <_sbrk_r>:
   115bc:	1101                	addi	sp,sp,-32
   115be:	e822                	sd	s0,16(sp)
   115c0:	e426                	sd	s1,8(sp)
   115c2:	84aa                	mv	s1,a0
   115c4:	852e                	mv	a0,a1
   115c6:	ec06                	sd	ra,24(sp)
   115c8:	1a01a423          	sw	zero,424(gp) # 129c0 <errno>
   115cc:	168000ef          	jal	11734 <_sbrk>
   115d0:	57fd                	li	a5,-1
   115d2:	00f50763          	beq	a0,a5,115e0 <_sbrk_r+0x24>
   115d6:	60e2                	ld	ra,24(sp)
   115d8:	6442                	ld	s0,16(sp)
   115da:	64a2                	ld	s1,8(sp)
   115dc:	6105                	addi	sp,sp,32
   115de:	8082                	ret
   115e0:	1a81a783          	lw	a5,424(gp) # 129c0 <errno>
   115e4:	dbed                	beqz	a5,115d6 <_sbrk_r+0x1a>
   115e6:	60e2                	ld	ra,24(sp)
   115e8:	6442                	ld	s0,16(sp)
   115ea:	c09c                	sw	a5,0(s1)
   115ec:	64a2                	ld	s1,8(sp)
   115ee:	6105                	addi	sp,sp,32
   115f0:	8082                	ret

00000000000115f2 <__libc_fini_array>:
   115f2:	1101                	addi	sp,sp,-32
   115f4:	e822                	sd	s0,16(sp)
   115f6:	67c9                	lui	a5,0x12
   115f8:	6449                	lui	s0,0x12
   115fa:	01878793          	addi	a5,a5,24 # 12018 <__sglue>
   115fe:	01040413          	addi	s0,s0,16 # 12010 <__do_global_dtors_aux_fini_array_entry>
   11602:	8f81                	sub	a5,a5,s0
   11604:	e426                	sd	s1,8(sp)
   11606:	ec06                	sd	ra,24(sp)
   11608:	4037d493          	srai	s1,a5,0x3
   1160c:	c881                	beqz	s1,1161c <__libc_fini_array+0x2a>
   1160e:	1461                	addi	s0,s0,-8
   11610:	943e                	add	s0,s0,a5
   11612:	601c                	ld	a5,0(s0)
   11614:	14fd                	addi	s1,s1,-1
   11616:	1461                	addi	s0,s0,-8
   11618:	9782                	jalr	a5
   1161a:	fce5                	bnez	s1,11612 <__libc_fini_array+0x20>
   1161c:	60e2                	ld	ra,24(sp)
   1161e:	6442                	ld	s0,16(sp)
   11620:	64a2                	ld	s1,8(sp)
   11622:	6105                	addi	sp,sp,32
   11624:	8082                	ret

0000000000011626 <__register_exitproc>:
   11626:	1b01b783          	ld	a5,432(gp) # 129c8 <__atexit>
   1162a:	c3a9                	beqz	a5,1166c <__register_exitproc+0x46>
   1162c:	4798                	lw	a4,8(a5)
   1162e:	487d                	li	a6,31
   11630:	06e84063          	blt	a6,a4,11690 <__register_exitproc+0x6a>
   11634:	c505                	beqz	a0,1165c <__register_exitproc+0x36>
   11636:	00371813          	slli	a6,a4,0x3
   1163a:	983e                	add	a6,a6,a5
   1163c:	10c83823          	sd	a2,272(a6)
   11640:	3107a883          	lw	a7,784(a5)
   11644:	4605                	li	a2,1
   11646:	00e6163b          	sllw	a2,a2,a4
   1164a:	00c8e8b3          	or	a7,a7,a2
   1164e:	3117a823          	sw	a7,784(a5)
   11652:	20d83823          	sd	a3,528(a6)
   11656:	4689                	li	a3,2
   11658:	00d50f63          	beq	a0,a3,11676 <__register_exitproc+0x50>
   1165c:	0017069b          	addiw	a3,a4,1
   11660:	070e                	slli	a4,a4,0x3
   11662:	c794                	sw	a3,8(a5)
   11664:	97ba                	add	a5,a5,a4
   11666:	eb8c                	sd	a1,16(a5)
   11668:	4501                	li	a0,0
   1166a:	8082                	ret
   1166c:	44818793          	addi	a5,gp,1096 # 12c60 <__atexit0>
   11670:	1af1b823          	sd	a5,432(gp) # 129c8 <__atexit>
   11674:	bf65                	j	1162c <__register_exitproc+0x6>
   11676:	3147a683          	lw	a3,788(a5)
   1167a:	4501                	li	a0,0
   1167c:	8e55                	or	a2,a2,a3
   1167e:	0017069b          	addiw	a3,a4,1
   11682:	070e                	slli	a4,a4,0x3
   11684:	30c7aa23          	sw	a2,788(a5)
   11688:	c794                	sw	a3,8(a5)
   1168a:	97ba                	add	a5,a5,a4
   1168c:	eb8c                	sd	a1,16(a5)
   1168e:	8082                	ret
   11690:	557d                	li	a0,-1
   11692:	8082                	ret

0000000000011694 <_close>:
   11694:	03900893          	li	a7,57
   11698:	00000073          	ecall
   1169c:	00054463          	bltz	a0,116a4 <_close+0x10>
   116a0:	2501                	sext.w	a0,a0
   116a2:	8082                	ret
   116a4:	1101                	addi	sp,sp,-32
   116a6:	ec06                	sd	ra,24(sp)
   116a8:	e42a                	sd	a0,8(sp)
   116aa:	108000ef          	jal	117b2 <__errno>
   116ae:	67a2                	ld	a5,8(sp)
   116b0:	60e2                	ld	ra,24(sp)
   116b2:	40f007bb          	negw	a5,a5
   116b6:	c11c                	sw	a5,0(a0)
   116b8:	557d                	li	a0,-1
   116ba:	6105                	addi	sp,sp,32
   116bc:	8082                	ret

00000000000116be <_exit>:
   116be:	05d00893          	li	a7,93
   116c2:	00000073          	ecall
   116c6:	00054363          	bltz	a0,116cc <_exit+0xe>
   116ca:	a001                	j	116ca <_exit+0xc>
   116cc:	1101                	addi	sp,sp,-32
   116ce:	ec06                	sd	ra,24(sp)
   116d0:	e42a                	sd	a0,8(sp)
   116d2:	0e0000ef          	jal	117b2 <__errno>
   116d6:	67a2                	ld	a5,8(sp)
   116d8:	40f007bb          	negw	a5,a5
   116dc:	c11c                	sw	a5,0(a0)
   116de:	a001                	j	116de <_exit+0x20>

00000000000116e0 <_lseek>:
   116e0:	03e00893          	li	a7,62
   116e4:	00000073          	ecall
   116e8:	00054363          	bltz	a0,116ee <_lseek+0xe>
   116ec:	8082                	ret
   116ee:	1101                	addi	sp,sp,-32
   116f0:	ec06                	sd	ra,24(sp)
   116f2:	e42a                	sd	a0,8(sp)
   116f4:	0be000ef          	jal	117b2 <__errno>
   116f8:	67a2                	ld	a5,8(sp)
   116fa:	60e2                	ld	ra,24(sp)
   116fc:	40f007bb          	negw	a5,a5
   11700:	c11c                	sw	a5,0(a0)
   11702:	57fd                	li	a5,-1
   11704:	853e                	mv	a0,a5
   11706:	6105                	addi	sp,sp,32
   11708:	8082                	ret

000000000001170a <_read>:
   1170a:	03f00893          	li	a7,63
   1170e:	00000073          	ecall
   11712:	00054363          	bltz	a0,11718 <_read+0xe>
   11716:	8082                	ret
   11718:	1101                	addi	sp,sp,-32
   1171a:	ec06                	sd	ra,24(sp)
   1171c:	e42a                	sd	a0,8(sp)
   1171e:	094000ef          	jal	117b2 <__errno>
   11722:	67a2                	ld	a5,8(sp)
   11724:	60e2                	ld	ra,24(sp)
   11726:	40f007bb          	negw	a5,a5
   1172a:	c11c                	sw	a5,0(a0)
   1172c:	57fd                	li	a5,-1
   1172e:	853e                	mv	a0,a5
   11730:	6105                	addi	sp,sp,32
   11732:	8082                	ret

0000000000011734 <_sbrk>:
   11734:	1d01b783          	ld	a5,464(gp) # 129e8 <heap_end.0>
   11738:	1141                	addi	sp,sp,-16
   1173a:	e406                	sd	ra,8(sp)
   1173c:	872a                	mv	a4,a0
   1173e:	ef81                	bnez	a5,11756 <_sbrk+0x22>
   11740:	0d600893          	li	a7,214
   11744:	4501                	li	a0,0
   11746:	00000073          	ecall
   1174a:	57fd                	li	a5,-1
   1174c:	02f50663          	beq	a0,a5,11778 <_sbrk+0x44>
   11750:	87aa                	mv	a5,a0
   11752:	1ca1b823          	sd	a0,464(gp) # 129e8 <heap_end.0>
   11756:	00f70533          	add	a0,a4,a5
   1175a:	0d600893          	li	a7,214
   1175e:	00000073          	ecall
   11762:	1d01b783          	ld	a5,464(gp) # 129e8 <heap_end.0>
   11766:	973e                	add	a4,a4,a5
   11768:	00e51863          	bne	a0,a4,11778 <_sbrk+0x44>
   1176c:	60a2                	ld	ra,8(sp)
   1176e:	1ca1b823          	sd	a0,464(gp) # 129e8 <heap_end.0>
   11772:	853e                	mv	a0,a5
   11774:	0141                	addi	sp,sp,16
   11776:	8082                	ret
   11778:	03a000ef          	jal	117b2 <__errno>
   1177c:	60a2                	ld	ra,8(sp)
   1177e:	47b1                	li	a5,12
   11780:	c11c                	sw	a5,0(a0)
   11782:	557d                	li	a0,-1
   11784:	0141                	addi	sp,sp,16
   11786:	8082                	ret

0000000000011788 <_write>:
   11788:	04000893          	li	a7,64
   1178c:	00000073          	ecall
   11790:	00054363          	bltz	a0,11796 <_write+0xe>
   11794:	8082                	ret
   11796:	1101                	addi	sp,sp,-32
   11798:	ec06                	sd	ra,24(sp)
   1179a:	e42a                	sd	a0,8(sp)
   1179c:	016000ef          	jal	117b2 <__errno>
   117a0:	67a2                	ld	a5,8(sp)
   117a2:	60e2                	ld	ra,24(sp)
   117a4:	40f007bb          	negw	a5,a5
   117a8:	c11c                	sw	a5,0(a0)
   117aa:	57fd                	li	a5,-1
   117ac:	853e                	mv	a0,a5
   117ae:	6105                	addi	sp,sp,32
   117b0:	8082                	ret

00000000000117b2 <__errno>:
   117b2:	1881b503          	ld	a0,392(gp) # 129a0 <_impure_ptr>
   117b6:	8082                	ret
