
main.elf:     file format elf64-littleriscv


Disassembly of section .text:

0000000000010120 <exit>:
   10120:	1141                	addi	sp,sp,-16
   10122:	4581                	li	a1,0
   10124:	e022                	sd	s0,0(sp)
   10126:	e406                	sd	ra,8(sp)
   10128:	842a                	mv	s0,a0
   1012a:	039000ef          	jal	10962 <__call_exitprocs>
   1012e:	2381b783          	ld	a5,568(gp) # 1b648 <__stdio_exit_handler>
   10132:	c391                	beqz	a5,10136 <exit+0x16>
   10134:	9782                	jalr	a5
   10136:	8522                	mv	a0,s0
   10138:	4c9070ef          	jal	17e00 <_exit>

000000000001013c <main>:
   1013c:	cd027057          	vsetivli	zero,4,e32,m1,ta,ma
   10140:	5208a0d7          	vid.v	v1
   10144:	67e5                	lui	a5,0x19
   10146:	9610b0d7          	vsll.vi	v1,v1,1
   1014a:	7131                	addi	sp,sp,-192
   1014c:	3f078793          	addi	a5,a5,1008 # 193f0 <__clzdi2+0x1f6>
   10150:	021432d7          	vadd.vi	v5,v1,8
   10154:	f922                	sd	s0,176(sp)
   10156:	f526                	sd	s1,168(sp)
   10158:	fd06                	sd	ra,184(sp)
   1015a:	0207e107          	vle32.v	v2,(a5)
   1015e:	089c                	addi	a5,sp,80
   10160:	0207e0a7          	vse32.v	v1,(a5)
   10164:	02123257          	vadd.vi	v4,v1,4
   10168:	081c                	addi	a5,sp,16
   1016a:	0207e2a7          	vse32.v	v5,(a5)
   1016e:	109c                	addi	a5,sp,96
   10170:	0207e2a7          	vse32.v	v5,(a5)
   10174:	021631d7          	vadd.vi	v3,v1,12
   10178:	181c                	addi	a5,sp,48
   1017a:	0207e227          	vse32.v	v4,(a5)
   1017e:	011c                	addi	a5,sp,128
   10180:	0207e227          	vse32.v	v4,(a5)
   10184:	009c                	addi	a5,sp,64
   10186:	0207e1a7          	vse32.v	v3,(a5)
   1018a:	091c                	addi	a5,sp,144
   1018c:	0207e1a7          	vse32.v	v3,(a5)
   10190:	1018                	addi	a4,sp,32
   10192:	189c                	addi	a5,sp,112
   10194:	020160a7          	vse32.v	v1,(sp)
   10198:	02076127          	vse32.v	v2,(a4)
   1019c:	0207e127          	vse32.v	v2,(a5)
   101a0:	64e5                	lui	s1,0x19
   101a2:	840a                	mv	s0,sp
   101a4:	23048493          	addi	s1,s1,560 # 19230 <__clzdi2+0x36>
   101a8:	400c                	lw	a1,0(s0)
   101aa:	8526                	mv	a0,s1
   101ac:	0411                	addi	s0,s0,4
   101ae:	436000ef          	jal	105e4 <printf>
   101b2:	111c                	addi	a5,sp,160
   101b4:	fef41ae3          	bne	s0,a5,101a8 <main+0x6c>
   101b8:	70ea                	ld	ra,184(sp)
   101ba:	744a                	ld	s0,176(sp)
   101bc:	74aa                	ld	s1,168(sp)
   101be:	4501                	li	a0,0
   101c0:	6129                	addi	sp,sp,192
   101c2:	8082                	ret

00000000000101c4 <register_fini>:
   101c4:	00000793          	li	a5,0
   101c8:	c791                	beqz	a5,101d4 <register_fini+0x10>
   101ca:	6551                	lui	a0,0x14
   101cc:	cec50513          	addi	a0,a0,-788 # 13cec <__libc_fini_array>
   101d0:	0650006f          	j	10a34 <atexit>
   101d4:	8082                	ret

00000000000101d6 <_start>:
   101d6:	0000b197          	auipc	gp,0xb
   101da:	23a18193          	addi	gp,gp,570 # 1b410 <__global_locale>
   101de:	0000b517          	auipc	a0,0xb
   101e2:	46a50513          	addi	a0,a0,1130 # 1b648 <__stdio_exit_handler>
   101e6:	0000c617          	auipc	a2,0xc
   101ea:	a2a60613          	addi	a2,a2,-1494 # 1bc10 <__BSS_END__>
   101ee:	8e09                	sub	a2,a2,a0
   101f0:	4581                	li	a1,0
   101f2:	6c6000ef          	jal	108b8 <memset>
   101f6:	00001517          	auipc	a0,0x1
   101fa:	83e50513          	addi	a0,a0,-1986 # 10a34 <atexit>
   101fe:	c519                	beqz	a0,1020c <_start+0x36>
   10200:	00004517          	auipc	a0,0x4
   10204:	aec50513          	addi	a0,a0,-1300 # 13cec <__libc_fini_array>
   10208:	02d000ef          	jal	10a34 <atexit>
   1020c:	64a000ef          	jal	10856 <__libc_init_array>
   10210:	4502                	lw	a0,0(sp)
   10212:	002c                	addi	a1,sp,8
   10214:	4601                	li	a2,0
   10216:	f27ff0ef          	jal	1013c <main>
   1021a:	b719                	j	10120 <exit>

000000000001021c <__do_global_dtors_aux>:
   1021c:	1141                	addi	sp,sp,-16
   1021e:	e022                	sd	s0,0(sp)
   10220:	2781c783          	lbu	a5,632(gp) # 1b688 <completed.1>
   10224:	e406                	sd	ra,8(sp)
   10226:	ef91                	bnez	a5,10242 <__do_global_dtors_aux+0x26>
   10228:	00000793          	li	a5,0
   1022c:	cb81                	beqz	a5,1023c <__do_global_dtors_aux+0x20>
   1022e:	6569                	lui	a0,0x1a
   10230:	a7050513          	addi	a0,a0,-1424 # 19a70 <__EH_FRAME_BEGIN__>
   10234:	00000097          	auipc	ra,0x0
   10238:	000000e7          	jalr	zero # 0 <exit-0x10120>
   1023c:	4785                	li	a5,1
   1023e:	26f18c23          	sb	a5,632(gp) # 1b688 <completed.1>
   10242:	60a2                	ld	ra,8(sp)
   10244:	6402                	ld	s0,0(sp)
   10246:	0141                	addi	sp,sp,16
   10248:	8082                	ret

000000000001024a <frame_dummy>:
   1024a:	00000793          	li	a5,0
   1024e:	cb91                	beqz	a5,10262 <frame_dummy+0x18>
   10250:	6569                	lui	a0,0x1a
   10252:	28018593          	addi	a1,gp,640 # 1b690 <object.0>
   10256:	a7050513          	addi	a0,a0,-1424 # 19a70 <__EH_FRAME_BEGIN__>
   1025a:	00000317          	auipc	t1,0x0
   1025e:	00000067          	jr	zero # 0 <exit-0x10120>
   10262:	8082                	ret

0000000000010264 <foo>:
   10264:	06d05163          	blez	a3,102c6 <foo+0x62>
   10268:	ffc50713          	addi	a4,a0,-4
   1026c:	40b70333          	sub	t1,a4,a1
   10270:	8f11                	sub	a4,a4,a2
   10272:	88aa                	mv	a7,a0
   10274:	87ae                	mv	a5,a1
   10276:	8832                	mv	a6,a2
   10278:	04e36863          	bltu	t1,a4,102c8 <foo+0x64>
   1027c:	c2202373          	csrr	t1,vlenb
   10280:	1361                	addi	t1,t1,-8 # 10252 <frame_dummy+0x8>
   10282:	02e37563          	bgeu	t1,a4,102ac <foo+0x48>
   10286:	0d06f7d7          	vsetvli	a5,a3,e32,m1,ta,ma
   1028a:	0205e107          	vle32.v	v2,(a1)
   1028e:	02066087          	vle32.v	v1,(a2)
   10292:	8e9d                	sub	a3,a3,a5
   10294:	20b7c5b3          	sh2add	a1,a5,a1
   10298:	20c7c633          	sh2add	a2,a5,a2
   1029c:	021100d7          	vadd.vv	v1,v1,v2
   102a0:	020560a7          	vse32.v	v1,(a0)
   102a4:	20a7c533          	sh2add	a0,a5,a0
   102a8:	fef9                	bnez	a3,10286 <foo+0x22>
   102aa:	8082                	ret
   102ac:	20b6c6b3          	sh2add	a3,a3,a1
   102b0:	4390                	lw	a2,0(a5)
   102b2:	00082703          	lw	a4,0(a6)
   102b6:	0791                	addi	a5,a5,4
   102b8:	0811                	addi	a6,a6,4
   102ba:	9f31                	addw	a4,a4,a2
   102bc:	00e8a023          	sw	a4,0(a7)
   102c0:	0891                	addi	a7,a7,4
   102c2:	fed797e3          	bne	a5,a3,102b0 <foo+0x4c>
   102c6:	8082                	ret
   102c8:	871a                	mv	a4,t1
   102ca:	bf4d                	j	1027c <foo+0x18>

00000000000102cc <__fp_lock>:
   102cc:	4501                	li	a0,0
   102ce:	8082                	ret

00000000000102d0 <stdio_exit_handler>:
   102d0:	666d                	lui	a2,0x1b
   102d2:	65cd                	lui	a1,0x13
   102d4:	656d                	lui	a0,0x1b
   102d6:	a9060613          	addi	a2,a2,-1392 # 1aa90 <__sglue>
   102da:	46658593          	addi	a1,a1,1126 # 13466 <_fclose_r>
   102de:	aa850513          	addi	a0,a0,-1368 # 1aaa8 <_impure_data>
   102e2:	aca1                	j	1053a <_fwalk_sglue>

00000000000102e4 <cleanup_stdio>:
   102e4:	650c                	ld	a1,8(a0)
   102e6:	1141                	addi	sp,sp,-16
   102e8:	e022                	sd	s0,0(sp)
   102ea:	e406                	sd	ra,8(sp)
   102ec:	2b018793          	addi	a5,gp,688 # 1b6c0 <__sf>
   102f0:	842a                	mv	s0,a0
   102f2:	00f58463          	beq	a1,a5,102fa <cleanup_stdio+0x16>
   102f6:	170030ef          	jal	13466 <_fclose_r>
   102fa:	680c                	ld	a1,16(s0)
   102fc:	36018793          	addi	a5,gp,864 # 1b770 <__sf+0xb0>
   10300:	00f58563          	beq	a1,a5,1030a <cleanup_stdio+0x26>
   10304:	8522                	mv	a0,s0
   10306:	160030ef          	jal	13466 <_fclose_r>
   1030a:	6c0c                	ld	a1,24(s0)
   1030c:	41018793          	addi	a5,gp,1040 # 1b820 <__sf+0x160>
   10310:	00f58863          	beq	a1,a5,10320 <cleanup_stdio+0x3c>
   10314:	8522                	mv	a0,s0
   10316:	6402                	ld	s0,0(sp)
   10318:	60a2                	ld	ra,8(sp)
   1031a:	0141                	addi	sp,sp,16
   1031c:	14a0306f          	j	13466 <_fclose_r>
   10320:	60a2                	ld	ra,8(sp)
   10322:	6402                	ld	s0,0(sp)
   10324:	0141                	addi	sp,sp,16
   10326:	8082                	ret

0000000000010328 <__fp_unlock>:
   10328:	4501                	li	a0,0
   1032a:	8082                	ret

000000000001032c <global_stdio_init.part.0>:
   1032c:	7179                	addi	sp,sp,-48
   1032e:	67c1                	lui	a5,0x10
   10330:	f022                	sd	s0,32(sp)
   10332:	2d078793          	addi	a5,a5,720 # 102d0 <stdio_exit_handler>
   10336:	2b018413          	addi	s0,gp,688 # 1b6c0 <__sf>
   1033a:	f406                	sd	ra,40(sp)
   1033c:	ec26                	sd	s1,24(sp)
   1033e:	e84a                	sd	s2,16(sp)
   10340:	e44e                	sd	s3,8(sp)
   10342:	e052                	sd	s4,0(sp)
   10344:	22f1bc23          	sd	a5,568(gp) # 1b648 <__stdio_exit_handler>
   10348:	4621                	li	a2,8
   1034a:	4791                	li	a5,4
   1034c:	4581                	li	a1,0
   1034e:	35418513          	addi	a0,gp,852 # 1b764 <__sf+0xa4>
   10352:	c81c                	sw	a5,16(s0)
   10354:	00043023          	sd	zero,0(s0)
   10358:	00043423          	sd	zero,8(s0)
   1035c:	0a042623          	sw	zero,172(s0)
   10360:	00043c23          	sd	zero,24(s0)
   10364:	02042023          	sw	zero,32(s0)
   10368:	02042423          	sw	zero,40(s0)
   1036c:	54c000ef          	jal	108b8 <memset>
   10370:	6a41                	lui	s4,0x10
   10372:	69c1                	lui	s3,0x10
   10374:	6941                	lui	s2,0x10
   10376:	64c1                	lui	s1,0x10
   10378:	67c1                	lui	a5,0x10
   1037a:	610a0a13          	addi	s4,s4,1552 # 10610 <__sread>
   1037e:	64c98993          	addi	s3,s3,1612 # 1064c <__swrite>
   10382:	69e90913          	addi	s2,s2,1694 # 1069e <__sseek>
   10386:	6e048493          	addi	s1,s1,1760 # 106e0 <__sclose>
   1038a:	07a5                	addi	a5,a5,9 # 10009 <exit-0x117>
   1038c:	4621                	li	a2,8
   1038e:	4581                	li	a1,0
   10390:	40418513          	addi	a0,gp,1028 # 1b814 <__sf+0x154>
   10394:	0cf42023          	sw	a5,192(s0)
   10398:	03443c23          	sd	s4,56(s0)
   1039c:	05343023          	sd	s3,64(s0)
   103a0:	05243423          	sd	s2,72(s0)
   103a4:	e824                	sd	s1,80(s0)
   103a6:	f800                	sd	s0,48(s0)
   103a8:	0a043823          	sd	zero,176(s0)
   103ac:	0a043c23          	sd	zero,184(s0)
   103b0:	14042e23          	sw	zero,348(s0)
   103b4:	0c043423          	sd	zero,200(s0)
   103b8:	0c042823          	sw	zero,208(s0)
   103bc:	0c042c23          	sw	zero,216(s0)
   103c0:	4f8000ef          	jal	108b8 <memset>
   103c4:	000207b7          	lui	a5,0x20
   103c8:	07c9                	addi	a5,a5,18 # 20012 <__BSS_END__+0x4402>
   103ca:	36018713          	addi	a4,gp,864 # 1b770 <__sf+0xb0>
   103ce:	4b418513          	addi	a0,gp,1204 # 1b8c4 <__sf+0x204>
   103d2:	4621                	li	a2,8
   103d4:	4581                	li	a1,0
   103d6:	0f443423          	sd	s4,232(s0)
   103da:	0f343823          	sd	s3,240(s0)
   103de:	0f243c23          	sd	s2,248(s0)
   103e2:	10943023          	sd	s1,256(s0)
   103e6:	16f42823          	sw	a5,368(s0)
   103ea:	16043023          	sd	zero,352(s0)
   103ee:	16043423          	sd	zero,360(s0)
   103f2:	20042623          	sw	zero,524(s0)
   103f6:	16043c23          	sd	zero,376(s0)
   103fa:	18042023          	sw	zero,384(s0)
   103fe:	18042423          	sw	zero,392(s0)
   10402:	f078                	sd	a4,224(s0)
   10404:	4b4000ef          	jal	108b8 <memset>
   10408:	41018793          	addi	a5,gp,1040 # 1b820 <__sf+0x160>
   1040c:	19443c23          	sd	s4,408(s0)
   10410:	1b343023          	sd	s3,416(s0)
   10414:	1b243423          	sd	s2,424(s0)
   10418:	1a943823          	sd	s1,432(s0)
   1041c:	70a2                	ld	ra,40(sp)
   1041e:	18f43823          	sd	a5,400(s0)
   10422:	7402                	ld	s0,32(sp)
   10424:	64e2                	ld	s1,24(sp)
   10426:	6942                	ld	s2,16(sp)
   10428:	69a2                	ld	s3,8(sp)
   1042a:	6a02                	ld	s4,0(sp)
   1042c:	6145                	addi	sp,sp,48
   1042e:	8082                	ret

0000000000010430 <__sfp>:
   10430:	2381b783          	ld	a5,568(gp) # 1b648 <__stdio_exit_handler>
   10434:	7179                	addi	sp,sp,-48
   10436:	ec26                	sd	s1,24(sp)
   10438:	f406                	sd	ra,40(sp)
   1043a:	f022                	sd	s0,32(sp)
   1043c:	84aa                	mv	s1,a0
   1043e:	cbcd                	beqz	a5,104f0 <__sfp+0xc0>
   10440:	66ed                	lui	a3,0x1b
   10442:	a9068693          	addi	a3,a3,-1392 # 1aa90 <__sglue>
   10446:	0b000813          	li	a6,176
   1044a:	4698                	lw	a4,8(a3)
   1044c:	06e05363          	blez	a4,104b2 <__sfp+0x82>
   10450:	1702                	slli	a4,a4,0x20
   10452:	9301                	srli	a4,a4,0x20
   10454:	03070733          	mul	a4,a4,a6
   10458:	6a80                	ld	s0,16(a3)
   1045a:	9722                	add	a4,a4,s0
   1045c:	a029                	j	10466 <__sfp+0x36>
   1045e:	0b040413          	addi	s0,s0,176
   10462:	04e40863          	beq	s0,a4,104b2 <__sfp+0x82>
   10466:	01041783          	lh	a5,16(s0)
   1046a:	fbf5                	bnez	a5,1045e <__sfp+0x2e>
   1046c:	77c1                	lui	a5,0xffff0
   1046e:	0785                	addi	a5,a5,1 # ffffffffffff0001 <__BSS_END__+0xfffffffffffd43f1>
   10470:	c81c                	sw	a5,16(s0)
   10472:	0a042623          	sw	zero,172(s0)
   10476:	00043023          	sd	zero,0(s0)
   1047a:	00043423          	sd	zero,8(s0)
   1047e:	00043c23          	sd	zero,24(s0)
   10482:	02042023          	sw	zero,32(s0)
   10486:	02042423          	sw	zero,40(s0)
   1048a:	4621                	li	a2,8
   1048c:	4581                	li	a1,0
   1048e:	0a440513          	addi	a0,s0,164
   10492:	426000ef          	jal	108b8 <memset>
   10496:	04043c23          	sd	zero,88(s0)
   1049a:	06042023          	sw	zero,96(s0)
   1049e:	06043c23          	sd	zero,120(s0)
   104a2:	08042023          	sw	zero,128(s0)
   104a6:	70a2                	ld	ra,40(sp)
   104a8:	8522                	mv	a0,s0
   104aa:	7402                	ld	s0,32(sp)
   104ac:	64e2                	ld	s1,24(sp)
   104ae:	6145                	addi	sp,sp,48
   104b0:	8082                	ret
   104b2:	6280                	ld	s0,0(a3)
   104b4:	c019                	beqz	s0,104ba <__sfp+0x8a>
   104b6:	86a2                	mv	a3,s0
   104b8:	bf49                	j	1044a <__sfp+0x1a>
   104ba:	2d800593          	li	a1,728
   104be:	8526                	mv	a0,s1
   104c0:	e436                	sd	a3,8(sp)
   104c2:	07f000ef          	jal	10d40 <_malloc_r>
   104c6:	66a2                	ld	a3,8(sp)
   104c8:	842a                	mv	s0,a0
   104ca:	c515                	beqz	a0,104f6 <__sfp+0xc6>
   104cc:	4791                	li	a5,4
   104ce:	c51c                	sw	a5,8(a0)
   104d0:	0561                	addi	a0,a0,24
   104d2:	00043023          	sd	zero,0(s0)
   104d6:	e808                	sd	a0,16(s0)
   104d8:	2c000613          	li	a2,704
   104dc:	4581                	li	a1,0
   104de:	e436                	sd	a3,8(sp)
   104e0:	3d8000ef          	jal	108b8 <memset>
   104e4:	66a2                	ld	a3,8(sp)
   104e6:	0b000813          	li	a6,176
   104ea:	e280                	sd	s0,0(a3)
   104ec:	86a2                	mv	a3,s0
   104ee:	bfb1                	j	1044a <__sfp+0x1a>
   104f0:	e3dff0ef          	jal	1032c <global_stdio_init.part.0>
   104f4:	b7b1                	j	10440 <__sfp+0x10>
   104f6:	0006b023          	sd	zero,0(a3)
   104fa:	47b1                	li	a5,12
   104fc:	c09c                	sw	a5,0(s1)
   104fe:	b765                	j	104a6 <__sfp+0x76>

0000000000010500 <__sinit>:
   10500:	653c                	ld	a5,72(a0)
   10502:	c391                	beqz	a5,10506 <__sinit+0x6>
   10504:	8082                	ret
   10506:	67c1                	lui	a5,0x10
   10508:	2381b703          	ld	a4,568(gp) # 1b648 <__stdio_exit_handler>
   1050c:	2e478793          	addi	a5,a5,740 # 102e4 <cleanup_stdio>
   10510:	e53c                	sd	a5,72(a0)
   10512:	fb6d                	bnez	a4,10504 <__sinit+0x4>
   10514:	bd21                	j	1032c <global_stdio_init.part.0>

0000000000010516 <__sfp_lock_acquire>:
   10516:	8082                	ret

0000000000010518 <__sfp_lock_release>:
   10518:	8082                	ret

000000000001051a <__fp_lock_all>:
   1051a:	666d                	lui	a2,0x1b
   1051c:	65c1                	lui	a1,0x10
   1051e:	a9060613          	addi	a2,a2,-1392 # 1aa90 <__sglue>
   10522:	2cc58593          	addi	a1,a1,716 # 102cc <__fp_lock>
   10526:	4501                	li	a0,0
   10528:	a809                	j	1053a <_fwalk_sglue>

000000000001052a <__fp_unlock_all>:
   1052a:	666d                	lui	a2,0x1b
   1052c:	65c1                	lui	a1,0x10
   1052e:	a9060613          	addi	a2,a2,-1392 # 1aa90 <__sglue>
   10532:	32858593          	addi	a1,a1,808 # 10328 <__fp_unlock>
   10536:	4501                	li	a0,0
   10538:	a009                	j	1053a <_fwalk_sglue>

000000000001053a <_fwalk_sglue>:
   1053a:	715d                	addi	sp,sp,-80
   1053c:	f84a                	sd	s2,48(sp)
   1053e:	f44e                	sd	s3,40(sp)
   10540:	f052                	sd	s4,32(sp)
   10542:	ec56                	sd	s5,24(sp)
   10544:	e85a                	sd	s6,16(sp)
   10546:	e45e                	sd	s7,8(sp)
   10548:	e062                	sd	s8,0(sp)
   1054a:	e486                	sd	ra,72(sp)
   1054c:	e0a2                	sd	s0,64(sp)
   1054e:	fc26                	sd	s1,56(sp)
   10550:	89b2                	mv	s3,a2
   10552:	8aaa                	mv	s5,a0
   10554:	8b2e                	mv	s6,a1
   10556:	4901                	li	s2,0
   10558:	0b000b93          	li	s7,176
   1055c:	4c05                	li	s8,1
   1055e:	5a7d                	li	s4,-1
   10560:	0089a483          	lw	s1,8(s3)
   10564:	02905b63          	blez	s1,1059a <_fwalk_sglue+0x60>
   10568:	1482                	slli	s1,s1,0x20
   1056a:	9081                	srli	s1,s1,0x20
   1056c:	037484b3          	mul	s1,s1,s7
   10570:	0109b403          	ld	s0,16(s3)
   10574:	94a2                	add	s1,s1,s0
   10576:	01045783          	lhu	a5,16(s0)
   1057a:	00fc7c63          	bgeu	s8,a5,10592 <_fwalk_sglue+0x58>
   1057e:	01241783          	lh	a5,18(s0)
   10582:	85a2                	mv	a1,s0
   10584:	8556                	mv	a0,s5
   10586:	01478663          	beq	a5,s4,10592 <_fwalk_sglue+0x58>
   1058a:	9b02                	jalr	s6
   1058c:	01256933          	or	s2,a0,s2
   10590:	2901                	sext.w	s2,s2
   10592:	0b040413          	addi	s0,s0,176
   10596:	fe9410e3          	bne	s0,s1,10576 <_fwalk_sglue+0x3c>
   1059a:	0009b983          	ld	s3,0(s3)
   1059e:	fc0991e3          	bnez	s3,10560 <_fwalk_sglue+0x26>
   105a2:	60a6                	ld	ra,72(sp)
   105a4:	6406                	ld	s0,64(sp)
   105a6:	74e2                	ld	s1,56(sp)
   105a8:	79a2                	ld	s3,40(sp)
   105aa:	7a02                	ld	s4,32(sp)
   105ac:	6ae2                	ld	s5,24(sp)
   105ae:	6b42                	ld	s6,16(sp)
   105b0:	6ba2                	ld	s7,8(sp)
   105b2:	6c02                	ld	s8,0(sp)
   105b4:	854a                	mv	a0,s2
   105b6:	7942                	ld	s2,48(sp)
   105b8:	6161                	addi	sp,sp,80
   105ba:	8082                	ret

00000000000105bc <_printf_r>:
   105bc:	715d                	addi	sp,sp,-80
   105be:	8e2e                	mv	t3,a1
   105c0:	690c                	ld	a1,16(a0)
   105c2:	02010313          	addi	t1,sp,32
   105c6:	f032                	sd	a2,32(sp)
   105c8:	f436                	sd	a3,40(sp)
   105ca:	8672                	mv	a2,t3
   105cc:	869a                	mv	a3,t1
   105ce:	ec06                	sd	ra,24(sp)
   105d0:	f83a                	sd	a4,48(sp)
   105d2:	fc3e                	sd	a5,56(sp)
   105d4:	e0c2                	sd	a6,64(sp)
   105d6:	e4c6                	sd	a7,72(sp)
   105d8:	e41a                	sd	t1,8(sp)
   105da:	5e1000ef          	jal	113ba <_vfprintf_r>
   105de:	60e2                	ld	ra,24(sp)
   105e0:	6161                	addi	sp,sp,80
   105e2:	8082                	ret

00000000000105e4 <printf>:
   105e4:	2201b303          	ld	t1,544(gp) # 1b630 <_impure_ptr>
   105e8:	711d                	addi	sp,sp,-96
   105ea:	f832                	sd	a2,48(sp)
   105ec:	fc36                	sd	a3,56(sp)
   105ee:	f42e                	sd	a1,40(sp)
   105f0:	e0ba                	sd	a4,64(sp)
   105f2:	e4be                	sd	a5,72(sp)
   105f4:	e8c2                	sd	a6,80(sp)
   105f6:	ecc6                	sd	a7,88(sp)
   105f8:	01033583          	ld	a1,16(t1)
   105fc:	1034                	addi	a3,sp,40
   105fe:	862a                	mv	a2,a0
   10600:	851a                	mv	a0,t1
   10602:	ec06                	sd	ra,24(sp)
   10604:	e436                	sd	a3,8(sp)
   10606:	5b5000ef          	jal	113ba <_vfprintf_r>
   1060a:	60e2                	ld	ra,24(sp)
   1060c:	6125                	addi	sp,sp,96
   1060e:	8082                	ret

0000000000010610 <__sread>:
   10610:	1141                	addi	sp,sp,-16
   10612:	e022                	sd	s0,0(sp)
   10614:	842e                	mv	s0,a1
   10616:	01259583          	lh	a1,18(a1)
   1061a:	e406                	sd	ra,8(sp)
   1061c:	1c2000ef          	jal	107de <_read_r>
   10620:	00054963          	bltz	a0,10632 <__sread+0x22>
   10624:	685c                	ld	a5,144(s0)
   10626:	60a2                	ld	ra,8(sp)
   10628:	97aa                	add	a5,a5,a0
   1062a:	e85c                	sd	a5,144(s0)
   1062c:	6402                	ld	s0,0(sp)
   1062e:	0141                	addi	sp,sp,16
   10630:	8082                	ret
   10632:	01045783          	lhu	a5,16(s0)
   10636:	777d                	lui	a4,0xfffff
   10638:	177d                	addi	a4,a4,-1 # ffffffffffffefff <__BSS_END__+0xfffffffffffe33ef>
   1063a:	8ff9                	and	a5,a5,a4
   1063c:	60a2                	ld	ra,8(sp)
   1063e:	00f41823          	sh	a5,16(s0)
   10642:	6402                	ld	s0,0(sp)
   10644:	0141                	addi	sp,sp,16
   10646:	8082                	ret

0000000000010648 <__seofread>:
   10648:	4501                	li	a0,0
   1064a:	8082                	ret

000000000001064c <__swrite>:
   1064c:	01059783          	lh	a5,16(a1)
   10650:	7179                	addi	sp,sp,-48
   10652:	8336                	mv	t1,a3
   10654:	f406                	sd	ra,40(sp)
   10656:	1007f693          	andi	a3,a5,256
   1065a:	872e                	mv	a4,a1
   1065c:	88b2                	mv	a7,a2
   1065e:	882a                	mv	a6,a0
   10660:	ee91                	bnez	a3,1067c <__swrite+0x30>
   10662:	76fd                	lui	a3,0xfffff
   10664:	16fd                	addi	a3,a3,-1 # ffffffffffffefff <__BSS_END__+0xfffffffffffe33ef>
   10666:	70a2                	ld	ra,40(sp)
   10668:	8ff5                	and	a5,a5,a3
   1066a:	01271583          	lh	a1,18(a4)
   1066e:	00f71823          	sh	a5,16(a4)
   10672:	869a                	mv	a3,t1
   10674:	8646                	mv	a2,a7
   10676:	8542                	mv	a0,a6
   10678:	6145                	addi	sp,sp,48
   1067a:	a245                	j	1081a <_write_r>
   1067c:	01259583          	lh	a1,18(a1)
   10680:	e832                	sd	a2,16(sp)
   10682:	4689                	li	a3,2
   10684:	4601                	li	a2,0
   10686:	ec1a                	sd	t1,24(sp)
   10688:	e03a                	sd	a4,0(sp)
   1068a:	e42a                	sd	a0,8(sp)
   1068c:	116000ef          	jal	107a2 <_lseek_r>
   10690:	6702                	ld	a4,0(sp)
   10692:	6362                	ld	t1,24(sp)
   10694:	68c2                	ld	a7,16(sp)
   10696:	01071783          	lh	a5,16(a4)
   1069a:	6822                	ld	a6,8(sp)
   1069c:	b7d9                	j	10662 <__swrite+0x16>

000000000001069e <__sseek>:
   1069e:	1141                	addi	sp,sp,-16
   106a0:	e022                	sd	s0,0(sp)
   106a2:	842e                	mv	s0,a1
   106a4:	01259583          	lh	a1,18(a1)
   106a8:	e406                	sd	ra,8(sp)
   106aa:	0f8000ef          	jal	107a2 <_lseek_r>
   106ae:	577d                	li	a4,-1
   106b0:	01041783          	lh	a5,16(s0)
   106b4:	00e50b63          	beq	a0,a4,106ca <__sseek+0x2c>
   106b8:	6705                	lui	a4,0x1
   106ba:	8fd9                	or	a5,a5,a4
   106bc:	60a2                	ld	ra,8(sp)
   106be:	e848                	sd	a0,144(s0)
   106c0:	00f41823          	sh	a5,16(s0)
   106c4:	6402                	ld	s0,0(sp)
   106c6:	0141                	addi	sp,sp,16
   106c8:	8082                	ret
   106ca:	80050713          	addi	a4,a0,-2048
   106ce:	80070713          	addi	a4,a4,-2048 # 800 <exit-0xf920>
   106d2:	8ff9                	and	a5,a5,a4
   106d4:	60a2                	ld	ra,8(sp)
   106d6:	00f41823          	sh	a5,16(s0)
   106da:	6402                	ld	s0,0(sp)
   106dc:	0141                	addi	sp,sp,16
   106de:	8082                	ret

00000000000106e0 <__sclose>:
   106e0:	01259583          	lh	a1,18(a1)
   106e4:	a009                	j	106e6 <_close_r>

00000000000106e6 <_close_r>:
   106e6:	1101                	addi	sp,sp,-32
   106e8:	e822                	sd	s0,16(sp)
   106ea:	e426                	sd	s1,8(sp)
   106ec:	84aa                	mv	s1,a0
   106ee:	852e                	mv	a0,a1
   106f0:	ec06                	sd	ra,24(sp)
   106f2:	2401a023          	sw	zero,576(gp) # 1b650 <errno>
   106f6:	6e0070ef          	jal	17dd6 <_close>
   106fa:	57fd                	li	a5,-1
   106fc:	00f50763          	beq	a0,a5,1070a <_close_r+0x24>
   10700:	60e2                	ld	ra,24(sp)
   10702:	6442                	ld	s0,16(sp)
   10704:	64a2                	ld	s1,8(sp)
   10706:	6105                	addi	sp,sp,32
   10708:	8082                	ret
   1070a:	2401a783          	lw	a5,576(gp) # 1b650 <errno>
   1070e:	dbed                	beqz	a5,10700 <_close_r+0x1a>
   10710:	60e2                	ld	ra,24(sp)
   10712:	6442                	ld	s0,16(sp)
   10714:	c09c                	sw	a5,0(s1)
   10716:	64a2                	ld	s1,8(sp)
   10718:	6105                	addi	sp,sp,32
   1071a:	8082                	ret

000000000001071c <_reclaim_reent>:
   1071c:	2201b783          	ld	a5,544(gp) # 1b630 <_impure_ptr>
   10720:	08a78063          	beq	a5,a0,107a0 <_reclaim_reent+0x84>
   10724:	752c                	ld	a1,104(a0)
   10726:	7179                	addi	sp,sp,-48
   10728:	ec26                	sd	s1,24(sp)
   1072a:	f406                	sd	ra,40(sp)
   1072c:	f022                	sd	s0,32(sp)
   1072e:	84aa                	mv	s1,a0
   10730:	c98d                	beqz	a1,10762 <_reclaim_reent+0x46>
   10732:	e84a                	sd	s2,16(sp)
   10734:	e44e                	sd	s3,8(sp)
   10736:	4901                	li	s2,0
   10738:	20000993          	li	s3,512
   1073c:	012587b3          	add	a5,a1,s2
   10740:	6380                	ld	s0,0(a5)
   10742:	c801                	beqz	s0,10752 <_reclaim_reent+0x36>
   10744:	85a2                	mv	a1,s0
   10746:	6000                	ld	s0,0(s0)
   10748:	8526                	mv	a0,s1
   1074a:	3bc000ef          	jal	10b06 <_free_r>
   1074e:	f87d                	bnez	s0,10744 <_reclaim_reent+0x28>
   10750:	74ac                	ld	a1,104(s1)
   10752:	0921                	addi	s2,s2,8
   10754:	ff3914e3          	bne	s2,s3,1073c <_reclaim_reent+0x20>
   10758:	8526                	mv	a0,s1
   1075a:	3ac000ef          	jal	10b06 <_free_r>
   1075e:	6942                	ld	s2,16(sp)
   10760:	69a2                	ld	s3,8(sp)
   10762:	68ac                	ld	a1,80(s1)
   10764:	c581                	beqz	a1,1076c <_reclaim_reent+0x50>
   10766:	8526                	mv	a0,s1
   10768:	39e000ef          	jal	10b06 <_free_r>
   1076c:	70a0                	ld	s0,96(s1)
   1076e:	c419                	beqz	s0,1077c <_reclaim_reent+0x60>
   10770:	85a2                	mv	a1,s0
   10772:	6000                	ld	s0,0(s0)
   10774:	8526                	mv	a0,s1
   10776:	390000ef          	jal	10b06 <_free_r>
   1077a:	f87d                	bnez	s0,10770 <_reclaim_reent+0x54>
   1077c:	7cac                	ld	a1,120(s1)
   1077e:	c581                	beqz	a1,10786 <_reclaim_reent+0x6a>
   10780:	8526                	mv	a0,s1
   10782:	384000ef          	jal	10b06 <_free_r>
   10786:	64bc                	ld	a5,72(s1)
   10788:	c799                	beqz	a5,10796 <_reclaim_reent+0x7a>
   1078a:	7402                	ld	s0,32(sp)
   1078c:	70a2                	ld	ra,40(sp)
   1078e:	8526                	mv	a0,s1
   10790:	64e2                	ld	s1,24(sp)
   10792:	6145                	addi	sp,sp,48
   10794:	8782                	jr	a5
   10796:	70a2                	ld	ra,40(sp)
   10798:	7402                	ld	s0,32(sp)
   1079a:	64e2                	ld	s1,24(sp)
   1079c:	6145                	addi	sp,sp,48
   1079e:	8082                	ret
   107a0:	8082                	ret

00000000000107a2 <_lseek_r>:
   107a2:	1101                	addi	sp,sp,-32
   107a4:	87ae                	mv	a5,a1
   107a6:	e822                	sd	s0,16(sp)
   107a8:	e426                	sd	s1,8(sp)
   107aa:	85b2                	mv	a1,a2
   107ac:	84aa                	mv	s1,a0
   107ae:	8636                	mv	a2,a3
   107b0:	853e                	mv	a0,a5
   107b2:	ec06                	sd	ra,24(sp)
   107b4:	2401a023          	sw	zero,576(gp) # 1b650 <errno>
   107b8:	6ea070ef          	jal	17ea2 <_lseek>
   107bc:	57fd                	li	a5,-1
   107be:	00f50763          	beq	a0,a5,107cc <_lseek_r+0x2a>
   107c2:	60e2                	ld	ra,24(sp)
   107c4:	6442                	ld	s0,16(sp)
   107c6:	64a2                	ld	s1,8(sp)
   107c8:	6105                	addi	sp,sp,32
   107ca:	8082                	ret
   107cc:	2401a783          	lw	a5,576(gp) # 1b650 <errno>
   107d0:	dbed                	beqz	a5,107c2 <_lseek_r+0x20>
   107d2:	60e2                	ld	ra,24(sp)
   107d4:	6442                	ld	s0,16(sp)
   107d6:	c09c                	sw	a5,0(s1)
   107d8:	64a2                	ld	s1,8(sp)
   107da:	6105                	addi	sp,sp,32
   107dc:	8082                	ret

00000000000107de <_read_r>:
   107de:	1101                	addi	sp,sp,-32
   107e0:	87ae                	mv	a5,a1
   107e2:	e822                	sd	s0,16(sp)
   107e4:	e426                	sd	s1,8(sp)
   107e6:	85b2                	mv	a1,a2
   107e8:	84aa                	mv	s1,a0
   107ea:	8636                	mv	a2,a3
   107ec:	853e                	mv	a0,a5
   107ee:	ec06                	sd	ra,24(sp)
   107f0:	2401a023          	sw	zero,576(gp) # 1b650 <errno>
   107f4:	6d8070ef          	jal	17ecc <_read>
   107f8:	57fd                	li	a5,-1
   107fa:	00f50763          	beq	a0,a5,10808 <_read_r+0x2a>
   107fe:	60e2                	ld	ra,24(sp)
   10800:	6442                	ld	s0,16(sp)
   10802:	64a2                	ld	s1,8(sp)
   10804:	6105                	addi	sp,sp,32
   10806:	8082                	ret
   10808:	2401a783          	lw	a5,576(gp) # 1b650 <errno>
   1080c:	dbed                	beqz	a5,107fe <_read_r+0x20>
   1080e:	60e2                	ld	ra,24(sp)
   10810:	6442                	ld	s0,16(sp)
   10812:	c09c                	sw	a5,0(s1)
   10814:	64a2                	ld	s1,8(sp)
   10816:	6105                	addi	sp,sp,32
   10818:	8082                	ret

000000000001081a <_write_r>:
   1081a:	1101                	addi	sp,sp,-32
   1081c:	87ae                	mv	a5,a1
   1081e:	e822                	sd	s0,16(sp)
   10820:	e426                	sd	s1,8(sp)
   10822:	85b2                	mv	a1,a2
   10824:	84aa                	mv	s1,a0
   10826:	8636                	mv	a2,a3
   10828:	853e                	mv	a0,a5
   1082a:	ec06                	sd	ra,24(sp)
   1082c:	2401a023          	sw	zero,576(gp) # 1b650 <errno>
   10830:	71a070ef          	jal	17f4a <_write>
   10834:	57fd                	li	a5,-1
   10836:	00f50763          	beq	a0,a5,10844 <_write_r+0x2a>
   1083a:	60e2                	ld	ra,24(sp)
   1083c:	6442                	ld	s0,16(sp)
   1083e:	64a2                	ld	s1,8(sp)
   10840:	6105                	addi	sp,sp,32
   10842:	8082                	ret
   10844:	2401a783          	lw	a5,576(gp) # 1b650 <errno>
   10848:	dbed                	beqz	a5,1083a <_write_r+0x20>
   1084a:	60e2                	ld	ra,24(sp)
   1084c:	6442                	ld	s0,16(sp)
   1084e:	c09c                	sw	a5,0(s1)
   10850:	64a2                	ld	s1,8(sp)
   10852:	6105                	addi	sp,sp,32
   10854:	8082                	ret

0000000000010856 <__libc_init_array>:
   10856:	1101                	addi	sp,sp,-32
   10858:	e822                	sd	s0,16(sp)
   1085a:	e04a                	sd	s2,0(sp)
   1085c:	646d                	lui	s0,0x1b
   1085e:	696d                	lui	s2,0x1b
   10860:	ec06                	sd	ra,24(sp)
   10862:	e426                	sd	s1,8(sp)
   10864:	a7490913          	addi	s2,s2,-1420 # 1aa74 <__preinit_array_end>
   10868:	a7440413          	addi	s0,s0,-1420 # 1aa74 <__preinit_array_end>
   1086c:	00890d63          	beq	s2,s0,10886 <__libc_init_array+0x30>
   10870:	40890933          	sub	s2,s2,s0
   10874:	40395913          	srai	s2,s2,0x3
   10878:	4481                	li	s1,0
   1087a:	601c                	ld	a5,0(s0)
   1087c:	0485                	addi	s1,s1,1
   1087e:	0421                	addi	s0,s0,8
   10880:	9782                	jalr	a5
   10882:	ff24ece3          	bltu	s1,s2,1087a <__libc_init_array+0x24>
   10886:	696d                	lui	s2,0x1b
   10888:	646d                	lui	s0,0x1b
   1088a:	a8890913          	addi	s2,s2,-1400 # 1aa88 <__do_global_dtors_aux_fini_array_entry>
   1088e:	a7840413          	addi	s0,s0,-1416 # 1aa78 <__init_array_start>
   10892:	00890d63          	beq	s2,s0,108ac <__libc_init_array+0x56>
   10896:	40890933          	sub	s2,s2,s0
   1089a:	40395913          	srai	s2,s2,0x3
   1089e:	4481                	li	s1,0
   108a0:	601c                	ld	a5,0(s0)
   108a2:	0485                	addi	s1,s1,1
   108a4:	0421                	addi	s0,s0,8
   108a6:	9782                	jalr	a5
   108a8:	ff24ece3          	bltu	s1,s2,108a0 <__libc_init_array+0x4a>
   108ac:	60e2                	ld	ra,24(sp)
   108ae:	6442                	ld	s0,16(sp)
   108b0:	64a2                	ld	s1,8(sp)
   108b2:	6902                	ld	s2,0(sp)
   108b4:	6105                	addi	sp,sp,32
   108b6:	8082                	ret

00000000000108b8 <memset>:
   108b8:	433d                	li	t1,15
   108ba:	872a                	mv	a4,a0
   108bc:	02c37163          	bgeu	t1,a2,108de <memset+0x26>
   108c0:	00f77793          	andi	a5,a4,15
   108c4:	e3c1                	bnez	a5,10944 <memset+0x8c>
   108c6:	e1bd                	bnez	a1,1092c <memset+0x74>
   108c8:	ff067693          	andi	a3,a2,-16
   108cc:	8a3d                	andi	a2,a2,15
   108ce:	96ba                	add	a3,a3,a4
   108d0:	e30c                	sd	a1,0(a4)
   108d2:	e70c                	sd	a1,8(a4)
   108d4:	0741                	addi	a4,a4,16
   108d6:	fed76de3          	bltu	a4,a3,108d0 <memset+0x18>
   108da:	e211                	bnez	a2,108de <memset+0x26>
   108dc:	8082                	ret
   108de:	40c306b3          	sub	a3,t1,a2
   108e2:	068a                	slli	a3,a3,0x2
   108e4:	00000297          	auipc	t0,0x0
   108e8:	9696                	add	a3,a3,t0
   108ea:	00a68067          	jr	10(a3)
   108ee:	00b70723          	sb	a1,14(a4)
   108f2:	00b706a3          	sb	a1,13(a4)
   108f6:	00b70623          	sb	a1,12(a4)
   108fa:	00b705a3          	sb	a1,11(a4)
   108fe:	00b70523          	sb	a1,10(a4)
   10902:	00b704a3          	sb	a1,9(a4)
   10906:	00b70423          	sb	a1,8(a4)
   1090a:	00b703a3          	sb	a1,7(a4)
   1090e:	00b70323          	sb	a1,6(a4)
   10912:	00b702a3          	sb	a1,5(a4)
   10916:	00b70223          	sb	a1,4(a4)
   1091a:	00b701a3          	sb	a1,3(a4)
   1091e:	00b70123          	sb	a1,2(a4)
   10922:	00b700a3          	sb	a1,1(a4)
   10926:	00b70023          	sb	a1,0(a4)
   1092a:	8082                	ret
   1092c:	0ff5f593          	zext.b	a1,a1
   10930:	00859693          	slli	a3,a1,0x8
   10934:	8dd5                	or	a1,a1,a3
   10936:	01059693          	slli	a3,a1,0x10
   1093a:	8dd5                	or	a1,a1,a3
   1093c:	02059693          	slli	a3,a1,0x20
   10940:	8dd5                	or	a1,a1,a3
   10942:	b759                	j	108c8 <memset+0x10>
   10944:	00279693          	slli	a3,a5,0x2
   10948:	00000297          	auipc	t0,0x0
   1094c:	9696                	add	a3,a3,t0
   1094e:	8286                	mv	t0,ra
   10950:	fa2680e7          	jalr	-94(a3)
   10954:	8096                	mv	ra,t0
   10956:	17c1                	addi	a5,a5,-16
   10958:	8f1d                	sub	a4,a4,a5
   1095a:	963e                	add	a2,a2,a5
   1095c:	f8c371e3          	bgeu	t1,a2,108de <memset+0x26>
   10960:	b79d                	j	108c6 <memset+0xe>

0000000000010962 <__call_exitprocs>:
   10962:	715d                	addi	sp,sp,-80
   10964:	f052                	sd	s4,32(sp)
   10966:	f84a                	sd	s2,48(sp)
   10968:	2481b903          	ld	s2,584(gp) # 1b658 <__atexit>
   1096c:	e486                	sd	ra,72(sp)
   1096e:	04090863          	beqz	s2,109be <__call_exitprocs+0x5c>
   10972:	f44e                	sd	s3,40(sp)
   10974:	ec56                	sd	s5,24(sp)
   10976:	e85a                	sd	s6,16(sp)
   10978:	e45e                	sd	s7,8(sp)
   1097a:	e0a2                	sd	s0,64(sp)
   1097c:	fc26                	sd	s1,56(sp)
   1097e:	e062                	sd	s8,0(sp)
   10980:	8b2a                	mv	s6,a0
   10982:	8bae                	mv	s7,a1
   10984:	59fd                	li	s3,-1
   10986:	4a85                	li	s5,1
   10988:	00892403          	lw	s0,8(s2)
   1098c:	347d                	addiw	s0,s0,-1
   1098e:	02044163          	bltz	s0,109b0 <__call_exitprocs+0x4e>
   10992:	01090493          	addi	s1,s2,16
   10996:	00341793          	slli	a5,s0,0x3
   1099a:	94be                	add	s1,s1,a5
   1099c:	020b8663          	beqz	s7,109c8 <__call_exitprocs+0x66>
   109a0:	2004b783          	ld	a5,512(s1)
   109a4:	03778263          	beq	a5,s7,109c8 <__call_exitprocs+0x66>
   109a8:	347d                	addiw	s0,s0,-1
   109aa:	14e1                	addi	s1,s1,-8
   109ac:	ff341ae3          	bne	s0,s3,109a0 <__call_exitprocs+0x3e>
   109b0:	6406                	ld	s0,64(sp)
   109b2:	74e2                	ld	s1,56(sp)
   109b4:	79a2                	ld	s3,40(sp)
   109b6:	6ae2                	ld	s5,24(sp)
   109b8:	6b42                	ld	s6,16(sp)
   109ba:	6ba2                	ld	s7,8(sp)
   109bc:	6c02                	ld	s8,0(sp)
   109be:	60a6                	ld	ra,72(sp)
   109c0:	7942                	ld	s2,48(sp)
   109c2:	7a02                	ld	s4,32(sp)
   109c4:	6161                	addi	sp,sp,80
   109c6:	8082                	ret
   109c8:	00892783          	lw	a5,8(s2)
   109cc:	6094                	ld	a3,0(s1)
   109ce:	37fd                	addiw	a5,a5,-1
   109d0:	04878c63          	beq	a5,s0,10a28 <__call_exitprocs+0xc6>
   109d4:	0004b023          	sd	zero,0(s1)
   109d8:	c295                	beqz	a3,109fc <__call_exitprocs+0x9a>
   109da:	31092783          	lw	a5,784(s2)
   109de:	008a973b          	sllw	a4,s5,s0
   109e2:	00892c03          	lw	s8,8(s2)
   109e6:	8ff9                	and	a5,a5,a4
   109e8:	ef99                	bnez	a5,10a06 <__call_exitprocs+0xa4>
   109ea:	9682                	jalr	a3
   109ec:	00892703          	lw	a4,8(s2)
   109f0:	2481b783          	ld	a5,584(gp) # 1b658 <__atexit>
   109f4:	03871763          	bne	a4,s8,10a22 <__call_exitprocs+0xc0>
   109f8:	03279563          	bne	a5,s2,10a22 <__call_exitprocs+0xc0>
   109fc:	347d                	addiw	s0,s0,-1
   109fe:	14e1                	addi	s1,s1,-8
   10a00:	f9341ee3          	bne	s0,s3,1099c <__call_exitprocs+0x3a>
   10a04:	b775                	j	109b0 <__call_exitprocs+0x4e>
   10a06:	31492783          	lw	a5,788(s2)
   10a0a:	1004b583          	ld	a1,256(s1)
   10a0e:	8f7d                	and	a4,a4,a5
   10a10:	ef19                	bnez	a4,10a2e <__call_exitprocs+0xcc>
   10a12:	855a                	mv	a0,s6
   10a14:	9682                	jalr	a3
   10a16:	00892703          	lw	a4,8(s2)
   10a1a:	2481b783          	ld	a5,584(gp) # 1b658 <__atexit>
   10a1e:	fd870de3          	beq	a4,s8,109f8 <__call_exitprocs+0x96>
   10a22:	d7d9                	beqz	a5,109b0 <__call_exitprocs+0x4e>
   10a24:	893e                	mv	s2,a5
   10a26:	b78d                	j	10988 <__call_exitprocs+0x26>
   10a28:	00892423          	sw	s0,8(s2)
   10a2c:	b775                	j	109d8 <__call_exitprocs+0x76>
   10a2e:	852e                	mv	a0,a1
   10a30:	9682                	jalr	a3
   10a32:	bf6d                	j	109ec <__call_exitprocs+0x8a>

0000000000010a34 <atexit>:
   10a34:	85aa                	mv	a1,a0
   10a36:	4681                	li	a3,0
   10a38:	4601                	li	a2,0
   10a3a:	4501                	li	a0,0
   10a3c:	5e00306f          	j	1401c <__register_exitproc>

0000000000010a40 <_malloc_trim_r>:
   10a40:	7179                	addi	sp,sp,-48
   10a42:	e84a                	sd	s2,16(sp)
   10a44:	696d                	lui	s2,0x1b
   10a46:	f022                	sd	s0,32(sp)
   10a48:	ec26                	sd	s1,24(sp)
   10a4a:	e44e                	sd	s3,8(sp)
   10a4c:	842e                	mv	s0,a1
   10a4e:	f406                	sd	ra,40(sp)
   10a50:	89aa                	mv	s3,a0
   10a52:	c0090913          	addi	s2,s2,-1024 # 1ac00 <__malloc_av_>
   10a56:	161000ef          	jal	113b6 <__malloc_lock>
   10a5a:	01093783          	ld	a5,16(s2)
   10a5e:	6705                	lui	a4,0x1
   10a60:	6784                	ld	s1,8(a5)
   10a62:	98f1                	andi	s1,s1,-4
   10a64:	7ff48793          	addi	a5,s1,2047
   10a68:	7e078793          	addi	a5,a5,2016
   10a6c:	40878433          	sub	s0,a5,s0
   10a70:	8031                	srli	s0,s0,0xc
   10a72:	147d                	addi	s0,s0,-1
   10a74:	0432                	slli	s0,s0,0xc
   10a76:	00e44b63          	blt	s0,a4,10a8c <_malloc_trim_r+0x4c>
   10a7a:	4581                	li	a1,0
   10a7c:	854e                	mv	a0,s3
   10a7e:	238030ef          	jal	13cb6 <_sbrk_r>
   10a82:	01093783          	ld	a5,16(s2)
   10a86:	97a6                	add	a5,a5,s1
   10a88:	00f50d63          	beq	a0,a5,10aa2 <_malloc_trim_r+0x62>
   10a8c:	854e                	mv	a0,s3
   10a8e:	12b000ef          	jal	113b8 <__malloc_unlock>
   10a92:	70a2                	ld	ra,40(sp)
   10a94:	7402                	ld	s0,32(sp)
   10a96:	64e2                	ld	s1,24(sp)
   10a98:	6942                	ld	s2,16(sp)
   10a9a:	69a2                	ld	s3,8(sp)
   10a9c:	4501                	li	a0,0
   10a9e:	6145                	addi	sp,sp,48
   10aa0:	8082                	ret
   10aa2:	408005b3          	neg	a1,s0
   10aa6:	854e                	mv	a0,s3
   10aa8:	20e030ef          	jal	13cb6 <_sbrk_r>
   10aac:	57fd                	li	a5,-1
   10aae:	02f50863          	beq	a0,a5,10ade <_malloc_trim_r+0x9e>
   10ab2:	01093683          	ld	a3,16(s2)
   10ab6:	4c01a783          	lw	a5,1216(gp) # 1b8d0 <__malloc_current_mallinfo>
   10aba:	8c81                	sub	s1,s1,s0
   10abc:	0014e493          	ori	s1,s1,1
   10ac0:	854e                	mv	a0,s3
   10ac2:	9f81                	subw	a5,a5,s0
   10ac4:	e684                	sd	s1,8(a3)
   10ac6:	4cf1a023          	sw	a5,1216(gp) # 1b8d0 <__malloc_current_mallinfo>
   10aca:	0ef000ef          	jal	113b8 <__malloc_unlock>
   10ace:	70a2                	ld	ra,40(sp)
   10ad0:	7402                	ld	s0,32(sp)
   10ad2:	64e2                	ld	s1,24(sp)
   10ad4:	6942                	ld	s2,16(sp)
   10ad6:	69a2                	ld	s3,8(sp)
   10ad8:	4505                	li	a0,1
   10ada:	6145                	addi	sp,sp,48
   10adc:	8082                	ret
   10ade:	4581                	li	a1,0
   10ae0:	854e                	mv	a0,s3
   10ae2:	1d4030ef          	jal	13cb6 <_sbrk_r>
   10ae6:	01093703          	ld	a4,16(s2)
   10aea:	46fd                	li	a3,31
   10aec:	40e507b3          	sub	a5,a0,a4
   10af0:	f8f6dee3          	bge	a3,a5,10a8c <_malloc_trim_r+0x4c>
   10af4:	2281b603          	ld	a2,552(gp) # 1b638 <__malloc_sbrk_base>
   10af8:	0017e793          	ori	a5,a5,1
   10afc:	8d11                	sub	a0,a0,a2
   10afe:	e71c                	sd	a5,8(a4)
   10b00:	4ca1a023          	sw	a0,1216(gp) # 1b8d0 <__malloc_current_mallinfo>
   10b04:	b761                	j	10a8c <_malloc_trim_r+0x4c>

0000000000010b06 <_free_r>:
   10b06:	c1ed                	beqz	a1,10be8 <_free_r+0xe2>
   10b08:	1101                	addi	sp,sp,-32
   10b0a:	e822                	sd	s0,16(sp)
   10b0c:	e42e                	sd	a1,8(sp)
   10b0e:	842a                	mv	s0,a0
   10b10:	ec06                	sd	ra,24(sp)
   10b12:	0a5000ef          	jal	113b6 <__malloc_lock>
   10b16:	65a2                	ld	a1,8(sp)
   10b18:	686d                	lui	a6,0x1b
   10b1a:	c0080813          	addi	a6,a6,-1024 # 1ac00 <__malloc_av_>
   10b1e:	ff85b503          	ld	a0,-8(a1)
   10b22:	ff058713          	addi	a4,a1,-16
   10b26:	01083883          	ld	a7,16(a6)
   10b2a:	ffe57793          	andi	a5,a0,-2
   10b2e:	00f70633          	add	a2,a4,a5
   10b32:	6614                	ld	a3,8(a2)
   10b34:	00157313          	andi	t1,a0,1
   10b38:	9af1                	andi	a3,a3,-4
   10b3a:	12c88363          	beq	a7,a2,10c60 <_free_r+0x15a>
   10b3e:	e614                	sd	a3,8(a2)
   10b40:	00d608b3          	add	a7,a2,a3
   10b44:	0088b883          	ld	a7,8(a7)
   10b48:	0018f893          	andi	a7,a7,1
   10b4c:	06031a63          	bnez	t1,10bc0 <_free_r+0xba>
   10b50:	ff05b303          	ld	t1,-16(a1)
   10b54:	65ed                	lui	a1,0x1b
   10b56:	c1058593          	addi	a1,a1,-1008 # 1ac10 <__malloc_av_+0x10>
   10b5a:	40670733          	sub	a4,a4,t1
   10b5e:	6b08                	ld	a0,16(a4)
   10b60:	979a                	add	a5,a5,t1
   10b62:	0eb50263          	beq	a0,a1,10c46 <_free_r+0x140>
   10b66:	01873303          	ld	t1,24(a4) # 1018 <exit-0xf108>
   10b6a:	00653c23          	sd	t1,24(a0)
   10b6e:	00a33823          	sd	a0,16(t1)
   10b72:	12088163          	beqz	a7,10c94 <_free_r+0x18e>
   10b76:	0017e693          	ori	a3,a5,1
   10b7a:	e714                	sd	a3,8(a4)
   10b7c:	e21c                	sd	a5,0(a2)
   10b7e:	1ff00693          	li	a3,511
   10b82:	06f6ed63          	bltu	a3,a5,10bfc <_free_r+0xf6>
   10b86:	838d                	srli	a5,a5,0x3
   10b88:	00179693          	slli	a3,a5,0x1
   10b8c:	2689                	addiw	a3,a3,2
   10b8e:	068e                	slli	a3,a3,0x3
   10b90:	00883503          	ld	a0,8(a6)
   10b94:	96c2                	add	a3,a3,a6
   10b96:	628c                	ld	a1,0(a3)
   10b98:	4027d61b          	sraiw	a2,a5,0x2
   10b9c:	4785                	li	a5,1
   10b9e:	00c797b3          	sll	a5,a5,a2
   10ba2:	8fc9                	or	a5,a5,a0
   10ba4:	ff068613          	addi	a2,a3,-16
   10ba8:	eb0c                	sd	a1,16(a4)
   10baa:	ef10                	sd	a2,24(a4)
   10bac:	00f83423          	sd	a5,8(a6)
   10bb0:	e298                	sd	a4,0(a3)
   10bb2:	ed98                	sd	a4,24(a1)
   10bb4:	8522                	mv	a0,s0
   10bb6:	6442                	ld	s0,16(sp)
   10bb8:	60e2                	ld	ra,24(sp)
   10bba:	6105                	addi	sp,sp,32
   10bbc:	7fc0006f          	j	113b8 <__malloc_unlock>
   10bc0:	02089563          	bnez	a7,10bea <_free_r+0xe4>
   10bc4:	65ed                	lui	a1,0x1b
   10bc6:	97b6                	add	a5,a5,a3
   10bc8:	c1058593          	addi	a1,a1,-1008 # 1ac10 <__malloc_av_+0x10>
   10bcc:	6a14                	ld	a3,16(a2)
   10bce:	0017e893          	ori	a7,a5,1
   10bd2:	00f70533          	add	a0,a4,a5
   10bd6:	0eb68f63          	beq	a3,a1,10cd4 <_free_r+0x1ce>
   10bda:	6e10                	ld	a2,24(a2)
   10bdc:	ee90                	sd	a2,24(a3)
   10bde:	ea14                	sd	a3,16(a2)
   10be0:	01173423          	sd	a7,8(a4)
   10be4:	e11c                	sd	a5,0(a0)
   10be6:	bf61                	j	10b7e <_free_r+0x78>
   10be8:	8082                	ret
   10bea:	00156513          	ori	a0,a0,1
   10bee:	fea5bc23          	sd	a0,-8(a1)
   10bf2:	e21c                	sd	a5,0(a2)
   10bf4:	1ff00693          	li	a3,511
   10bf8:	f8f6f7e3          	bgeu	a3,a5,10b86 <_free_r+0x80>
   10bfc:	0097d693          	srli	a3,a5,0x9
   10c00:	4611                	li	a2,4
   10c02:	08d66b63          	bltu	a2,a3,10c98 <_free_r+0x192>
   10c06:	0067d693          	srli	a3,a5,0x6
   10c0a:	00169593          	slli	a1,a3,0x1
   10c0e:	0725859b          	addiw	a1,a1,114
   10c12:	058e                	slli	a1,a1,0x3
   10c14:	0386861b          	addiw	a2,a3,56
   10c18:	95c2                	add	a1,a1,a6
   10c1a:	6194                	ld	a3,0(a1)
   10c1c:	15c1                	addi	a1,a1,-16
   10c1e:	00d59663          	bne	a1,a3,10c2a <_free_r+0x124>
   10c22:	a0d9                	j	10ce8 <_free_r+0x1e2>
   10c24:	6a94                	ld	a3,16(a3)
   10c26:	00d58663          	beq	a1,a3,10c32 <_free_r+0x12c>
   10c2a:	6690                	ld	a2,8(a3)
   10c2c:	9a71                	andi	a2,a2,-4
   10c2e:	fec7ebe3          	bltu	a5,a2,10c24 <_free_r+0x11e>
   10c32:	6e8c                	ld	a1,24(a3)
   10c34:	ef0c                	sd	a1,24(a4)
   10c36:	eb14                	sd	a3,16(a4)
   10c38:	8522                	mv	a0,s0
   10c3a:	6442                	ld	s0,16(sp)
   10c3c:	60e2                	ld	ra,24(sp)
   10c3e:	e998                	sd	a4,16(a1)
   10c40:	ee98                	sd	a4,24(a3)
   10c42:	6105                	addi	sp,sp,32
   10c44:	af95                	j	113b8 <__malloc_unlock>
   10c46:	06089a63          	bnez	a7,10cba <_free_r+0x1b4>
   10c4a:	6e0c                	ld	a1,24(a2)
   10c4c:	6a10                	ld	a2,16(a2)
   10c4e:	96be                	add	a3,a3,a5
   10c50:	0016e793          	ori	a5,a3,1
   10c54:	ee0c                	sd	a1,24(a2)
   10c56:	e990                	sd	a2,16(a1)
   10c58:	e71c                	sd	a5,8(a4)
   10c5a:	9736                	add	a4,a4,a3
   10c5c:	e314                	sd	a3,0(a4)
   10c5e:	bf99                	j	10bb4 <_free_r+0xae>
   10c60:	96be                	add	a3,a3,a5
   10c62:	00031a63          	bnez	t1,10c76 <_free_r+0x170>
   10c66:	ff05b783          	ld	a5,-16(a1)
   10c6a:	8f1d                	sub	a4,a4,a5
   10c6c:	6b10                	ld	a2,16(a4)
   10c6e:	96be                	add	a3,a3,a5
   10c70:	6f1c                	ld	a5,24(a4)
   10c72:	ee1c                	sd	a5,24(a2)
   10c74:	eb90                	sd	a2,16(a5)
   10c76:	0016e613          	ori	a2,a3,1
   10c7a:	2301b783          	ld	a5,560(gp) # 1b640 <__malloc_trim_threshold>
   10c7e:	e710                	sd	a2,8(a4)
   10c80:	00e83823          	sd	a4,16(a6)
   10c84:	f2f6e8e3          	bltu	a3,a5,10bb4 <_free_r+0xae>
   10c88:	2601b583          	ld	a1,608(gp) # 1b670 <__malloc_top_pad>
   10c8c:	8522                	mv	a0,s0
   10c8e:	db3ff0ef          	jal	10a40 <_malloc_trim_r>
   10c92:	b70d                	j	10bb4 <_free_r+0xae>
   10c94:	97b6                	add	a5,a5,a3
   10c96:	bf1d                	j	10bcc <_free_r+0xc6>
   10c98:	4651                	li	a2,20
   10c9a:	02d67563          	bgeu	a2,a3,10cc4 <_free_r+0x1be>
   10c9e:	05400613          	li	a2,84
   10ca2:	04d66e63          	bltu	a2,a3,10cfe <_free_r+0x1f8>
   10ca6:	00c7d693          	srli	a3,a5,0xc
   10caa:	00169593          	slli	a1,a3,0x1
   10cae:	0de5859b          	addiw	a1,a1,222
   10cb2:	058e                	slli	a1,a1,0x3
   10cb4:	06e6861b          	addiw	a2,a3,110
   10cb8:	b785                	j	10c18 <_free_r+0x112>
   10cba:	0017e693          	ori	a3,a5,1
   10cbe:	e714                	sd	a3,8(a4)
   10cc0:	e21c                	sd	a5,0(a2)
   10cc2:	bdcd                	j	10bb4 <_free_r+0xae>
   10cc4:	00169593          	slli	a1,a3,0x1
   10cc8:	0b85859b          	addiw	a1,a1,184
   10ccc:	058e                	slli	a1,a1,0x3
   10cce:	05b6861b          	addiw	a2,a3,91
   10cd2:	b799                	j	10c18 <_free_r+0x112>
   10cd4:	02e83423          	sd	a4,40(a6)
   10cd8:	02e83023          	sd	a4,32(a6)
   10cdc:	ef0c                	sd	a1,24(a4)
   10cde:	eb0c                	sd	a1,16(a4)
   10ce0:	01173423          	sd	a7,8(a4)
   10ce4:	e11c                	sd	a5,0(a0)
   10ce6:	b5f9                	j	10bb4 <_free_r+0xae>
   10ce8:	00883503          	ld	a0,8(a6)
   10cec:	4026561b          	sraiw	a2,a2,0x2
   10cf0:	4785                	li	a5,1
   10cf2:	00c797b3          	sll	a5,a5,a2
   10cf6:	8fc9                	or	a5,a5,a0
   10cf8:	00f83423          	sd	a5,8(a6)
   10cfc:	bf25                	j	10c34 <_free_r+0x12e>
   10cfe:	15400613          	li	a2,340
   10d02:	00d66c63          	bltu	a2,a3,10d1a <_free_r+0x214>
   10d06:	00f7d693          	srli	a3,a5,0xf
   10d0a:	00169593          	slli	a1,a3,0x1
   10d0e:	0f05859b          	addiw	a1,a1,240
   10d12:	058e                	slli	a1,a1,0x3
   10d14:	0776861b          	addiw	a2,a3,119
   10d18:	b701                	j	10c18 <_free_r+0x112>
   10d1a:	55400613          	li	a2,1364
   10d1e:	00d66c63          	bltu	a2,a3,10d36 <_free_r+0x230>
   10d22:	0127d693          	srli	a3,a5,0x12
   10d26:	00169593          	slli	a1,a3,0x1
   10d2a:	0fa5859b          	addiw	a1,a1,250
   10d2e:	058e                	slli	a1,a1,0x3
   10d30:	07c6861b          	addiw	a2,a3,124
   10d34:	b5d5                	j	10c18 <_free_r+0x112>
   10d36:	7f000593          	li	a1,2032
   10d3a:	07e00613          	li	a2,126
   10d3e:	bde9                	j	10c18 <_free_r+0x112>

0000000000010d40 <_malloc_r>:
   10d40:	711d                	addi	sp,sp,-96
   10d42:	e8a2                	sd	s0,80(sp)
   10d44:	ec86                	sd	ra,88(sp)
   10d46:	01758713          	addi	a4,a1,23
   10d4a:	02e00793          	li	a5,46
   10d4e:	842a                	mv	s0,a0
   10d50:	06e7e363          	bltu	a5,a4,10db6 <_malloc_r+0x76>
   10d54:	02000713          	li	a4,32
   10d58:	04b76863          	bltu	a4,a1,10da8 <_malloc_r+0x68>
   10d5c:	65a000ef          	jal	113b6 <__malloc_lock>
   10d60:	02000713          	li	a4,32
   10d64:	05000693          	li	a3,80
   10d68:	4891                	li	a7,4
   10d6a:	686d                	lui	a6,0x1b
   10d6c:	c0080813          	addi	a6,a6,-1024 # 1ac00 <__malloc_av_>
   10d70:	96c2                	add	a3,a3,a6
   10d72:	669c                	ld	a5,8(a3)
   10d74:	ff068613          	addi	a2,a3,-16
   10d78:	32c78663          	beq	a5,a2,110a4 <_malloc_r+0x364>
   10d7c:	6798                	ld	a4,8(a5)
   10d7e:	6f90                	ld	a2,24(a5)
   10d80:	6b8c                	ld	a1,16(a5)
   10d82:	9b71                	andi	a4,a4,-4
   10d84:	973e                	add	a4,a4,a5
   10d86:	6714                	ld	a3,8(a4)
   10d88:	ed90                	sd	a2,24(a1)
   10d8a:	ea0c                	sd	a1,16(a2)
   10d8c:	0016e693          	ori	a3,a3,1
   10d90:	8522                	mv	a0,s0
   10d92:	e714                	sd	a3,8(a4)
   10d94:	e43e                	sd	a5,8(sp)
   10d96:	622000ef          	jal	113b8 <__malloc_unlock>
   10d9a:	67a2                	ld	a5,8(sp)
   10d9c:	60e6                	ld	ra,88(sp)
   10d9e:	6446                	ld	s0,80(sp)
   10da0:	01078513          	addi	a0,a5,16
   10da4:	6125                	addi	sp,sp,96
   10da6:	8082                	ret
   10da8:	47b1                	li	a5,12
   10daa:	c01c                	sw	a5,0(s0)
   10dac:	4501                	li	a0,0
   10dae:	60e6                	ld	ra,88(sp)
   10db0:	6446                	ld	s0,80(sp)
   10db2:	6125                	addi	sp,sp,96
   10db4:	8082                	ret
   10db6:	4785                	li	a5,1
   10db8:	9b41                	andi	a4,a4,-16
   10dba:	07fe                	slli	a5,a5,0x1f
   10dbc:	fef776e3          	bgeu	a4,a5,10da8 <_malloc_r+0x68>
   10dc0:	feb764e3          	bltu	a4,a1,10da8 <_malloc_r+0x68>
   10dc4:	e43a                	sd	a4,8(sp)
   10dc6:	5f0000ef          	jal	113b6 <__malloc_lock>
   10dca:	6722                	ld	a4,8(sp)
   10dcc:	1f700793          	li	a5,503
   10dd0:	38e7f863          	bgeu	a5,a4,11160 <_malloc_r+0x420>
   10dd4:	00975793          	srli	a5,a4,0x9
   10dd8:	12078463          	beqz	a5,10f00 <_malloc_r+0x1c0>
   10ddc:	4691                	li	a3,4
   10dde:	30f6ea63          	bltu	a3,a5,110f2 <_malloc_r+0x3b2>
   10de2:	00675793          	srli	a5,a4,0x6
   10de6:	0397889b          	addiw	a7,a5,57
   10dea:	0018951b          	slliw	a0,a7,0x1
   10dee:	03878e1b          	addiw	t3,a5,56
   10df2:	050e                	slli	a0,a0,0x3
   10df4:	686d                	lui	a6,0x1b
   10df6:	c0080813          	addi	a6,a6,-1024 # 1ac00 <__malloc_av_>
   10dfa:	9542                	add	a0,a0,a6
   10dfc:	651c                	ld	a5,8(a0)
   10dfe:	1541                	addi	a0,a0,-16
   10e00:	02f50163          	beq	a0,a5,10e22 <_malloc_r+0xe2>
   10e04:	437d                	li	t1,31
   10e06:	a039                	j	10e14 <_malloc_r+0xd4>
   10e08:	6f8c                	ld	a1,24(a5)
   10e0a:	26065a63          	bgez	a2,1107e <_malloc_r+0x33e>
   10e0e:	00b50a63          	beq	a0,a1,10e22 <_malloc_r+0xe2>
   10e12:	87ae                	mv	a5,a1
   10e14:	6794                	ld	a3,8(a5)
   10e16:	9af1                	andi	a3,a3,-4
   10e18:	40e68633          	sub	a2,a3,a4
   10e1c:	fec356e3          	bge	t1,a2,10e08 <_malloc_r+0xc8>
   10e20:	88f2                	mv	a7,t3
   10e22:	02083783          	ld	a5,32(a6)
   10e26:	6e6d                	lui	t3,0x1b
   10e28:	c10e0e13          	addi	t3,t3,-1008 # 1ac10 <__malloc_av_+0x10>
   10e2c:	23c78263          	beq	a5,t3,11050 <_malloc_r+0x310>
   10e30:	0087b303          	ld	t1,8(a5)
   10e34:	467d                	li	a2,31
   10e36:	ffc37313          	andi	t1,t1,-4
   10e3a:	40e306b3          	sub	a3,t1,a4
   10e3e:	34d64863          	blt	a2,a3,1118e <_malloc_r+0x44e>
   10e42:	03c83423          	sd	t3,40(a6)
   10e46:	03c83023          	sd	t3,32(a6)
   10e4a:	3206d363          	bgez	a3,11170 <_malloc_r+0x430>
   10e4e:	1ff00693          	li	a3,511
   10e52:	00883583          	ld	a1,8(a6)
   10e56:	2466ec63          	bltu	a3,t1,110ae <_malloc_r+0x36e>
   10e5a:	00335313          	srli	t1,t1,0x3
   10e5e:	00131693          	slli	a3,t1,0x1
   10e62:	2689                	addiw	a3,a3,2
   10e64:	068e                	slli	a3,a3,0x3
   10e66:	96c2                	add	a3,a3,a6
   10e68:	6288                	ld	a0,0(a3)
   10e6a:	4023531b          	sraiw	t1,t1,0x2
   10e6e:	4605                	li	a2,1
   10e70:	00661633          	sll	a2,a2,t1
   10e74:	8dd1                	or	a1,a1,a2
   10e76:	ff068613          	addi	a2,a3,-16
   10e7a:	eb88                	sd	a0,16(a5)
   10e7c:	ef90                	sd	a2,24(a5)
   10e7e:	00b83423          	sd	a1,8(a6)
   10e82:	e29c                	sd	a5,0(a3)
   10e84:	ed1c                	sd	a5,24(a0)
   10e86:	4028d79b          	sraiw	a5,a7,0x2
   10e8a:	4505                	li	a0,1
   10e8c:	00f51533          	sll	a0,a0,a5
   10e90:	06a5ef63          	bltu	a1,a0,10f0e <_malloc_r+0x1ce>
   10e94:	00b577b3          	and	a5,a0,a1
   10e98:	ef89                	bnez	a5,10eb2 <_malloc_r+0x172>
   10e9a:	0506                	slli	a0,a0,0x1
   10e9c:	ffc8f893          	andi	a7,a7,-4
   10ea0:	00b577b3          	and	a5,a0,a1
   10ea4:	2891                	addiw	a7,a7,4
   10ea6:	e791                	bnez	a5,10eb2 <_malloc_r+0x172>
   10ea8:	0506                	slli	a0,a0,0x1
   10eaa:	00b577b3          	and	a5,a0,a1
   10eae:	2891                	addiw	a7,a7,4
   10eb0:	dfe5                	beqz	a5,10ea8 <_malloc_r+0x168>
   10eb2:	4efd                	li	t4,31
   10eb4:	00189f13          	slli	t5,a7,0x1
   10eb8:	2f09                	addiw	t5,t5,2
   10eba:	0f0e                	slli	t5,t5,0x3
   10ebc:	1f41                	addi	t5,t5,-16
   10ebe:	9f42                	add	t5,t5,a6
   10ec0:	837a                	mv	t1,t5
   10ec2:	01833683          	ld	a3,24(t1)
   10ec6:	8fc6                	mv	t6,a7
   10ec8:	24d30663          	beq	t1,a3,11114 <_malloc_r+0x3d4>
   10ecc:	6690                	ld	a2,8(a3)
   10ece:	87b6                	mv	a5,a3
   10ed0:	6e94                	ld	a3,24(a3)
   10ed2:	9a71                	andi	a2,a2,-4
   10ed4:	40e605b3          	sub	a1,a2,a4
   10ed8:	24bec763          	blt	t4,a1,11126 <_malloc_r+0x3e6>
   10edc:	fe05c6e3          	bltz	a1,10ec8 <_malloc_r+0x188>
   10ee0:	963e                	add	a2,a2,a5
   10ee2:	6618                	ld	a4,8(a2)
   10ee4:	6b8c                	ld	a1,16(a5)
   10ee6:	8522                	mv	a0,s0
   10ee8:	00176713          	ori	a4,a4,1
   10eec:	e618                	sd	a4,8(a2)
   10eee:	ed94                	sd	a3,24(a1)
   10ef0:	ea8c                	sd	a1,16(a3)
   10ef2:	e43e                	sd	a5,8(sp)
   10ef4:	4c4000ef          	jal	113b8 <__malloc_unlock>
   10ef8:	67a2                	ld	a5,8(sp)
   10efa:	01078513          	addi	a0,a5,16
   10efe:	bd45                	j	10dae <_malloc_r+0x6e>
   10f00:	40000513          	li	a0,1024
   10f04:	04000893          	li	a7,64
   10f08:	03f00e13          	li	t3,63
   10f0c:	b5e5                	j	10df4 <_malloc_r+0xb4>
   10f0e:	01083783          	ld	a5,16(a6)
   10f12:	6794                	ld	a3,8(a5)
   10f14:	ffc6f893          	andi	a7,a3,-4
   10f18:	40e88633          	sub	a2,a7,a4
   10f1c:	00e8e663          	bltu	a7,a4,10f28 <_malloc_r+0x1e8>
   10f20:	02062693          	slti	a3,a2,32
   10f24:	12068963          	beqz	a3,11056 <_malloc_r+0x316>
   10f28:	2601b583          	ld	a1,608(gp) # 1b670 <__malloc_top_pad>
   10f2c:	2281b603          	ld	a2,552(gp) # 1b638 <__malloc_sbrk_base>
   10f30:	56fd                	li	a3,-1
   10f32:	95ba                	add	a1,a1,a4
   10f34:	30d60a63          	beq	a2,a3,11248 <_malloc_r+0x508>
   10f38:	6685                	lui	a3,0x1
   10f3a:	06fd                	addi	a3,a3,31 # 101f <exit-0xf101>
   10f3c:	95b6                	add	a1,a1,a3
   10f3e:	76fd                	lui	a3,0xfffff
   10f40:	8df5                	and	a1,a1,a3
   10f42:	8522                	mv	a0,s0
   10f44:	f442                	sd	a6,40(sp)
   10f46:	f03e                	sd	a5,32(sp)
   10f48:	ec3a                	sd	a4,24(sp)
   10f4a:	e846                	sd	a7,16(sp)
   10f4c:	e42e                	sd	a1,8(sp)
   10f4e:	569020ef          	jal	13cb6 <_sbrk_r>
   10f52:	56fd                	li	a3,-1
   10f54:	65a2                	ld	a1,8(sp)
   10f56:	68c2                	ld	a7,16(sp)
   10f58:	6762                	ld	a4,24(sp)
   10f5a:	7782                	ld	a5,32(sp)
   10f5c:	7822                	ld	a6,40(sp)
   10f5e:	832a                	mv	t1,a0
   10f60:	26d50d63          	beq	a0,a3,111da <_malloc_r+0x49a>
   10f64:	011786b3          	add	a3,a5,a7
   10f68:	26d56763          	bltu	a0,a3,111d6 <_malloc_r+0x496>
   10f6c:	4c018e13          	addi	t3,gp,1216 # 1b8d0 <__malloc_current_mallinfo>
   10f70:	000e2603          	lw	a2,0(t3)
   10f74:	9e2d                	addw	a2,a2,a1
   10f76:	00ce2023          	sw	a2,0(t3)
   10f7a:	8532                	mv	a0,a2
   10f7c:	36668563          	beq	a3,t1,112e6 <_malloc_r+0x5a6>
   10f80:	2281bf03          	ld	t5,552(gp) # 1b638 <__malloc_sbrk_base>
   10f84:	567d                	li	a2,-1
   10f86:	36cf0c63          	beq	t5,a2,112fe <_malloc_r+0x5be>
   10f8a:	40d306b3          	sub	a3,t1,a3
   10f8e:	9ea9                	addw	a3,a3,a0
   10f90:	00de2023          	sw	a3,0(t3)
   10f94:	00f37e93          	andi	t4,t1,15
   10f98:	2c0e8463          	beqz	t4,11260 <_malloc_r+0x520>
   10f9c:	ff037313          	andi	t1,t1,-16
   10fa0:	6685                	lui	a3,0x1
   10fa2:	0341                	addi	t1,t1,16
   10fa4:	06c1                	addi	a3,a3,16 # 1010 <exit-0xf110>
   10fa6:	00b30633          	add	a2,t1,a1
   10faa:	41d685b3          	sub	a1,a3,t4
   10fae:	8d91                	sub	a1,a1,a2
   10fb0:	15d2                	slli	a1,a1,0x34
   10fb2:	91d1                	srli	a1,a1,0x34
   10fb4:	8522                	mv	a0,s0
   10fb6:	e0f2                	sd	t3,64(sp)
   10fb8:	fc42                	sd	a6,56(sp)
   10fba:	f83e                	sd	a5,48(sp)
   10fbc:	f43a                	sd	a4,40(sp)
   10fbe:	f046                	sd	a7,32(sp)
   10fc0:	ec1a                	sd	t1,24(sp)
   10fc2:	e876                	sd	t4,16(sp)
   10fc4:	e432                	sd	a2,8(sp)
   10fc6:	e4ae                	sd	a1,72(sp)
   10fc8:	4ef020ef          	jal	13cb6 <_sbrk_r>
   10fcc:	86aa                	mv	a3,a0
   10fce:	557d                	li	a0,-1
   10fd0:	6622                	ld	a2,8(sp)
   10fd2:	6ec2                	ld	t4,16(sp)
   10fd4:	6362                	ld	t1,24(sp)
   10fd6:	7882                	ld	a7,32(sp)
   10fd8:	7722                	ld	a4,40(sp)
   10fda:	77c2                	ld	a5,48(sp)
   10fdc:	7862                	ld	a6,56(sp)
   10fde:	6e06                	ld	t3,64(sp)
   10fe0:	36a68263          	beq	a3,a0,11344 <_malloc_r+0x604>
   10fe4:	65a6                	ld	a1,72(sp)
   10fe6:	0005851b          	sext.w	a0,a1
   10fea:	000e2603          	lw	a2,0(t3)
   10fee:	406686b3          	sub	a3,a3,t1
   10ff2:	96ae                	add	a3,a3,a1
   10ff4:	0016e693          	ori	a3,a3,1
   10ff8:	00683823          	sd	t1,16(a6)
   10ffc:	9e29                	addw	a2,a2,a0
   10ffe:	00d33423          	sd	a3,8(t1)
   11002:	00ce2023          	sw	a2,0(t3)
   11006:	03078763          	beq	a5,a6,11034 <_malloc_r+0x2f4>
   1100a:	457d                	li	a0,31
   1100c:	2f157c63          	bgeu	a0,a7,11304 <_malloc_r+0x5c4>
   11010:	678c                	ld	a1,8(a5)
   11012:	fe888693          	addi	a3,a7,-24
   11016:	9ac1                	andi	a3,a3,-16
   11018:	8985                	andi	a1,a1,1
   1101a:	8dd5                	or	a1,a1,a3
   1101c:	e78c                	sd	a1,8(a5)
   1101e:	48a5                	li	a7,9
   11020:	00d785b3          	add	a1,a5,a3
   11024:	0115b423          	sd	a7,8(a1)
   11028:	0115b823          	sd	a7,16(a1)
   1102c:	32d56663          	bltu	a0,a3,11358 <_malloc_r+0x618>
   11030:	00833683          	ld	a3,8(t1)
   11034:	2581b583          	ld	a1,600(gp) # 1b668 <__malloc_max_sbrked_mem>
   11038:	00c5f463          	bgeu	a1,a2,11040 <_malloc_r+0x300>
   1103c:	24c1bc23          	sd	a2,600(gp) # 1b668 <__malloc_max_sbrked_mem>
   11040:	2501b583          	ld	a1,592(gp) # 1b660 <__malloc_max_total_mem>
   11044:	00c5f463          	bgeu	a1,a2,1104c <_malloc_r+0x30c>
   11048:	24c1b823          	sd	a2,592(gp) # 1b660 <__malloc_max_total_mem>
   1104c:	879a                	mv	a5,t1
   1104e:	aa49                	j	111e0 <_malloc_r+0x4a0>
   11050:	00883583          	ld	a1,8(a6)
   11054:	bd0d                	j	10e86 <_malloc_r+0x146>
   11056:	00176693          	ori	a3,a4,1
   1105a:	e794                	sd	a3,8(a5)
   1105c:	973e                	add	a4,a4,a5
   1105e:	00166613          	ori	a2,a2,1
   11062:	00e83823          	sd	a4,16(a6)
   11066:	8522                	mv	a0,s0
   11068:	e710                	sd	a2,8(a4)
   1106a:	e43e                	sd	a5,8(sp)
   1106c:	34c000ef          	jal	113b8 <__malloc_unlock>
   11070:	67a2                	ld	a5,8(sp)
   11072:	60e6                	ld	ra,88(sp)
   11074:	6446                	ld	s0,80(sp)
   11076:	01078513          	addi	a0,a5,16
   1107a:	6125                	addi	sp,sp,96
   1107c:	8082                	ret
   1107e:	6b90                	ld	a2,16(a5)
   11080:	96be                	add	a3,a3,a5
   11082:	6698                	ld	a4,8(a3)
   11084:	ee0c                	sd	a1,24(a2)
   11086:	e990                	sd	a2,16(a1)
   11088:	00176713          	ori	a4,a4,1
   1108c:	8522                	mv	a0,s0
   1108e:	e698                	sd	a4,8(a3)
   11090:	e43e                	sd	a5,8(sp)
   11092:	326000ef          	jal	113b8 <__malloc_unlock>
   11096:	67a2                	ld	a5,8(sp)
   11098:	60e6                	ld	ra,88(sp)
   1109a:	6446                	ld	s0,80(sp)
   1109c:	01078513          	addi	a0,a5,16
   110a0:	6125                	addi	sp,sp,96
   110a2:	8082                	ret
   110a4:	6e9c                	ld	a5,24(a3)
   110a6:	2889                	addiw	a7,a7,2
   110a8:	d6f68de3          	beq	a3,a5,10e22 <_malloc_r+0xe2>
   110ac:	b9c1                	j	10d7c <_malloc_r+0x3c>
   110ae:	00935693          	srli	a3,t1,0x9
   110b2:	4611                	li	a2,4
   110b4:	10d67763          	bgeu	a2,a3,111c2 <_malloc_r+0x482>
   110b8:	4651                	li	a2,20
   110ba:	1ed66263          	bltu	a2,a3,1129e <_malloc_r+0x55e>
   110be:	00169513          	slli	a0,a3,0x1
   110c2:	0b85051b          	addiw	a0,a0,184
   110c6:	050e                	slli	a0,a0,0x3
   110c8:	05b6861b          	addiw	a2,a3,91
   110cc:	9542                	add	a0,a0,a6
   110ce:	6114                	ld	a3,0(a0)
   110d0:	1541                	addi	a0,a0,-16
   110d2:	00d51663          	bne	a0,a3,110de <_malloc_r+0x39e>
   110d6:	aaa5                	j	1124e <_malloc_r+0x50e>
   110d8:	6a94                	ld	a3,16(a3)
   110da:	00d50663          	beq	a0,a3,110e6 <_malloc_r+0x3a6>
   110de:	6690                	ld	a2,8(a3)
   110e0:	9a71                	andi	a2,a2,-4
   110e2:	fec36be3          	bltu	t1,a2,110d8 <_malloc_r+0x398>
   110e6:	6e88                	ld	a0,24(a3)
   110e8:	ef88                	sd	a0,24(a5)
   110ea:	eb94                	sd	a3,16(a5)
   110ec:	e91c                	sd	a5,16(a0)
   110ee:	ee9c                	sd	a5,24(a3)
   110f0:	bb59                	j	10e86 <_malloc_r+0x146>
   110f2:	46d1                	li	a3,20
   110f4:	10f6f363          	bgeu	a3,a5,111fa <_malloc_r+0x4ba>
   110f8:	05400693          	li	a3,84
   110fc:	1af6ef63          	bltu	a3,a5,112ba <_malloc_r+0x57a>
   11100:	00c75793          	srli	a5,a4,0xc
   11104:	06f7889b          	addiw	a7,a5,111
   11108:	0018951b          	slliw	a0,a7,0x1
   1110c:	06e78e1b          	addiw	t3,a5,110
   11110:	050e                	slli	a0,a0,0x3
   11112:	b1cd                	j	10df4 <_malloc_r+0xb4>
   11114:	2f85                	addiw	t6,t6,1
   11116:	003ff793          	andi	a5,t6,3
   1111a:	0341                	addi	t1,t1,16
   1111c:	0e078c63          	beqz	a5,11214 <_malloc_r+0x4d4>
   11120:	01833683          	ld	a3,24(t1)
   11124:	b355                	j	10ec8 <_malloc_r+0x188>
   11126:	6b88                	ld	a0,16(a5)
   11128:	00176893          	ori	a7,a4,1
   1112c:	0117b423          	sd	a7,8(a5)
   11130:	ed14                	sd	a3,24(a0)
   11132:	ea88                	sd	a0,16(a3)
   11134:	973e                	add	a4,a4,a5
   11136:	02e83423          	sd	a4,40(a6)
   1113a:	02e83023          	sd	a4,32(a6)
   1113e:	0015e693          	ori	a3,a1,1
   11142:	963e                	add	a2,a2,a5
   11144:	01c73c23          	sd	t3,24(a4)
   11148:	01c73823          	sd	t3,16(a4)
   1114c:	e714                	sd	a3,8(a4)
   1114e:	8522                	mv	a0,s0
   11150:	e20c                	sd	a1,0(a2)
   11152:	e43e                	sd	a5,8(sp)
   11154:	264000ef          	jal	113b8 <__malloc_unlock>
   11158:	67a2                	ld	a5,8(sp)
   1115a:	01078513          	addi	a0,a5,16
   1115e:	b981                	j	10dae <_malloc_r+0x6e>
   11160:	00375893          	srli	a7,a4,0x3
   11164:	00189693          	slli	a3,a7,0x1
   11168:	2689                	addiw	a3,a3,2
   1116a:	068e                	slli	a3,a3,0x3
   1116c:	2881                	sext.w	a7,a7
   1116e:	bef5                	j	10d6a <_malloc_r+0x2a>
   11170:	933e                	add	t1,t1,a5
   11172:	00833703          	ld	a4,8(t1)
   11176:	8522                	mv	a0,s0
   11178:	e43e                	sd	a5,8(sp)
   1117a:	00176713          	ori	a4,a4,1
   1117e:	00e33423          	sd	a4,8(t1)
   11182:	236000ef          	jal	113b8 <__malloc_unlock>
   11186:	67a2                	ld	a5,8(sp)
   11188:	01078513          	addi	a0,a5,16
   1118c:	b10d                	j	10dae <_malloc_r+0x6e>
   1118e:	00176613          	ori	a2,a4,1
   11192:	e790                	sd	a2,8(a5)
   11194:	973e                	add	a4,a4,a5
   11196:	02e83423          	sd	a4,40(a6)
   1119a:	02e83023          	sd	a4,32(a6)
   1119e:	0016e613          	ori	a2,a3,1
   111a2:	933e                	add	t1,t1,a5
   111a4:	01c73c23          	sd	t3,24(a4)
   111a8:	01c73823          	sd	t3,16(a4)
   111ac:	e710                	sd	a2,8(a4)
   111ae:	8522                	mv	a0,s0
   111b0:	00d33023          	sd	a3,0(t1)
   111b4:	e43e                	sd	a5,8(sp)
   111b6:	202000ef          	jal	113b8 <__malloc_unlock>
   111ba:	67a2                	ld	a5,8(sp)
   111bc:	01078513          	addi	a0,a5,16
   111c0:	b6fd                	j	10dae <_malloc_r+0x6e>
   111c2:	00635693          	srli	a3,t1,0x6
   111c6:	00169513          	slli	a0,a3,0x1
   111ca:	0725051b          	addiw	a0,a0,114
   111ce:	050e                	slli	a0,a0,0x3
   111d0:	0386861b          	addiw	a2,a3,56
   111d4:	bde5                	j	110cc <_malloc_r+0x38c>
   111d6:	11078063          	beq	a5,a6,112d6 <_malloc_r+0x596>
   111da:	01083783          	ld	a5,16(a6)
   111de:	6794                	ld	a3,8(a5)
   111e0:	9af1                	andi	a3,a3,-4
   111e2:	40e68633          	sub	a2,a3,a4
   111e6:	00e6e663          	bltu	a3,a4,111f2 <_malloc_r+0x4b2>
   111ea:	02062693          	slti	a3,a2,32
   111ee:	e60684e3          	beqz	a3,11056 <_malloc_r+0x316>
   111f2:	8522                	mv	a0,s0
   111f4:	1c4000ef          	jal	113b8 <__malloc_unlock>
   111f8:	be55                	j	10dac <_malloc_r+0x6c>
   111fa:	05c7889b          	addiw	a7,a5,92
   111fe:	0018951b          	slliw	a0,a7,0x1
   11202:	05b78e1b          	addiw	t3,a5,91
   11206:	050e                	slli	a0,a0,0x3
   11208:	b6f5                	j	10df4 <_malloc_r+0xb4>
   1120a:	010f3783          	ld	a5,16(t5)
   1120e:	38fd                	addiw	a7,a7,-1
   11210:	1be79063          	bne	a5,t5,113b0 <_malloc_r+0x670>
   11214:	0038f793          	andi	a5,a7,3
   11218:	1f41                	addi	t5,t5,-16
   1121a:	fbe5                	bnez	a5,1120a <_malloc_r+0x4ca>
   1121c:	00883683          	ld	a3,8(a6)
   11220:	fff54793          	not	a5,a0
   11224:	8ff5                	and	a5,a5,a3
   11226:	00f83423          	sd	a5,8(a6)
   1122a:	0506                	slli	a0,a0,0x1
   1122c:	fff50693          	addi	a3,a0,-1
   11230:	ccf6ffe3          	bgeu	a3,a5,10f0e <_malloc_r+0x1ce>
   11234:	00f576b3          	and	a3,a0,a5
   11238:	e691                	bnez	a3,11244 <_malloc_r+0x504>
   1123a:	0506                	slli	a0,a0,0x1
   1123c:	00f576b3          	and	a3,a0,a5
   11240:	2f91                	addiw	t6,t6,4
   11242:	dee5                	beqz	a3,1123a <_malloc_r+0x4fa>
   11244:	88fe                	mv	a7,t6
   11246:	b1bd                	j	10eb4 <_malloc_r+0x174>
   11248:	02058593          	addi	a1,a1,32
   1124c:	b9dd                	j	10f42 <_malloc_r+0x202>
   1124e:	4026561b          	sraiw	a2,a2,0x2
   11252:	4305                	li	t1,1
   11254:	00c31633          	sll	a2,t1,a2
   11258:	8dd1                	or	a1,a1,a2
   1125a:	00b83423          	sd	a1,8(a6)
   1125e:	b569                	j	110e8 <_malloc_r+0x3a8>
   11260:	00b30633          	add	a2,t1,a1
   11264:	40c005b3          	neg	a1,a2
   11268:	15d2                	slli	a1,a1,0x34
   1126a:	91d1                	srli	a1,a1,0x34
   1126c:	8522                	mv	a0,s0
   1126e:	fc72                	sd	t3,56(sp)
   11270:	f842                	sd	a6,48(sp)
   11272:	f43e                	sd	a5,40(sp)
   11274:	f03a                	sd	a4,32(sp)
   11276:	ec46                	sd	a7,24(sp)
   11278:	e81a                	sd	t1,16(sp)
   1127a:	e432                	sd	a2,8(sp)
   1127c:	e0ae                	sd	a1,64(sp)
   1127e:	239020ef          	jal	13cb6 <_sbrk_r>
   11282:	86aa                	mv	a3,a0
   11284:	557d                	li	a0,-1
   11286:	6342                	ld	t1,16(sp)
   11288:	68e2                	ld	a7,24(sp)
   1128a:	7702                	ld	a4,32(sp)
   1128c:	77a2                	ld	a5,40(sp)
   1128e:	7842                	ld	a6,48(sp)
   11290:	7e62                	ld	t3,56(sp)
   11292:	0aa68f63          	beq	a3,a0,11350 <_malloc_r+0x610>
   11296:	6586                	ld	a1,64(sp)
   11298:	0005851b          	sext.w	a0,a1
   1129c:	b3b9                	j	10fea <_malloc_r+0x2aa>
   1129e:	05400613          	li	a2,84
   112a2:	06d66563          	bltu	a2,a3,1130c <_malloc_r+0x5cc>
   112a6:	00c35693          	srli	a3,t1,0xc
   112aa:	00169513          	slli	a0,a3,0x1
   112ae:	0de5051b          	addiw	a0,a0,222
   112b2:	050e                	slli	a0,a0,0x3
   112b4:	06e6861b          	addiw	a2,a3,110
   112b8:	bd11                	j	110cc <_malloc_r+0x38c>
   112ba:	15400693          	li	a3,340
   112be:	06f6e563          	bltu	a3,a5,11328 <_malloc_r+0x5e8>
   112c2:	00f75793          	srli	a5,a4,0xf
   112c6:	0787889b          	addiw	a7,a5,120
   112ca:	0018951b          	slliw	a0,a7,0x1
   112ce:	07778e1b          	addiw	t3,a5,119
   112d2:	050e                	slli	a0,a0,0x3
   112d4:	b605                	j	10df4 <_malloc_r+0xb4>
   112d6:	4c018e13          	addi	t3,gp,1216 # 1b8d0 <__malloc_current_mallinfo>
   112da:	000e2503          	lw	a0,0(t3)
   112de:	9d2d                	addw	a0,a0,a1
   112e0:	00ae2023          	sw	a0,0(t3)
   112e4:	b971                	j	10f80 <_malloc_r+0x240>
   112e6:	03431f13          	slli	t5,t1,0x34
   112ea:	c80f1be3          	bnez	t5,10f80 <_malloc_r+0x240>
   112ee:	01083303          	ld	t1,16(a6)
   112f2:	95c6                	add	a1,a1,a7
   112f4:	0015e693          	ori	a3,a1,1
   112f8:	00d33423          	sd	a3,8(t1)
   112fc:	bb25                	j	11034 <_malloc_r+0x2f4>
   112fe:	2261b423          	sd	t1,552(gp) # 1b638 <__malloc_sbrk_base>
   11302:	b949                	j	10f94 <_malloc_r+0x254>
   11304:	4785                	li	a5,1
   11306:	00f33423          	sd	a5,8(t1)
   1130a:	b5e5                	j	111f2 <_malloc_r+0x4b2>
   1130c:	15400613          	li	a2,340
   11310:	06d66663          	bltu	a2,a3,1137c <_malloc_r+0x63c>
   11314:	00f35693          	srli	a3,t1,0xf
   11318:	00169513          	slli	a0,a3,0x1
   1131c:	0f05051b          	addiw	a0,a0,240
   11320:	050e                	slli	a0,a0,0x3
   11322:	0776861b          	addiw	a2,a3,119
   11326:	b35d                	j	110cc <_malloc_r+0x38c>
   11328:	55400693          	li	a3,1364
   1132c:	06f6e663          	bltu	a3,a5,11398 <_malloc_r+0x658>
   11330:	01275793          	srli	a5,a4,0x12
   11334:	07d7889b          	addiw	a7,a5,125
   11338:	0018951b          	slliw	a0,a7,0x1
   1133c:	07c78e1b          	addiw	t3,a5,124
   11340:	050e                	slli	a0,a0,0x3
   11342:	bc4d                	j	10df4 <_malloc_r+0xb4>
   11344:	1ec1                	addi	t4,t4,-16
   11346:	01d606b3          	add	a3,a2,t4
   1134a:	4501                	li	a0,0
   1134c:	4581                	li	a1,0
   1134e:	b971                	j	10fea <_malloc_r+0x2aa>
   11350:	66a2                	ld	a3,8(sp)
   11352:	4581                	li	a1,0
   11354:	4501                	li	a0,0
   11356:	b951                	j	10fea <_malloc_r+0x2aa>
   11358:	01078593          	addi	a1,a5,16
   1135c:	8522                	mv	a0,s0
   1135e:	ec72                	sd	t3,24(sp)
   11360:	e842                	sd	a6,16(sp)
   11362:	e43a                	sd	a4,8(sp)
   11364:	fa2ff0ef          	jal	10b06 <_free_r>
   11368:	6842                	ld	a6,16(sp)
   1136a:	6e62                	ld	t3,24(sp)
   1136c:	6722                	ld	a4,8(sp)
   1136e:	01083303          	ld	t1,16(a6)
   11372:	000e2603          	lw	a2,0(t3)
   11376:	00833683          	ld	a3,8(t1)
   1137a:	b96d                	j	11034 <_malloc_r+0x2f4>
   1137c:	55400613          	li	a2,1364
   11380:	02d66363          	bltu	a2,a3,113a6 <_malloc_r+0x666>
   11384:	01235693          	srli	a3,t1,0x12
   11388:	00169513          	slli	a0,a3,0x1
   1138c:	0fa5051b          	addiw	a0,a0,250
   11390:	050e                	slli	a0,a0,0x3
   11392:	07c6861b          	addiw	a2,a3,124
   11396:	bb1d                	j	110cc <_malloc_r+0x38c>
   11398:	7f000513          	li	a0,2032
   1139c:	07f00893          	li	a7,127
   113a0:	07e00e13          	li	t3,126
   113a4:	bc81                	j	10df4 <_malloc_r+0xb4>
   113a6:	7f000513          	li	a0,2032
   113aa:	07e00613          	li	a2,126
   113ae:	bb39                	j	110cc <_malloc_r+0x38c>
   113b0:	00883783          	ld	a5,8(a6)
   113b4:	bd9d                	j	1122a <_malloc_r+0x4ea>

00000000000113b6 <__malloc_lock>:
   113b6:	8082                	ret

00000000000113b8 <__malloc_unlock>:
   113b8:	8082                	ret

00000000000113ba <_vfprintf_r>:
   113ba:	db010113          	addi	sp,sp,-592
   113be:	24113423          	sd	ra,584(sp)
   113c2:	24813023          	sd	s0,576(sp)
   113c6:	22913c23          	sd	s1,568(sp)
   113ca:	21613823          	sd	s6,528(sp)
   113ce:	ec36                	sd	a3,24(sp)
   113d0:	8b32                	mv	s6,a2
   113d2:	84ae                	mv	s1,a1
   113d4:	842a                	mv	s0,a0
   113d6:	e02a                	sd	a0,0(sp)
   113d8:	0d3020ef          	jal	13caa <_localeconv_r>
   113dc:	611c                	ld	a5,0(a0)
   113de:	853e                	mv	a0,a5
   113e0:	e8be                	sd	a5,80(sp)
   113e2:	309020ef          	jal	13eea <strlen>
   113e6:	e4aa                	sd	a0,72(sp)
   113e8:	e982                	sd	zero,208(sp)
   113ea:	ed82                	sd	zero,216(sp)
   113ec:	c409                	beqz	s0,113f6 <_vfprintf_r+0x3c>
   113ee:	643c                	ld	a5,72(s0)
   113f0:	e399                	bnez	a5,113f6 <_vfprintf_r+0x3c>
   113f2:	3780106f          	j	1276a <_vfprintf_r+0x13b0>
   113f6:	01049783          	lh	a5,16(s1)
   113fa:	0ac4a703          	lw	a4,172(s1)
   113fe:	6609                	lui	a2,0x2
   11400:	03279693          	slli	a3,a5,0x32
   11404:	2606c563          	bltz	a3,1166e <_vfprintf_r+0x2b4>
   11408:	76f9                	lui	a3,0xffffe
   1140a:	8fd1                	or	a5,a5,a2
   1140c:	16fd                	addi	a3,a3,-1 # ffffffffffffdfff <__BSS_END__+0xfffffffffffe23ef>
   1140e:	8f75                	and	a4,a4,a3
   11410:	00f49823          	sh	a5,16(s1)
   11414:	0107979b          	slliw	a5,a5,0x10
   11418:	4107d79b          	sraiw	a5,a5,0x10
   1141c:	0ae4a623          	sw	a4,172(s1)
   11420:	0087f713          	andi	a4,a5,8
   11424:	20070363          	beqz	a4,1162a <_vfprintf_r+0x270>
   11428:	6c98                	ld	a4,24(s1)
   1142a:	20070063          	beqz	a4,1162a <_vfprintf_r+0x270>
   1142e:	8be9                	andi	a5,a5,26
   11430:	4729                	li	a4,10
   11432:	20e78763          	beq	a5,a4,11640 <_vfprintf_r+0x286>
   11436:	67e5                	lui	a5,0x19
   11438:	23313423          	sd	s3,552(sp)
   1143c:	23413023          	sd	s4,544(sp)
   11440:	16010993          	addi	s3,sp,352
   11444:	6a65                	lui	s4,0x19
   11446:	41078793          	addi	a5,a5,1040 # 19410 <__clzdi2+0x216>
   1144a:	21713423          	sd	s7,520(sp)
   1144e:	ffe6                	sd	s9,504(sp)
   11450:	23213823          	sd	s2,560(sp)
   11454:	21513c23          	sd	s5,536(sp)
   11458:	21813023          	sd	s8,512(sp)
   1145c:	fbea                	sd	s10,496(sp)
   1145e:	f7ee                	sd	s11,488(sp)
   11460:	f982                	sd	zero,240(sp)
   11462:	d582                	sw	zero,232(sp)
   11464:	f1ce                	sd	s3,224(sp)
   11466:	8bce                	mv	s7,s3
   11468:	f43e                	sd	a5,40(sp)
   1146a:	580a0a13          	addi	s4,s4,1408 # 19580 <zeroes.0>
   1146e:	f802                	sd	zero,48(sp)
   11470:	f482                	sd	zero,104(sp)
   11472:	fc82                	sd	zero,120(sp)
   11474:	e502                	sd	zero,136(sp)
   11476:	f882                	sd	zero,112(sp)
   11478:	e802                	sd	zero,16(sp)
   1147a:	4441                	li	s0,16
   1147c:	8cda                	mv	s9,s6
   1147e:	e426                	sd	s1,8(sp)
   11480:	000cc703          	lbu	a4,0(s9)
   11484:	8966                	mv	s2,s9
   11486:	fdb70793          	addi	a5,a4,-37
   1148a:	0007069b          	sext.w	a3,a4
   1148e:	c7a1                	beqz	a5,114d6 <_vfprintf_r+0x11c>
   11490:	c2b9                	beqz	a3,114d6 <_vfprintf_r+0x11c>
   11492:	8aca                	mv	s5,s2
   11494:	00194703          	lbu	a4,1(s2)
   11498:	0905                	addi	s2,s2,1
   1149a:	0007079b          	sext.w	a5,a4
   1149e:	c701                	beqz	a4,114a6 <_vfprintf_r+0xec>
   114a0:	fdb78793          	addi	a5,a5,-37
   114a4:	f7fd                	bnez	a5,11492 <_vfprintf_r+0xd8>
   114a6:	41990b3b          	subw	s6,s2,s9
   114aa:	020b0663          	beqz	s6,114d6 <_vfprintf_r+0x11c>
   114ae:	774e                	ld	a4,240(sp)
   114b0:	57ae                	lw	a5,232(sp)
   114b2:	019bb023          	sd	s9,0(s7)
   114b6:	975a                	add	a4,a4,s6
   114b8:	2785                	addiw	a5,a5,1
   114ba:	016bb423          	sd	s6,8(s7)
   114be:	f9ba                	sd	a4,240(sp)
   114c0:	d5be                	sw	a5,232(sp)
   114c2:	471d                	li	a4,7
   114c4:	0bc1                	addi	s7,s7,16
   114c6:	18f74a63          	blt	a4,a5,1165a <_vfprintf_r+0x2a0>
   114ca:	67c2                	ld	a5,16(sp)
   114cc:	001ac703          	lbu	a4,1(s5)
   114d0:	016787bb          	addw	a5,a5,s6
   114d4:	e83e                	sd	a5,16(sp)
   114d6:	e319                	bnez	a4,114dc <_vfprintf_r+0x122>
   114d8:	32a0106f          	j	12802 <_vfprintf_r+0x1448>
   114dc:	00194303          	lbu	t1,1(s2)
   114e0:	00190c93          	addi	s9,s2,1
   114e4:	0a0103a3          	sb	zero,167(sp)
   114e8:	5afd                	li	s5,-1
   114ea:	4d01                	li	s10,0
   114ec:	05a00913          	li	s2,90
   114f0:	4481                	li	s1,0
   114f2:	0c85                	addi	s9,s9,1
   114f4:	00030d9b          	sext.w	s11,t1
   114f8:	fe0d879b          	addiw	a5,s11,-32
   114fc:	04f96363          	bltu	s2,a5,11542 <_vfprintf_r+0x188>
   11500:	02079713          	slli	a4,a5,0x20
   11504:	01e75793          	srli	a5,a4,0x1e
   11508:	7722                	ld	a4,40(sp)
   1150a:	97ba                	add	a5,a5,a4
   1150c:	439c                	lw	a5,0(a5)
   1150e:	8782                	jr	a5
   11510:	4d01                	li	s10,0
   11512:	46a5                	li	a3,9
   11514:	002d179b          	slliw	a5,s10,0x2
   11518:	0c85                	addi	s9,s9,1
   1151a:	01a78d3b          	addw	s10,a5,s10
   1151e:	fffcc783          	lbu	a5,-1(s9)
   11522:	fd0d8d9b          	addiw	s11,s11,-48
   11526:	001d1d1b          	slliw	s10,s10,0x1
   1152a:	fd07871b          	addiw	a4,a5,-48
   1152e:	01ad8d3b          	addw	s10,s11,s10
   11532:	00078d9b          	sext.w	s11,a5
   11536:	fce6ffe3          	bgeu	a3,a4,11514 <_vfprintf_r+0x15a>
   1153a:	fe0d879b          	addiw	a5,s11,-32
   1153e:	fcf971e3          	bgeu	s2,a5,11500 <_vfprintf_r+0x146>
   11542:	8e26                	mv	t3,s1
   11544:	000d9463          	bnez	s11,1154c <_vfprintf_r+0x192>
   11548:	2ba0106f          	j	12802 <_vfprintf_r+0x1448>
   1154c:	4885                	li	a7,1
   1154e:	0fb10c23          	sb	s11,248(sp)
   11552:	0a0103a3          	sb	zero,167(sp)
   11556:	8846                	mv	a6,a7
   11558:	f002                	sd	zero,32(sp)
   1155a:	4a81                	li	s5,0
   1155c:	e082                	sd	zero,64(sp)
   1155e:	fc02                	sd	zero,56(sp)
   11560:	4481                	li	s1,0
   11562:	19bc                	addi	a5,sp,248
   11564:	794e                	ld	s2,240(sp)
   11566:	084e7b13          	andi	s6,t3,132
   1156a:	85ca                	mv	a1,s2
   1156c:	720b0263          	beqz	s6,11c90 <_vfprintf_r+0x8d6>
   11570:	0a714703          	lbu	a4,167(sp)
   11574:	c339                	beqz	a4,115ba <_vfprintf_r+0x200>
   11576:	562e                	lw	a2,232(sp)
   11578:	4381                	li	t2,0
   1157a:	0a710713          	addi	a4,sp,167
   1157e:	00ebb023          	sd	a4,0(s7)
   11582:	0905                	addi	s2,s2,1
   11584:	4705                	li	a4,1
   11586:	2605                	addiw	a2,a2,1 # 2001 <exit-0xe11f>
   11588:	00ebb423          	sd	a4,8(s7)
   1158c:	f9ca                	sd	s2,240(sp)
   1158e:	d5b2                	sw	a2,232(sp)
   11590:	471d                	li	a4,7
   11592:	0bc1                	addi	s7,s7,16
   11594:	2cc74f63          	blt	a4,a2,11872 <_vfprintf_r+0x4b8>
   11598:	02038163          	beqz	t2,115ba <_vfprintf_r+0x200>
   1159c:	562e                	lw	a2,232(sp)
   1159e:	1138                	addi	a4,sp,168
   115a0:	00ebb023          	sd	a4,0(s7)
   115a4:	0909                	addi	s2,s2,2
   115a6:	4709                	li	a4,2
   115a8:	2605                	addiw	a2,a2,1
   115aa:	00ebb423          	sd	a4,8(s7)
   115ae:	f9ca                	sd	s2,240(sp)
   115b0:	d5b2                	sw	a2,232(sp)
   115b2:	471d                	li	a4,7
   115b4:	0bc1                	addi	s7,s7,16
   115b6:	32c741e3          	blt	a4,a2,120d8 <_vfprintf_r+0xd1e>
   115ba:	08000713          	li	a4,128
   115be:	12eb0be3          	beq	s6,a4,11ef4 <_vfprintf_r+0xb3a>
   115c2:	411a8abb          	subw	s5,s5,a7
   115c6:	6f504163          	bgtz	s5,11ca8 <_vfprintf_r+0x8ee>
   115ca:	100e7713          	andi	a4,t3,256
   115ce:	78071463          	bnez	a4,11d56 <_vfprintf_r+0x99c>
   115d2:	00fbb023          	sd	a5,0(s7)
   115d6:	57ae                	lw	a5,232(sp)
   115d8:	9946                	add	s2,s2,a7
   115da:	f9ca                	sd	s2,240(sp)
   115dc:	2785                	addiw	a5,a5,1
   115de:	011bb423          	sd	a7,8(s7)
   115e2:	471d                	li	a4,7
   115e4:	d5be                	sw	a5,232(sp)
   115e6:	32f74363          	blt	a4,a5,1190c <_vfprintf_r+0x552>
   115ea:	0bc1                	addi	s7,s7,16
   115ec:	004e7f13          	andi	t5,t3,4
   115f0:	000f0663          	beqz	t5,115fc <_vfprintf_r+0x242>
   115f4:	410d0abb          	subw	s5,s10,a6
   115f8:	315043e3          	bgtz	s5,120fe <_vfprintf_r+0xd44>
   115fc:	87ea                	mv	a5,s10
   115fe:	010d5363          	bge	s10,a6,11604 <_vfprintf_r+0x24a>
   11602:	87c2                	mv	a5,a6
   11604:	6742                	ld	a4,16(sp)
   11606:	9fb9                	addw	a5,a5,a4
   11608:	e83e                	sd	a5,16(sp)
   1160a:	18091fe3          	bnez	s2,11fa8 <_vfprintf_r+0xbee>
   1160e:	7782                	ld	a5,32(sp)
   11610:	d582                	sw	zero,232(sp)
   11612:	c789                	beqz	a5,1161c <_vfprintf_r+0x262>
   11614:	7582                	ld	a1,32(sp)
   11616:	6502                	ld	a0,0(sp)
   11618:	ceeff0ef          	jal	10b06 <_free_r>
   1161c:	8bce                	mv	s7,s3
   1161e:	b58d                	j	11480 <_vfprintf_r+0xc6>
   11620:	000cc303          	lbu	t1,0(s9)
   11624:	0104e493          	ori	s1,s1,16
   11628:	b5e9                	j	114f2 <_vfprintf_r+0x138>
   1162a:	6502                	ld	a0,0(sp)
   1162c:	85a6                	mv	a1,s1
   1162e:	470020ef          	jal	13a9e <__swsetup_r>
   11632:	e131                	bnez	a0,11676 <_vfprintf_r+0x2bc>
   11634:	01049783          	lh	a5,16(s1)
   11638:	4729                	li	a4,10
   1163a:	8be9                	andi	a5,a5,26
   1163c:	dee79de3          	bne	a5,a4,11436 <_vfprintf_r+0x7c>
   11640:	01249783          	lh	a5,18(s1)
   11644:	de07c9e3          	bltz	a5,11436 <_vfprintf_r+0x7c>
   11648:	66e2                	ld	a3,24(sp)
   1164a:	6502                	ld	a0,0(sp)
   1164c:	865a                	mv	a2,s6
   1164e:	85a6                	mv	a1,s1
   11650:	55f010ef          	jal	133ae <__sbprintf>
   11654:	e82a                	sd	a0,16(sp)
   11656:	1970006f          	j	11fec <_vfprintf_r+0xc32>
   1165a:	65a2                	ld	a1,8(sp)
   1165c:	6502                	ld	a0,0(sp)
   1165e:	1190                	addi	a2,sp,224
   11660:	5e1010ef          	jal	13440 <__sprint_r>
   11664:	c119                	beqz	a0,1166a <_vfprintf_r+0x2b0>
   11666:	3030106f          	j	13168 <_vfprintf_r+0x1dae>
   1166a:	8bce                	mv	s7,s3
   1166c:	bdb9                	j	114ca <_vfprintf_r+0x110>
   1166e:	03271693          	slli	a3,a4,0x32
   11672:	da06d7e3          	bgez	a3,11420 <_vfprintf_r+0x66>
   11676:	57fd                	li	a5,-1
   11678:	e83e                	sd	a5,16(sp)
   1167a:	1730006f          	j	11fec <_vfprintf_r+0xc32>
   1167e:	0084f793          	andi	a5,s1,8
   11682:	8e26                	mv	t3,s1
   11684:	62079de3          	bnez	a5,124be <_vfprintf_r+0x1104>
   11688:	f026                	sd	s1,32(sp)
   1168a:	64e2                	ld	s1,24(sp)
   1168c:	2088                	fld	fa0,0(s1)
   1168e:	2a9070ef          	jal	19136 <__extenddftf2>
   11692:	7e02                	ld	t3,32(sp)
   11694:	00848793          	addi	a5,s1,8
   11698:	ec3e                	sd	a5,24(sp)
   1169a:	e9aa                	sd	a0,208(sp)
   1169c:	0988                	addi	a0,sp,208
   1169e:	f072                	sd	t3,32(sp)
   116a0:	edae                	sd	a1,216(sp)
   116a2:	34f020ef          	jal	141f0 <_ldcheck>
   116a6:	d92a                	sw	a0,176(sp)
   116a8:	4789                	li	a5,2
   116aa:	7e02                	ld	t3,32(sp)
   116ac:	00f51463          	bne	a0,a5,116b4 <_vfprintf_r+0x2fa>
   116b0:	1100106f          	j	127c0 <_vfprintf_r+0x1406>
   116b4:	4785                	li	a5,1
   116b6:	00f51463          	bne	a0,a5,116be <_vfprintf_r+0x304>
   116ba:	2160106f          	j	128d0 <_vfprintf_r+0x1516>
   116be:	fdfdf913          	andi	s2,s11,-33
   116c2:	04100793          	li	a5,65
   116c6:	00f90463          	beq	s2,a5,116ce <_vfprintf_r+0x314>
   116ca:	1d40106f          	j	1289e <_vfprintf_r+0x14e4>
   116ce:	03000793          	li	a5,48
   116d2:	0af10423          	sb	a5,168(sp)
   116d6:	06100713          	li	a4,97
   116da:	05800793          	li	a5,88
   116de:	00ed9463          	bne	s11,a4,116e6 <_vfprintf_r+0x32c>
   116e2:	5ce0106f          	j	12cb0 <_vfprintf_r+0x18f6>
   116e6:	0af104a3          	sb	a5,169(sp)
   116ea:	06300793          	li	a5,99
   116ee:	0157d463          	bge	a5,s5,116f6 <_vfprintf_r+0x33c>
   116f2:	5c60106f          	j	12cb8 <_vfprintf_r+0x18fe>
   116f6:	65ee                	ld	a1,216(sp)
   116f8:	654e                	ld	a0,208(sp)
   116fa:	0005d463          	bgez	a1,11702 <_vfprintf_r+0x348>
   116fe:	2570106f          	j	13154 <_vfprintf_r+0x1d9a>
   11702:	ec82                	sd	zero,88(sp)
   11704:	f002                	sd	zero,32(sp)
   11706:	19bc                	addi	a5,sp,248
   11708:	f83e                	sd	a5,48(sp)
   1170a:	1910                	addi	a2,sp,176
   1170c:	002e6793          	ori	a5,t3,2
   11710:	fc3e                	sd	a5,56(sp)
   11712:	073020ef          	jal	13f84 <frexpl>
   11716:	00fff6b7          	lui	a3,0xfff
   1171a:	169a                	slli	a3,a3,0x26
   1171c:	4601                	li	a2,0
   1171e:	2c5060ef          	jal	181e2 <__multf3>
   11722:	4601                	li	a2,0
   11724:	4681                	li	a3,0
   11726:	84aa                	mv	s1,a0
   11728:	892e                	mv	s2,a1
   1172a:	0a5060ef          	jal	17fce <__eqtf2>
   1172e:	77c2                	ld	a5,48(sp)
   11730:	e119                	bnez	a0,11736 <_vfprintf_r+0x37c>
   11732:	4705                	li	a4,1
   11734:	d93a                	sw	a4,176(sp)
   11736:	06100713          	li	a4,97
   1173a:	00ed9463          	bne	s11,a4,11742 <_vfprintf_r+0x388>
   1173e:	3550106f          	j	13292 <_vfprintf_r+0x1ed8>
   11742:	6765                	lui	a4,0x19
   11744:	27070713          	addi	a4,a4,624 # 19270 <__clzdi2+0x76>
   11748:	f83a                	sd	a4,48(sp)
   1174a:	e0de                	sd	s7,64(sp)
   1174c:	f0e6                	sd	s9,96(sp)
   1174e:	7bc2                	ld	s7,48(sp)
   11750:	8b3e                	mv	s6,a5
   11752:	8cbe                	mv	s9,a5
   11754:	a809                	j	11766 <_vfprintf_r+0x3ac>
   11756:	4601                	li	a2,0
   11758:	4681                	li	a3,0
   1175a:	075060ef          	jal	17fce <__eqtf2>
   1175e:	e119                	bnez	a0,11764 <_vfprintf_r+0x3aa>
   11760:	3010106f          	j	13260 <_vfprintf_r+0x1ea6>
   11764:	3afd                	addiw	s5,s5,-1
   11766:	040036b7          	lui	a3,0x4003
   1176a:	1692                	slli	a3,a3,0x24
   1176c:	4601                	li	a2,0
   1176e:	8526                	mv	a0,s1
   11770:	85ca                	mv	a1,s2
   11772:	271060ef          	jal	181e2 <__multf3>
   11776:	84ae                	mv	s1,a1
   11778:	892a                	mv	s2,a0
   1177a:	0dd070ef          	jal	19056 <__fixtfsi>
   1177e:	00050c1b          	sext.w	s8,a0
   11782:	8562                	mv	a0,s8
   11784:	161070ef          	jal	190e4 <__floatsitf>
   11788:	862a                	mv	a2,a0
   1178a:	86ae                	mv	a3,a1
   1178c:	854a                	mv	a0,s2
   1178e:	85a6                	mv	a1,s1
   11790:	066070ef          	jal	187f6 <__subtf3>
   11794:	018b86b3          	add	a3,s7,s8
   11798:	0006c683          	lbu	a3,0(a3) # 4003000 <__BSS_END__+0x3fe73f0>
   1179c:	865a                	mv	a2,s6
   1179e:	84aa                	mv	s1,a0
   117a0:	00db0023          	sb	a3,0(s6)
   117a4:	0b05                	addi	s6,s6,1
   117a6:	892e                	mv	s2,a1
   117a8:	fa0a97e3          	bnez	s5,11756 <_vfprintf_r+0x39c>
   117ac:	01fff6b7          	lui	a3,0x1fff
   117b0:	875a                	mv	a4,s6
   117b2:	84b2                	mv	s1,a2
   117b4:	1696                	slli	a3,a3,0x25
   117b6:	4601                	li	a2,0
   117b8:	6b86                	ld	s7,64(sp)
   117ba:	8b62                	mv	s6,s8
   117bc:	e0e6                	sd	s9,64(sp)
   117be:	8aaa                	mv	s5,a0
   117c0:	8c3a                	mv	s8,a4
   117c2:	0b5060ef          	jal	18076 <__getf2>
   117c6:	7c86                	ld	s9,96(sp)
   117c8:	6786                	ld	a5,64(sp)
   117ca:	00a04f63          	bgtz	a0,117e8 <_vfprintf_r+0x42e>
   117ce:	01fff6b7          	lui	a3,0x1fff
   117d2:	8556                	mv	a0,s5
   117d4:	85ca                	mv	a1,s2
   117d6:	1696                	slli	a3,a3,0x25
   117d8:	4601                	li	a2,0
   117da:	7f4060ef          	jal	17fce <__eqtf2>
   117de:	6786                	ld	a5,64(sp)
   117e0:	e521                	bnez	a0,11828 <_vfprintf_r+0x46e>
   117e2:	001b7713          	andi	a4,s6,1
   117e6:	c329                	beqz	a4,11828 <_vfprintf_r+0x46e>
   117e8:	7742                	ld	a4,48(sp)
   117ea:	e5a6                	sd	s1,200(sp)
   117ec:	fffc4683          	lbu	a3,-1(s8)
   117f0:	00f74603          	lbu	a2,15(a4)
   117f4:	8762                	mv	a4,s8
   117f6:	00d61e63          	bne	a2,a3,11812 <_vfprintf_r+0x458>
   117fa:	03000593          	li	a1,48
   117fe:	feb70fa3          	sb	a1,-1(a4)
   11802:	672e                	ld	a4,200(sp)
   11804:	fff70693          	addi	a3,a4,-1
   11808:	e5b6                	sd	a3,200(sp)
   1180a:	fff74683          	lbu	a3,-1(a4)
   1180e:	fec688e3          	beq	a3,a2,117fe <_vfprintf_r+0x444>
   11812:	03900613          	li	a2,57
   11816:	00c69463          	bne	a3,a2,1181e <_vfprintf_r+0x464>
   1181a:	32b0106f          	j	13344 <_vfprintf_r+0x1f8a>
   1181e:	2685                	addiw	a3,a3,1 # 1fff001 <__BSS_END__+0x1fe33f1>
   11820:	0ff6f693          	zext.b	a3,a3
   11824:	fed70fa3          	sb	a3,-1(a4)
   11828:	56ca                	lw	a3,176(sp)
   1182a:	00fd871b          	addiw	a4,s11,15
   1182e:	0ae10c23          	sb	a4,184(sp)
   11832:	40fc063b          	subw	a2,s8,a5
   11836:	fff6871b          	addiw	a4,a3,-1
   1183a:	d93a                	sw	a4,176(sp)
   1183c:	f832                	sd	a2,48(sp)
   1183e:	00075463          	bgez	a4,11846 <_vfprintf_r+0x48c>
   11842:	2c10106f          	j	13302 <_vfprintf_r+0x1f48>
   11846:	02b00693          	li	a3,43
   1184a:	0ad10ca3          	sb	a3,185(sp)
   1184e:	46a5                	li	a3,9
   11850:	00e6d463          	bge	a3,a4,11858 <_vfprintf_r+0x49e>
   11854:	52a0106f          	j	12d7e <_vfprintf_r+0x19c4>
   11858:	0ba10693          	addi	a3,sp,186
   1185c:	0307071b          	addiw	a4,a4,48
   11860:	00e68023          	sb	a4,0(a3)
   11864:	1398                	addi	a4,sp,480
   11866:	8e99                	sub	a3,a3,a4
   11868:	1296871b          	addiw	a4,a3,297
   1186c:	f4ba                	sd	a4,104(sp)
   1186e:	5800106f          	j	12dee <_vfprintf_r+0x1a34>
   11872:	65a2                	ld	a1,8(sp)
   11874:	6502                	ld	a0,0(sp)
   11876:	1190                	addi	a2,sp,224
   11878:	ed46                	sd	a7,152(sp)
   1187a:	e942                	sd	a6,144(sp)
   1187c:	e172                	sd	t3,128(sp)
   1187e:	f0be                	sd	a5,96(sp)
   11880:	ec9e                	sd	t2,88(sp)
   11882:	3bf010ef          	jal	13440 <__sprint_r>
   11886:	72051863          	bnez	a0,11fb6 <_vfprintf_r+0xbfc>
   1188a:	794e                	ld	s2,240(sp)
   1188c:	68ea                	ld	a7,152(sp)
   1188e:	684a                	ld	a6,144(sp)
   11890:	6e0a                	ld	t3,128(sp)
   11892:	7786                	ld	a5,96(sp)
   11894:	63e6                	ld	t2,88(sp)
   11896:	8bce                	mv	s7,s3
   11898:	b301                	j	11598 <_vfprintf_r+0x1de>
   1189a:	572e                	lw	a4,232(sp)
   1189c:	66e5                	lui	a3,0x19
   1189e:	29068693          	addi	a3,a3,656 # 19290 <__clzdi2+0x96>
   118a2:	00dbb023          	sd	a3,0(s7)
   118a6:	0905                	addi	s2,s2,1
   118a8:	4685                	li	a3,1
   118aa:	2705                	addiw	a4,a4,1
   118ac:	00dbb423          	sd	a3,8(s7)
   118b0:	f9ca                	sd	s2,240(sp)
   118b2:	d5ba                	sw	a4,232(sp)
   118b4:	469d                	li	a3,7
   118b6:	0bc1                	addi	s7,s7,16
   118b8:	00e6d463          	bge	a3,a4,118c0 <_vfprintf_r+0x506>
   118bc:	5ce0106f          	j	12e8a <_vfprintf_r+0x1ad0>
   118c0:	7742                	ld	a4,48(sp)
   118c2:	8f51                	or	a4,a4,a2
   118c4:	e319                	bnez	a4,118ca <_vfprintf_r+0x510>
   118c6:	2260106f          	j	12aec <_vfprintf_r+0x1732>
   118ca:	66a6                	ld	a3,72(sp)
   118cc:	572e                	lw	a4,232(sp)
   118ce:	65c6                	ld	a1,80(sp)
   118d0:	9936                	add	s2,s2,a3
   118d2:	2705                	addiw	a4,a4,1
   118d4:	00dbb423          	sd	a3,8(s7)
   118d8:	00bbb023          	sd	a1,0(s7)
   118dc:	f9ca                	sd	s2,240(sp)
   118de:	d5ba                	sw	a4,232(sp)
   118e0:	469d                	li	a3,7
   118e2:	0bc1                	addi	s7,s7,16
   118e4:	00e6d463          	bge	a3,a4,118ec <_vfprintf_r+0x532>
   118e8:	22a0106f          	j	12b12 <_vfprintf_r+0x1758>
   118ec:	00065463          	bgez	a2,118f4 <_vfprintf_r+0x53a>
   118f0:	74c0106f          	j	1303c <_vfprintf_r+0x1c82>
   118f4:	76c2                	ld	a3,48(sp)
   118f6:	2705                	addiw	a4,a4,1
   118f8:	00fbb023          	sd	a5,0(s7)
   118fc:	9936                	add	s2,s2,a3
   118fe:	f9ca                	sd	s2,240(sp)
   11900:	d5ba                	sw	a4,232(sp)
   11902:	00dbb423          	sd	a3,8(s7)
   11906:	479d                	li	a5,7
   11908:	cee7d1e3          	bge	a5,a4,115ea <_vfprintf_r+0x230>
   1190c:	65a2                	ld	a1,8(sp)
   1190e:	6502                	ld	a0,0(sp)
   11910:	1190                	addi	a2,sp,224
   11912:	e0c2                	sd	a6,64(sp)
   11914:	fc72                	sd	t3,56(sp)
   11916:	32b010ef          	jal	13440 <__sprint_r>
   1191a:	68051e63          	bnez	a0,11fb6 <_vfprintf_r+0xbfc>
   1191e:	794e                	ld	s2,240(sp)
   11920:	7e62                	ld	t3,56(sp)
   11922:	6806                	ld	a6,64(sp)
   11924:	8bce                	mv	s7,s3
   11926:	b1d9                	j	115ec <_vfprintf_r+0x232>
   11928:	6762                	ld	a4,24(sp)
   1192a:	8e26                	mv	t3,s1
   1192c:	4885                	li	a7,1
   1192e:	431c                	lw	a5,0(a4)
   11930:	0a0103a3          	sb	zero,167(sp)
   11934:	0ef10c23          	sb	a5,248(sp)
   11938:	00870793          	addi	a5,a4,8
   1193c:	ec3e                	sd	a5,24(sp)
   1193e:	b921                	j	11556 <_vfprintf_r+0x19c>
   11940:	6762                	ld	a4,24(sp)
   11942:	0a0103a3          	sb	zero,167(sp)
   11946:	8e26                	mv	t3,s1
   11948:	631c                	ld	a5,0(a4)
   1194a:	00870493          	addi	s1,a4,8
   1194e:	4a078de3          	beqz	a5,12608 <_vfprintf_r+0x124e>
   11952:	6c0ac3e3          	bltz	s5,12818 <_vfprintf_r+0x145e>
   11956:	853e                	mv	a0,a5
   11958:	8656                	mv	a2,s5
   1195a:	4581                	li	a1,0
   1195c:	fc72                	sd	t3,56(sp)
   1195e:	ec3e                	sd	a5,24(sp)
   11960:	22e020ef          	jal	13b8e <memchr>
   11964:	f02a                	sd	a0,32(sp)
   11966:	0a714703          	lbu	a4,167(sp)
   1196a:	67e2                	ld	a5,24(sp)
   1196c:	7e62                	ld	t3,56(sp)
   1196e:	e119                	bnez	a0,11974 <_vfprintf_r+0x5ba>
   11970:	60c0106f          	j	12f7c <_vfprintf_r+0x1bc2>
   11974:	40f508bb          	subw	a7,a0,a5
   11978:	86c6                	mv	a3,a7
   1197a:	0008d463          	bgez	a7,11982 <_vfprintf_r+0x5c8>
   1197e:	2240106f          	j	12ba2 <_vfprintf_r+0x17e8>
   11982:	0006881b          	sext.w	a6,a3
   11986:	c319                	beqz	a4,1198c <_vfprintf_r+0x5d2>
   11988:	0016881b          	addiw	a6,a3,1
   1198c:	ec26                	sd	s1,24(sp)
   1198e:	48f0006f          	j	1261c <_vfprintf_r+0x1262>
   11992:	6762                	ld	a4,24(sp)
   11994:	0204f793          	andi	a5,s1,32
   11998:	8e26                	mv	t3,s1
   1199a:	0721                	addi	a4,a4,8
   1199c:	e7c9                	bnez	a5,11a26 <_vfprintf_r+0x66c>
   1199e:	0104f793          	andi	a5,s1,16
   119a2:	c399                	beqz	a5,119a8 <_vfprintf_r+0x5ee>
   119a4:	6f00106f          	j	13094 <_vfprintf_r+0x1cda>
   119a8:	66e2                	ld	a3,24(sp)
   119aa:	0404f793          	andi	a5,s1,64
   119ae:	0006a903          	lw	s2,0(a3)
   119b2:	6a0780e3          	beqz	a5,12852 <_vfprintf_r+0x1498>
   119b6:	0109191b          	slliw	s2,s2,0x10
   119ba:	4109591b          	sraiw	s2,s2,0x10
   119be:	ec3a                	sd	a4,24(sp)
   119c0:	87ca                	mv	a5,s2
   119c2:	0607c863          	bltz	a5,11a32 <_vfprintf_r+0x678>
   119c6:	080ac063          	bltz	s5,11a46 <_vfprintf_r+0x68c>
   119ca:	f7fe7e13          	andi	t3,t3,-129
   119ce:	06091c63          	bnez	s2,11a46 <_vfprintf_r+0x68c>
   119d2:	060a9a63          	bnez	s5,11a46 <_vfprintf_r+0x68c>
   119d6:	0a714503          	lbu	a0,167(sp)
   119da:	6a0509e3          	beqz	a0,1288c <_vfprintf_r+0x14d2>
   119de:	4801                	li	a6,0
   119e0:	4481                	li	s1,0
   119e2:	f002                	sd	zero,32(sp)
   119e4:	4881                	li	a7,0
   119e6:	4a81                	li	s5,0
   119e8:	0afc                	addi	a5,sp,348
   119ea:	2805                	addiw	a6,a6,1
   119ec:	e099                	bnez	s1,119f2 <_vfprintf_r+0x638>
   119ee:	1790106f          	j	13366 <_vfprintf_r+0x1fac>
   119f2:	794e                	ld	s2,240(sp)
   119f4:	562e                	lw	a2,232(sp)
   119f6:	084e7b13          	andi	s6,t3,132
   119fa:	2809                	addiw	a6,a6,2
   119fc:	85ca                	mv	a1,s2
   119fe:	86b2                	mv	a3,a2
   11a00:	600b0263          	beqz	s6,12004 <_vfprintf_r+0xc4a>
   11a04:	e082                	sd	zero,64(sp)
   11a06:	fc02                	sd	zero,56(sp)
   11a08:	4481                	li	s1,0
   11a0a:	b8050ae3          	beqz	a0,1159e <_vfprintf_r+0x1e4>
   11a0e:	4389                	li	t2,2
   11a10:	b6ad                	j	1157a <_vfprintf_r+0x1c0>
   11a12:	0204f793          	andi	a5,s1,32
   11a16:	0104ef13          	ori	t5,s1,16
   11a1a:	24078ae3          	beqz	a5,1246e <_vfprintf_r+0x10b4>
   11a1e:	67e2                	ld	a5,24(sp)
   11a20:	8e7a                	mv	t3,t5
   11a22:	00878713          	addi	a4,a5,8
   11a26:	67e2                	ld	a5,24(sp)
   11a28:	ec3a                	sd	a4,24(sp)
   11a2a:	639c                	ld	a5,0(a5)
   11a2c:	893e                	mv	s2,a5
   11a2e:	f807dce3          	bgez	a5,119c6 <_vfprintf_r+0x60c>
   11a32:	02d00793          	li	a5,45
   11a36:	0af103a3          	sb	a5,167(sp)
   11a3a:	41200933          	neg	s2,s2
   11a3e:	000ac463          	bltz	s5,11a46 <_vfprintf_r+0x68c>
   11a42:	f7fe7e13          	andi	t3,t3,-129
   11a46:	4c25                	li	s8,9
   11a48:	112c6463          	bltu	s8,s2,11b50 <_vfprintf_r+0x796>
   11a4c:	0309091b          	addiw	s2,s2,48
   11a50:	15210da3          	sb	s2,347(sp)
   11a54:	000a881b          	sext.w	a6,s5
   11a58:	27505de3          	blez	s5,124d2 <_vfprintf_r+0x1118>
   11a5c:	0a714503          	lbu	a0,167(sp)
   11a60:	4481                	li	s1,0
   11a62:	4885                	li	a7,1
   11a64:	15b10793          	addi	a5,sp,347
   11a68:	f002                	sd	zero,32(sp)
   11a6a:	d149                	beqz	a0,119ec <_vfprintf_r+0x632>
   11a6c:	2805                	addiw	a6,a6,1
   11a6e:	bfbd                	j	119ec <_vfprintf_r+0x632>
   11a70:	67e2                	ld	a5,24(sp)
   11a72:	0007ad03          	lw	s10,0(a5)
   11a76:	1a0d52e3          	bgez	s10,1241a <_vfprintf_r+0x1060>
   11a7a:	67e2                	ld	a5,24(sp)
   11a7c:	41a00d3b          	negw	s10,s10
   11a80:	07a1                	addi	a5,a5,8
   11a82:	ec3e                	sd	a5,24(sp)
   11a84:	000cc303          	lbu	t1,0(s9)
   11a88:	0044e493          	ori	s1,s1,4
   11a8c:	b49d                	j	114f2 <_vfprintf_r+0x138>
   11a8e:	02b00793          	li	a5,43
   11a92:	000cc303          	lbu	t1,0(s9)
   11a96:	0af103a3          	sb	a5,167(sp)
   11a9a:	bca1                	j	114f2 <_vfprintf_r+0x138>
   11a9c:	000cc303          	lbu	t1,0(s9)
   11aa0:	0804e493          	ori	s1,s1,128
   11aa4:	b4b9                	j	114f2 <_vfprintf_r+0x138>
   11aa6:	000ccd83          	lbu	s11,0(s9)
   11aaa:	02a00793          	li	a5,42
   11aae:	001c8613          	addi	a2,s9,1
   11ab2:	00fd9463          	bne	s11,a5,11aba <_vfprintf_r+0x700>
   11ab6:	7e80106f          	j	1329e <_vfprintf_r+0x1ee4>
   11aba:	fd0d871b          	addiw	a4,s11,-48
   11abe:	45a5                	li	a1,9
   11ac0:	4681                	li	a3,0
   11ac2:	8cb2                	mv	s9,a2
   11ac4:	4a81                	li	s5,0
   11ac6:	a2e5e9e3          	bltu	a1,a4,114f8 <_vfprintf_r+0x13e>
   11aca:	0026979b          	slliw	a5,a3,0x2
   11ace:	00064d83          	lbu	s11,0(a2)
   11ad2:	9fb5                	addw	a5,a5,a3
   11ad4:	0017979b          	slliw	a5,a5,0x1
   11ad8:	00e786bb          	addw	a3,a5,a4
   11adc:	fd0d871b          	addiw	a4,s11,-48
   11ae0:	0605                	addi	a2,a2,1
   11ae2:	fee5f4e3          	bgeu	a1,a4,11aca <_vfprintf_r+0x710>
   11ae6:	00068a9b          	sext.w	s5,a3
   11aea:	2806c8e3          	bltz	a3,1257a <_vfprintf_r+0x11c0>
   11aee:	8cb2                	mv	s9,a2
   11af0:	b421                	j	114f8 <_vfprintf_r+0x13e>
   11af2:	0204f793          	andi	a5,s1,32
   11af6:	0104ef13          	ori	t5,s1,16
   11afa:	eb8d                	bnez	a5,11b2c <_vfprintf_r+0x772>
   11afc:	6762                	ld	a4,24(sp)
   11afe:	0a0103a3          	sb	zero,167(sp)
   11b02:	00073903          	ld	s2,0(a4)
   11b06:	00870793          	addi	a5,a4,8
   11b0a:	1c0acde3          	bltz	s5,124e4 <_vfprintf_r+0x112a>
   11b0e:	ec3e                	sd	a5,24(sp)
   11b10:	f7ff7e13          	andi	t3,t5,-129
   11b14:	f20919e3          	bnez	s2,11a46 <_vfprintf_r+0x68c>
   11b18:	f20a97e3          	bnez	s5,11a46 <_vfprintf_r+0x68c>
   11b1c:	4481                	li	s1,0
   11b1e:	ae81                	j	11e6e <_vfprintf_r+0xab4>
   11b20:	0204f793          	andi	a5,s1,32
   11b24:	8e26                	mv	t3,s1
   11b26:	14078ee3          	beqz	a5,12482 <_vfprintf_r+0x10c8>
   11b2a:	8f26                	mv	t5,s1
   11b2c:	6762                	ld	a4,24(sp)
   11b2e:	0a0103a3          	sb	zero,167(sp)
   11b32:	00073903          	ld	s2,0(a4)
   11b36:	00870793          	addi	a5,a4,8
   11b3a:	1a0ac5e3          	bltz	s5,124e4 <_vfprintf_r+0x112a>
   11b3e:	ec3e                	sd	a5,24(sp)
   11b40:	f7ff7e13          	andi	t3,t5,-129
   11b44:	f00a91e3          	bnez	s5,11a46 <_vfprintf_r+0x68c>
   11b48:	ee091fe3          	bnez	s2,11a46 <_vfprintf_r+0x68c>
   11b4c:	4481                	li	s1,0
   11b4e:	a605                	j	11e6e <_vfprintf_r+0xab4>
   11b50:	ccccd7b7          	lui	a5,0xccccd
   11b54:	ccd78793          	addi	a5,a5,-819 # ffffffffcccccccd <__BSS_END__+0xffffffffcccb10bd>
   11b58:	02079b13          	slli	s6,a5,0x20
   11b5c:	15c10893          	addi	a7,sp,348
   11b60:	74e6                	ld	s1,120(sp)
   11b62:	9b3e                	add	s6,s6,a5
   11b64:	8646                	mv	a2,a7
   11b66:	4581                	li	a1,0
   11b68:	400e7813          	andi	a6,t3,1024
   11b6c:	a809                	j	11b7e <_vfprintf_r+0x7c4>
   11b6e:	874a                	mv	a4,s2
   11b70:	03693933          	mulhu	s2,s2,s6
   11b74:	863e                	mv	a2,a5
   11b76:	00395913          	srli	s2,s2,0x3
   11b7a:	02ec7f63          	bgeu	s8,a4,11bb8 <_vfprintf_r+0x7fe>
   11b7e:	036936b3          	mulhu	a3,s2,s6
   11b82:	2585                	addiw	a1,a1,1
   11b84:	fff60793          	addi	a5,a2,-1
   11b88:	828d                	srli	a3,a3,0x3
   11b8a:	00269713          	slli	a4,a3,0x2
   11b8e:	9736                	add	a4,a4,a3
   11b90:	0706                	slli	a4,a4,0x1
   11b92:	40e90733          	sub	a4,s2,a4
   11b96:	0307071b          	addiw	a4,a4,48
   11b9a:	fee60fa3          	sb	a4,-1(a2)
   11b9e:	fc0808e3          	beqz	a6,11b6e <_vfprintf_r+0x7b4>
   11ba2:	0004c703          	lbu	a4,0(s1)
   11ba6:	f0170693          	addi	a3,a4,-255
   11baa:	d2f1                	beqz	a3,11b6e <_vfprintf_r+0x7b4>
   11bac:	fcb711e3          	bne	a4,a1,11b6e <_vfprintf_r+0x7b4>
   11bb0:	012c7463          	bgeu	s8,s2,11bb8 <_vfprintf_r+0x7fe>
   11bb4:	3e80106f          	j	12f9c <_vfprintf_r+0x1be2>
   11bb8:	fca6                	sd	s1,120(sp)
   11bba:	f82e                	sd	a1,48(sp)
   11bbc:	40f888bb          	subw	a7,a7,a5
   11bc0:	000a881b          	sext.w	a6,s5
   11bc4:	011ad463          	bge	s5,a7,11bcc <_vfprintf_r+0x812>
   11bc8:	0008881b          	sext.w	a6,a7
   11bcc:	0a714503          	lbu	a0,167(sp)
   11bd0:	4481                	li	s1,0
   11bd2:	f002                	sd	zero,32(sp)
   11bd4:	bd59                	j	11a6a <_vfprintf_r+0x6b0>
   11bd6:	6b02                	ld	s6,0(sp)
   11bd8:	855a                	mv	a0,s6
   11bda:	0d0020ef          	jal	13caa <_localeconv_r>
   11bde:	651c                	ld	a5,8(a0)
   11be0:	853e                	mv	a0,a5
   11be2:	f8be                	sd	a5,112(sp)
   11be4:	306020ef          	jal	13eea <strlen>
   11be8:	87aa                	mv	a5,a0
   11bea:	855a                	mv	a0,s6
   11bec:	e53e                	sd	a5,136(sp)
   11bee:	8b3e                	mv	s6,a5
   11bf0:	0ba020ef          	jal	13caa <_localeconv_r>
   11bf4:	6918                	ld	a4,16(a0)
   11bf6:	000cc303          	lbu	t1,0(s9)
   11bfa:	fcba                	sd	a4,120(sp)
   11bfc:	8e0b0be3          	beqz	s6,114f2 <_vfprintf_r+0x138>
   11c00:	8e0709e3          	beqz	a4,114f2 <_vfprintf_r+0x138>
   11c04:	00074783          	lbu	a5,0(a4)
   11c08:	8e0785e3          	beqz	a5,114f2 <_vfprintf_r+0x138>
   11c0c:	4004e493          	ori	s1,s1,1024
   11c10:	b0cd                	j	114f2 <_vfprintf_r+0x138>
   11c12:	000cc303          	lbu	t1,0(s9)
   11c16:	0014e493          	ori	s1,s1,1
   11c1a:	b8e1                	j	114f2 <_vfprintf_r+0x138>
   11c1c:	0a714783          	lbu	a5,167(sp)
   11c20:	000cc303          	lbu	t1,0(s9)
   11c24:	8c0797e3          	bnez	a5,114f2 <_vfprintf_r+0x138>
   11c28:	02000793          	li	a5,32
   11c2c:	0af103a3          	sb	a5,167(sp)
   11c30:	b0c9                	j	114f2 <_vfprintf_r+0x138>
   11c32:	000cc303          	lbu	t1,0(s9)
   11c36:	0084e493          	ori	s1,s1,8
   11c3a:	b865                	j	114f2 <_vfprintf_r+0x138>
   11c3c:	67e2                	ld	a5,24(sp)
   11c3e:	0104e813          	ori	a6,s1,16
   11c42:	00878713          	addi	a4,a5,8
   11c46:	67e2                	ld	a5,24(sp)
   11c48:	6394                	ld	a3,0(a5)
   11c4a:	ec3a                	sd	a4,24(sp)
   11c4c:	0a0103a3          	sb	zero,167(sp)
   11c50:	bff87e13          	andi	t3,a6,-1025
   11c54:	520ac663          	bltz	s5,12180 <_vfprintf_r+0xdc6>
   11c58:	b7f87e13          	andi	t3,a6,-1153
   11c5c:	520a9263          	bnez	s5,12180 <_vfprintf_r+0xdc6>
   11c60:	52069063          	bnez	a3,12180 <_vfprintf_r+0xdc6>
   11c64:	00187813          	andi	a6,a6,1
   11c68:	70080463          	beqz	a6,12370 <_vfprintf_r+0xfb6>
   11c6c:	794e                	ld	s2,240(sp)
   11c6e:	03000793          	li	a5,48
   11c72:	14f10da3          	sb	a5,347(sp)
   11c76:	f002                	sd	zero,32(sp)
   11c78:	e082                	sd	zero,64(sp)
   11c7a:	fc02                	sd	zero,56(sp)
   11c7c:	084e7b13          	andi	s6,t3,132
   11c80:	88c2                	mv	a7,a6
   11c82:	4a81                	li	s5,0
   11c84:	4481                	li	s1,0
   11c86:	15b10793          	addi	a5,sp,347
   11c8a:	85ca                	mv	a1,s2
   11c8c:	8e0b12e3          	bnez	s6,11570 <_vfprintf_r+0x1b6>
   11c90:	410d073b          	subw	a4,s10,a6
   11c94:	6ce04a63          	bgtz	a4,12368 <_vfprintf_r+0xfae>
   11c98:	0a714703          	lbu	a4,167(sp)
   11c9c:	8c071de3          	bnez	a4,11576 <_vfprintf_r+0x1bc>
   11ca0:	411a8abb          	subw	s5,s5,a7
   11ca4:	935053e3          	blez	s5,115ca <_vfprintf_r+0x210>
   11ca8:	66e5                	lui	a3,0x19
   11caa:	562e                	lw	a2,232(sp)
   11cac:	58068693          	addi	a3,a3,1408 # 19580 <zeroes.0>
   11cb0:	07545263          	bge	s0,s5,11d14 <_vfprintf_r+0x95a>
   11cb4:	85a6                	mv	a1,s1
   11cb6:	ecbe                	sd	a5,88(sp)
   11cb8:	84d6                	mv	s1,s5
   11cba:	87de                	mv	a5,s7
   11cbc:	874a                	mv	a4,s2
   11cbe:	4b1d                	li	s6,7
   11cc0:	8c72                	mv	s8,t3
   11cc2:	f0c2                	sd	a6,96(sp)
   11cc4:	8946                	mv	s2,a7
   11cc6:	8bd2                	mv	s7,s4
   11cc8:	8aae                	mv	s5,a1
   11cca:	a021                	j	11cd2 <_vfprintf_r+0x918>
   11ccc:	34c1                	addiw	s1,s1,-16
   11cce:	02945963          	bge	s0,s1,11d00 <_vfprintf_r+0x946>
   11cd2:	0741                	addi	a4,a4,16
   11cd4:	2605                	addiw	a2,a2,1
   11cd6:	0147b023          	sd	s4,0(a5)
   11cda:	e780                	sd	s0,8(a5)
   11cdc:	f9ba                	sd	a4,240(sp)
   11cde:	d5b2                	sw	a2,232(sp)
   11ce0:	07c1                	addi	a5,a5,16
   11ce2:	fecb55e3          	bge	s6,a2,11ccc <_vfprintf_r+0x912>
   11ce6:	65a2                	ld	a1,8(sp)
   11ce8:	6502                	ld	a0,0(sp)
   11cea:	1190                	addi	a2,sp,224
   11cec:	754010ef          	jal	13440 <__sprint_r>
   11cf0:	2c051363          	bnez	a0,11fb6 <_vfprintf_r+0xbfc>
   11cf4:	34c1                	addiw	s1,s1,-16
   11cf6:	774e                	ld	a4,240(sp)
   11cf8:	562e                	lw	a2,232(sp)
   11cfa:	87ce                	mv	a5,s3
   11cfc:	fc944be3          	blt	s0,s1,11cd2 <_vfprintf_r+0x918>
   11d00:	86de                	mv	a3,s7
   11d02:	7806                	ld	a6,96(sp)
   11d04:	8bbe                	mv	s7,a5
   11d06:	67e6                	ld	a5,88(sp)
   11d08:	85d6                	mv	a1,s5
   11d0a:	88ca                	mv	a7,s2
   11d0c:	8aa6                	mv	s5,s1
   11d0e:	8e62                	mv	t3,s8
   11d10:	893a                	mv	s2,a4
   11d12:	84ae                	mv	s1,a1
   11d14:	9956                	add	s2,s2,s5
   11d16:	2605                	addiw	a2,a2,1
   11d18:	00dbb023          	sd	a3,0(s7)
   11d1c:	015bb423          	sd	s5,8(s7)
   11d20:	f9ca                	sd	s2,240(sp)
   11d22:	d5b2                	sw	a2,232(sp)
   11d24:	471d                	li	a4,7
   11d26:	0bc1                	addi	s7,s7,16
   11d28:	8ac751e3          	bge	a4,a2,115ca <_vfprintf_r+0x210>
   11d2c:	65a2                	ld	a1,8(sp)
   11d2e:	6502                	ld	a0,0(sp)
   11d30:	1190                	addi	a2,sp,224
   11d32:	e946                	sd	a7,144(sp)
   11d34:	e142                	sd	a6,128(sp)
   11d36:	f0f2                	sd	t3,96(sp)
   11d38:	ecbe                	sd	a5,88(sp)
   11d3a:	706010ef          	jal	13440 <__sprint_r>
   11d3e:	26051c63          	bnez	a0,11fb6 <_vfprintf_r+0xbfc>
   11d42:	7e06                	ld	t3,96(sp)
   11d44:	794e                	ld	s2,240(sp)
   11d46:	68ca                	ld	a7,144(sp)
   11d48:	100e7713          	andi	a4,t3,256
   11d4c:	680a                	ld	a6,128(sp)
   11d4e:	67e6                	ld	a5,88(sp)
   11d50:	8bce                	mv	s7,s3
   11d52:	880700e3          	beqz	a4,115d2 <_vfprintf_r+0x218>
   11d56:	06500713          	li	a4,101
   11d5a:	2db75163          	bge	a4,s11,1201c <_vfprintf_r+0xc62>
   11d5e:	654e                	ld	a0,208(sp)
   11d60:	65ee                	ld	a1,216(sp)
   11d62:	4601                	li	a2,0
   11d64:	4681                	li	a3,0
   11d66:	e142                	sd	a6,128(sp)
   11d68:	f0f2                	sd	t3,96(sp)
   11d6a:	ecbe                	sd	a5,88(sp)
   11d6c:	262060ef          	jal	17fce <__eqtf2>
   11d70:	67e6                	ld	a5,88(sp)
   11d72:	7e06                	ld	t3,96(sp)
   11d74:	680a                	ld	a6,128(sp)
   11d76:	44051763          	bnez	a0,121c4 <_vfprintf_r+0xe0a>
   11d7a:	57ae                	lw	a5,232(sp)
   11d7c:	6765                	lui	a4,0x19
   11d7e:	29070713          	addi	a4,a4,656 # 19290 <__clzdi2+0x96>
   11d82:	00ebb023          	sd	a4,0(s7)
   11d86:	0905                	addi	s2,s2,1
   11d88:	4705                	li	a4,1
   11d8a:	2785                	addiw	a5,a5,1
   11d8c:	00ebb423          	sd	a4,8(s7)
   11d90:	f9ca                	sd	s2,240(sp)
   11d92:	d5be                	sw	a5,232(sp)
   11d94:	471d                	li	a4,7
   11d96:	0bc1                	addi	s7,s7,16
   11d98:	1cf74ee3          	blt	a4,a5,12774 <_vfprintf_r+0x13ba>
   11d9c:	57ca                	lw	a5,176(sp)
   11d9e:	7742                	ld	a4,48(sp)
   11da0:	66e7d863          	bge	a5,a4,12410 <_vfprintf_r+0x1056>
   11da4:	6726                	ld	a4,72(sp)
   11da6:	57ae                	lw	a5,232(sp)
   11da8:	66c6                	ld	a3,80(sp)
   11daa:	993a                	add	s2,s2,a4
   11dac:	2785                	addiw	a5,a5,1
   11dae:	00ebb423          	sd	a4,8(s7)
   11db2:	00dbb023          	sd	a3,0(s7)
   11db6:	f9ca                	sd	s2,240(sp)
   11db8:	d5be                	sw	a5,232(sp)
   11dba:	471d                	li	a4,7
   11dbc:	0bc1                	addi	s7,s7,16
   11dbe:	7cf74963          	blt	a4,a5,12590 <_vfprintf_r+0x11d6>
   11dc2:	77c2                	ld	a5,48(sp)
   11dc4:	fff78a9b          	addiw	s5,a5,-1
   11dc8:	835052e3          	blez	s5,115ec <_vfprintf_r+0x232>
   11dcc:	4b41                	li	s6,16
   11dce:	57ae                	lw	a5,232(sp)
   11dd0:	66e5                	lui	a3,0x19
   11dd2:	015b4463          	blt	s6,s5,11dda <_vfprintf_r+0xa20>
   11dd6:	0ae0106f          	j	12e84 <_vfprintf_r+0x1aca>
   11dda:	84d6                	mv	s1,s5
   11ddc:	874a                	mv	a4,s2
   11dde:	4d9d                	li	s11,7
   11de0:	8ac2                	mv	s5,a6
   11de2:	8972                	mv	s2,t3
   11de4:	58068c13          	addi	s8,a3,1408 # 19580 <zeroes.0>
   11de8:	a021                	j	11df0 <_vfprintf_r+0xa36>
   11dea:	34c1                	addiw	s1,s1,-16
   11dec:	1a9b56e3          	bge	s6,s1,12798 <_vfprintf_r+0x13de>
   11df0:	0741                	addi	a4,a4,16
   11df2:	2785                	addiw	a5,a5,1
   11df4:	018bb023          	sd	s8,0(s7)
   11df8:	016bb423          	sd	s6,8(s7)
   11dfc:	f9ba                	sd	a4,240(sp)
   11dfe:	d5be                	sw	a5,232(sp)
   11e00:	0bc1                	addi	s7,s7,16
   11e02:	fefdd4e3          	bge	s11,a5,11dea <_vfprintf_r+0xa30>
   11e06:	65a2                	ld	a1,8(sp)
   11e08:	6502                	ld	a0,0(sp)
   11e0a:	1190                	addi	a2,sp,224
   11e0c:	634010ef          	jal	13440 <__sprint_r>
   11e10:	1a051363          	bnez	a0,11fb6 <_vfprintf_r+0xbfc>
   11e14:	774e                	ld	a4,240(sp)
   11e16:	57ae                	lw	a5,232(sp)
   11e18:	8bce                	mv	s7,s3
   11e1a:	bfc1                	j	11dea <_vfprintf_r+0xa30>
   11e1c:	000cc303          	lbu	t1,0(s9)
   11e20:	06800793          	li	a5,104
   11e24:	78f30563          	beq	t1,a5,125ae <_vfprintf_r+0x11f4>
   11e28:	0404e493          	ori	s1,s1,64
   11e2c:	ec6ff06f          	j	114f2 <_vfprintf_r+0x138>
   11e30:	000cc303          	lbu	t1,0(s9)
   11e34:	0204e493          	ori	s1,s1,32
   11e38:	ebaff06f          	j	114f2 <_vfprintf_r+0x138>
   11e3c:	67a1                	lui	a5,0x8
   11e3e:	83078793          	addi	a5,a5,-2000 # 7830 <exit-0x88f0>
   11e42:	0af11423          	sh	a5,168(sp)
   11e46:	67e2                	ld	a5,24(sp)
   11e48:	0a0103a3          	sb	zero,167(sp)
   11e4c:	6398                	ld	a4,0(a5)
   11e4e:	00878593          	addi	a1,a5,8
   11e52:	6a0ac363          	bltz	s5,124f8 <_vfprintf_r+0x113e>
   11e56:	f7f4ff13          	andi	t5,s1,-129
   11e5a:	002f6e13          	ori	t3,t5,2
   11e5e:	180a9be3          	bnez	s5,127f4 <_vfprintf_r+0x143a>
   11e62:	180719e3          	bnez	a4,127f4 <_vfprintf_r+0x143a>
   11e66:	ec2e                	sd	a1,24(sp)
   11e68:	4489                	li	s1,2
   11e6a:	07800d93          	li	s11,120
   11e6e:	0a714503          	lbu	a0,167(sp)
   11e72:	4a81                	li	s5,0
   11e74:	4801                	li	a6,0
   11e76:	4881                	li	a7,0
   11e78:	0afc                	addi	a5,sp,348
   11e7a:	f002                	sd	zero,32(sp)
   11e7c:	b6fd                	j	11a6a <_vfprintf_r+0x6b0>
   11e7e:	6762                	ld	a4,24(sp)
   11e80:	0204f793          	andi	a5,s1,32
   11e84:	8e26                	mv	t3,s1
   11e86:	0721                	addi	a4,a4,8
   11e88:	5a079e63          	bnez	a5,12444 <_vfprintf_r+0x108a>
   11e8c:	0104f793          	andi	a5,s1,16
   11e90:	5a079a63          	bnez	a5,12444 <_vfprintf_r+0x108a>
   11e94:	66e2                	ld	a3,24(sp)
   11e96:	0404f793          	andi	a5,s1,64
   11e9a:	4294                	lw	a3,0(a3)
   11e9c:	1c078ee3          	beqz	a5,12878 <_vfprintf_r+0x14be>
   11ea0:	16c2                	slli	a3,a3,0x30
   11ea2:	92c1                	srli	a3,a3,0x30
   11ea4:	ec3a                	sd	a4,24(sp)
   11ea6:	8826                	mv	a6,s1
   11ea8:	b355                	j	11c4c <_vfprintf_r+0x892>
   11eaa:	66e2                	ld	a3,24(sp)
   11eac:	0204f793          	andi	a5,s1,32
   11eb0:	6298                	ld	a4,0(a3)
   11eb2:	06a1                	addi	a3,a3,8
   11eb4:	ec36                	sd	a3,24(sp)
   11eb6:	58079363          	bnez	a5,1243c <_vfprintf_r+0x1082>
   11eba:	0104f793          	andi	a5,s1,16
   11ebe:	56079f63          	bnez	a5,1243c <_vfprintf_r+0x1082>
   11ec2:	0404f793          	andi	a5,s1,64
   11ec6:	4a0790e3          	bnez	a5,12b66 <_vfprintf_r+0x17ac>
   11eca:	2004ff13          	andi	t5,s1,512
   11ece:	67c2                	ld	a5,16(sp)
   11ed0:	000f1463          	bnez	t5,11ed8 <_vfprintf_r+0xb1e>
   11ed4:	27a0106f          	j	1314e <_vfprintf_r+0x1d94>
   11ed8:	00f70023          	sb	a5,0(a4)
   11edc:	da4ff06f          	j	11480 <_vfprintf_r+0xc6>
   11ee0:	000cc303          	lbu	t1,0(s9)
   11ee4:	06c00793          	li	a5,108
   11ee8:	68f30d63          	beq	t1,a5,12582 <_vfprintf_r+0x11c8>
   11eec:	0104e493          	ori	s1,s1,16
   11ef0:	e02ff06f          	j	114f2 <_vfprintf_r+0x138>
   11ef4:	410d0b3b          	subw	s6,s10,a6
   11ef8:	ed605563          	blez	s6,115c2 <_vfprintf_r+0x208>
   11efc:	42c1                	li	t0,16
   11efe:	562e                	lw	a2,232(sp)
   11f00:	66e5                	lui	a3,0x19
   11f02:	0162c463          	blt	t0,s6,11f0a <_vfprintf_r+0xb50>
   11f06:	1d60106f          	j	130dc <_vfprintf_r+0x1d22>
   11f0a:	8c3e                	mv	s8,a5
   11f0c:	874a                	mv	a4,s2
   11f0e:	87de                	mv	a5,s7
   11f10:	439d                	li	t2,7
   11f12:	8ba6                	mv	s7,s1
   11f14:	ecf2                	sd	t3,88(sp)
   11f16:	84da                	mv	s1,s6
   11f18:	f0c2                	sd	a6,96(sp)
   11f1a:	8b46                	mv	s6,a7
   11f1c:	58068913          	addi	s2,a3,1408 # 19580 <zeroes.0>
   11f20:	a021                	j	11f28 <_vfprintf_r+0xb6e>
   11f22:	34c1                	addiw	s1,s1,-16
   11f24:	0292db63          	bge	t0,s1,11f5a <_vfprintf_r+0xba0>
   11f28:	0741                	addi	a4,a4,16
   11f2a:	2605                	addiw	a2,a2,1
   11f2c:	0127b023          	sd	s2,0(a5)
   11f30:	0057b423          	sd	t0,8(a5)
   11f34:	f9ba                	sd	a4,240(sp)
   11f36:	d5b2                	sw	a2,232(sp)
   11f38:	07c1                	addi	a5,a5,16
   11f3a:	fec3d4e3          	bge	t2,a2,11f22 <_vfprintf_r+0xb68>
   11f3e:	65a2                	ld	a1,8(sp)
   11f40:	6502                	ld	a0,0(sp)
   11f42:	1190                	addi	a2,sp,224
   11f44:	4fc010ef          	jal	13440 <__sprint_r>
   11f48:	e53d                	bnez	a0,11fb6 <_vfprintf_r+0xbfc>
   11f4a:	42c1                	li	t0,16
   11f4c:	34c1                	addiw	s1,s1,-16
   11f4e:	774e                	ld	a4,240(sp)
   11f50:	562e                	lw	a2,232(sp)
   11f52:	87ce                	mv	a5,s3
   11f54:	439d                	li	t2,7
   11f56:	fc92c9e3          	blt	t0,s1,11f28 <_vfprintf_r+0xb6e>
   11f5a:	6e66                	ld	t3,88(sp)
   11f5c:	7806                	ld	a6,96(sp)
   11f5e:	88da                	mv	a7,s6
   11f60:	86ca                	mv	a3,s2
   11f62:	8b26                	mv	s6,s1
   11f64:	893a                	mv	s2,a4
   11f66:	84de                	mv	s1,s7
   11f68:	8bbe                	mv	s7,a5
   11f6a:	87e2                	mv	a5,s8
   11f6c:	995a                	add	s2,s2,s6
   11f6e:	2605                	addiw	a2,a2,1
   11f70:	00dbb023          	sd	a3,0(s7)
   11f74:	016bb423          	sd	s6,8(s7)
   11f78:	f9ca                	sd	s2,240(sp)
   11f7a:	d5b2                	sw	a2,232(sp)
   11f7c:	471d                	li	a4,7
   11f7e:	0bc1                	addi	s7,s7,16
   11f80:	e4c75163          	bge	a4,a2,115c2 <_vfprintf_r+0x208>
   11f84:	65a2                	ld	a1,8(sp)
   11f86:	6502                	ld	a0,0(sp)
   11f88:	1190                	addi	a2,sp,224
   11f8a:	e946                	sd	a7,144(sp)
   11f8c:	e142                	sd	a6,128(sp)
   11f8e:	f0f2                	sd	t3,96(sp)
   11f90:	ecbe                	sd	a5,88(sp)
   11f92:	4ae010ef          	jal	13440 <__sprint_r>
   11f96:	e105                	bnez	a0,11fb6 <_vfprintf_r+0xbfc>
   11f98:	794e                	ld	s2,240(sp)
   11f9a:	67e6                	ld	a5,88(sp)
   11f9c:	7e06                	ld	t3,96(sp)
   11f9e:	680a                	ld	a6,128(sp)
   11fa0:	68ca                	ld	a7,144(sp)
   11fa2:	8bce                	mv	s7,s3
   11fa4:	e1eff06f          	j	115c2 <_vfprintf_r+0x208>
   11fa8:	65a2                	ld	a1,8(sp)
   11faa:	6502                	ld	a0,0(sp)
   11fac:	1190                	addi	a2,sp,224
   11fae:	492010ef          	jal	13440 <__sprint_r>
   11fb2:	e4050e63          	beqz	a0,1160e <_vfprintf_r+0x254>
   11fb6:	64a2                	ld	s1,8(sp)
   11fb8:	7582                	ld	a1,32(sp)
   11fba:	c581                	beqz	a1,11fc2 <_vfprintf_r+0xc08>
   11fbc:	6502                	ld	a0,0(sp)
   11fbe:	b49fe0ef          	jal	10b06 <_free_r>
   11fc2:	0104d783          	lhu	a5,16(s1)
   11fc6:	23013903          	ld	s2,560(sp)
   11fca:	22813983          	ld	s3,552(sp)
   11fce:	0407f793          	andi	a5,a5,64
   11fd2:	22013a03          	ld	s4,544(sp)
   11fd6:	21813a83          	ld	s5,536(sp)
   11fda:	20813b83          	ld	s7,520(sp)
   11fde:	20013c03          	ld	s8,512(sp)
   11fe2:	7cfe                	ld	s9,504(sp)
   11fe4:	7d5e                	ld	s10,496(sp)
   11fe6:	7dbe                	ld	s11,488(sp)
   11fe8:	e8079763          	bnez	a5,11676 <_vfprintf_r+0x2bc>
   11fec:	24813083          	ld	ra,584(sp)
   11ff0:	24013403          	ld	s0,576(sp)
   11ff4:	6542                	ld	a0,16(sp)
   11ff6:	23813483          	ld	s1,568(sp)
   11ffa:	21013b03          	ld	s6,528(sp)
   11ffe:	25010113          	addi	sp,sp,592
   12002:	8082                	ret
   12004:	410d073b          	subw	a4,s10,a6
   12008:	e082                	sd	zero,64(sp)
   1200a:	fc02                	sd	zero,56(sp)
   1200c:	2ce04163          	bgtz	a4,122ce <_vfprintf_r+0xf14>
   12010:	4481                	li	s1,0
   12012:	d8050663          	beqz	a0,1159e <_vfprintf_r+0x1e4>
   12016:	4389                	li	t2,2
   12018:	d62ff06f          	j	1157a <_vfprintf_r+0x1c0>
   1201c:	5aae                	lw	s5,232(sp)
   1201e:	7642                	ld	a2,48(sp)
   12020:	4685                	li	a3,1
   12022:	2a85                	addiw	s5,s5,1
   12024:	9936                	add	s2,s2,a3
   12026:	8756                	mv	a4,s5
   12028:	010b8b13          	addi	s6,s7,16
   1202c:	34c6db63          	bge	a3,a2,12382 <_vfprintf_r+0xfc8>
   12030:	4685                	li	a3,1
   12032:	00dbb423          	sd	a3,8(s7)
   12036:	00fbb023          	sd	a5,0(s7)
   1203a:	f9ca                	sd	s2,240(sp)
   1203c:	d5ba                	sw	a4,232(sp)
   1203e:	469d                	li	a3,7
   12040:	66e6c363          	blt	a3,a4,126a6 <_vfprintf_r+0x12ec>
   12044:	6726                	ld	a4,72(sp)
   12046:	66c6                	ld	a3,80(sp)
   12048:	2a85                	addiw	s5,s5,1
   1204a:	993a                	add	s2,s2,a4
   1204c:	00eb3423          	sd	a4,8(s6)
   12050:	00db3023          	sd	a3,0(s6)
   12054:	f9ca                	sd	s2,240(sp)
   12056:	d5d6                	sw	s5,232(sp)
   12058:	471d                	li	a4,7
   1205a:	0b41                	addi	s6,s6,16
   1205c:	67574663          	blt	a4,s5,126c8 <_vfprintf_r+0x130e>
   12060:	ecbe                	sd	a5,88(sp)
   12062:	654e                	ld	a0,208(sp)
   12064:	77c2                	ld	a5,48(sp)
   12066:	65ee                	ld	a1,216(sp)
   12068:	4601                	li	a2,0
   1206a:	4681                	li	a3,0
   1206c:	e0c2                	sd	a6,64(sp)
   1206e:	fc72                	sd	t3,56(sp)
   12070:	fff78b9b          	addiw	s7,a5,-1
   12074:	75b050ef          	jal	17fce <__eqtf2>
   12078:	7e62                	ld	t3,56(sp)
   1207a:	6806                	ld	a6,64(sp)
   1207c:	32050f63          	beqz	a0,123ba <_vfprintf_r+0x1000>
   12080:	67e6                	ld	a5,88(sp)
   12082:	2a85                	addiw	s5,s5,1
   12084:	995e                	add	s2,s2,s7
   12086:	0785                	addi	a5,a5,1
   12088:	d5d6                	sw	s5,232(sp)
   1208a:	f9ca                	sd	s2,240(sp)
   1208c:	00fb3023          	sd	a5,0(s6)
   12090:	017b3423          	sd	s7,8(s6)
   12094:	479d                	li	a5,7
   12096:	4d57c363          	blt	a5,s5,1255c <_vfprintf_r+0x11a2>
   1209a:	0b41                	addi	s6,s6,16
   1209c:	7726                	ld	a4,104(sp)
   1209e:	193c                	addi	a5,sp,184
   120a0:	2a85                	addiw	s5,s5,1
   120a2:	993a                	add	s2,s2,a4
   120a4:	00fb3023          	sd	a5,0(s6)
   120a8:	f9ca                	sd	s2,240(sp)
   120aa:	d5d6                	sw	s5,232(sp)
   120ac:	00eb3423          	sd	a4,8(s6)
   120b0:	479d                	li	a5,7
   120b2:	010b0b93          	addi	s7,s6,16
   120b6:	d357db63          	bge	a5,s5,115ec <_vfprintf_r+0x232>
   120ba:	65a2                	ld	a1,8(sp)
   120bc:	6502                	ld	a0,0(sp)
   120be:	1190                	addi	a2,sp,224
   120c0:	e0c2                	sd	a6,64(sp)
   120c2:	fc72                	sd	t3,56(sp)
   120c4:	37c010ef          	jal	13440 <__sprint_r>
   120c8:	ee0517e3          	bnez	a0,11fb6 <_vfprintf_r+0xbfc>
   120cc:	794e                	ld	s2,240(sp)
   120ce:	6806                	ld	a6,64(sp)
   120d0:	7e62                	ld	t3,56(sp)
   120d2:	8bce                	mv	s7,s3
   120d4:	d18ff06f          	j	115ec <_vfprintf_r+0x232>
   120d8:	65a2                	ld	a1,8(sp)
   120da:	6502                	ld	a0,0(sp)
   120dc:	1190                	addi	a2,sp,224
   120de:	e946                	sd	a7,144(sp)
   120e0:	e142                	sd	a6,128(sp)
   120e2:	f0f2                	sd	t3,96(sp)
   120e4:	ecbe                	sd	a5,88(sp)
   120e6:	35a010ef          	jal	13440 <__sprint_r>
   120ea:	ec0516e3          	bnez	a0,11fb6 <_vfprintf_r+0xbfc>
   120ee:	794e                	ld	s2,240(sp)
   120f0:	68ca                	ld	a7,144(sp)
   120f2:	680a                	ld	a6,128(sp)
   120f4:	7e06                	ld	t3,96(sp)
   120f6:	67e6                	ld	a5,88(sp)
   120f8:	8bce                	mv	s7,s3
   120fa:	cc0ff06f          	j	115ba <_vfprintf_r+0x200>
   120fe:	4b41                	li	s6,16
   12100:	57ae                	lw	a5,232(sp)
   12102:	66e5                	lui	a3,0x19
   12104:	735b58e3          	bge	s6,s5,13034 <_vfprintf_r+0x1c7a>
   12108:	874a                	mv	a4,s2
   1210a:	6c22                	ld	s8,8(sp)
   1210c:	4d9d                	li	s11,7
   1210e:	8942                	mv	s2,a6
   12110:	59068493          	addi	s1,a3,1424 # 19590 <blanks.1>
   12114:	a021                	j	1211c <_vfprintf_r+0xd62>
   12116:	3ac1                	addiw	s5,s5,-16
   12118:	035b5a63          	bge	s6,s5,1214c <_vfprintf_r+0xd92>
   1211c:	0741                	addi	a4,a4,16
   1211e:	2785                	addiw	a5,a5,1
   12120:	009bb023          	sd	s1,0(s7)
   12124:	016bb423          	sd	s6,8(s7)
   12128:	f9ba                	sd	a4,240(sp)
   1212a:	d5be                	sw	a5,232(sp)
   1212c:	0bc1                	addi	s7,s7,16
   1212e:	fefdd4e3          	bge	s11,a5,12116 <_vfprintf_r+0xd5c>
   12132:	6502                	ld	a0,0(sp)
   12134:	1190                	addi	a2,sp,224
   12136:	85e2                	mv	a1,s8
   12138:	308010ef          	jal	13440 <__sprint_r>
   1213c:	64051b63          	bnez	a0,12792 <_vfprintf_r+0x13d8>
   12140:	3ac1                	addiw	s5,s5,-16
   12142:	774e                	ld	a4,240(sp)
   12144:	57ae                	lw	a5,232(sp)
   12146:	8bce                	mv	s7,s3
   12148:	fd5b4ae3          	blt	s6,s5,1211c <_vfprintf_r+0xd62>
   1214c:	884a                	mv	a6,s2
   1214e:	86a6                	mv	a3,s1
   12150:	893a                	mv	s2,a4
   12152:	9956                	add	s2,s2,s5
   12154:	2785                	addiw	a5,a5,1
   12156:	f9ca                	sd	s2,240(sp)
   12158:	d5be                	sw	a5,232(sp)
   1215a:	00dbb023          	sd	a3,0(s7)
   1215e:	015bb423          	sd	s5,8(s7)
   12162:	471d                	li	a4,7
   12164:	c8f75c63          	bge	a4,a5,115fc <_vfprintf_r+0x242>
   12168:	65a2                	ld	a1,8(sp)
   1216a:	6502                	ld	a0,0(sp)
   1216c:	1190                	addi	a2,sp,224
   1216e:	fc42                	sd	a6,56(sp)
   12170:	2d0010ef          	jal	13440 <__sprint_r>
   12174:	e40511e3          	bnez	a0,11fb6 <_vfprintf_r+0xbfc>
   12178:	794e                	ld	s2,240(sp)
   1217a:	7862                	ld	a6,56(sp)
   1217c:	c80ff06f          	j	115fc <_vfprintf_r+0x242>
   12180:	15c10893          	addi	a7,sp,348
   12184:	87c6                	mv	a5,a7
   12186:	0076f713          	andi	a4,a3,7
   1218a:	863e                	mv	a2,a5
   1218c:	03070713          	addi	a4,a4,48
   12190:	828d                	srli	a3,a3,0x3
   12192:	fee78fa3          	sb	a4,-1(a5)
   12196:	17fd                	addi	a5,a5,-1
   12198:	f6fd                	bnez	a3,12186 <_vfprintf_r+0xdcc>
   1219a:	fd070713          	addi	a4,a4,-48
   1219e:	03000693          	li	a3,48
   121a2:	c709                	beqz	a4,121ac <_vfprintf_r+0xdf2>
   121a4:	001e7713          	andi	a4,t3,1
   121a8:	2a071163          	bnez	a4,1244a <_vfprintf_r+0x1090>
   121ac:	40f888bb          	subw	a7,a7,a5
   121b0:	000a881b          	sext.w	a6,s5
   121b4:	271acc63          	blt	s5,a7,1242c <_vfprintf_r+0x1072>
   121b8:	f002                	sd	zero,32(sp)
   121ba:	e082                	sd	zero,64(sp)
   121bc:	fc02                	sd	zero,56(sp)
   121be:	4481                	li	s1,0
   121c0:	ba4ff06f          	j	11564 <_vfprintf_r+0x1aa>
   121c4:	564a                	lw	a2,176(sp)
   121c6:	ecc05a63          	blez	a2,1189a <_vfprintf_r+0x4e0>
   121ca:	76c2                	ld	a3,48(sp)
   121cc:	8726                	mv	a4,s1
   121ce:	3096cf63          	blt	a3,s1,124ec <_vfprintf_r+0x1132>
   121d2:	00070d9b          	sext.w	s11,a4
   121d6:	01b05f63          	blez	s11,121f4 <_vfprintf_r+0xe3a>
   121da:	572e                	lw	a4,232(sp)
   121dc:	996e                	add	s2,s2,s11
   121de:	00fbb023          	sd	a5,0(s7)
   121e2:	2705                	addiw	a4,a4,1
   121e4:	01bbb423          	sd	s11,8(s7)
   121e8:	f9ca                	sd	s2,240(sp)
   121ea:	d5ba                	sw	a4,232(sp)
   121ec:	469d                	li	a3,7
   121ee:	0bc1                	addi	s7,s7,16
   121f0:	0ce6cde3          	blt	a3,a4,12aca <_vfprintf_r+0x1710>
   121f4:	8aee                	mv	s5,s11
   121f6:	400dc263          	bltz	s11,125fa <_vfprintf_r+0x1240>
   121fa:	41548abb          	subw	s5,s1,s5
   121fe:	43504663          	bgtz	s5,1262a <_vfprintf_r+0x1270>
   12202:	400e7713          	andi	a4,t3,1024
   12206:	00978db3          	add	s11,a5,s1
   1220a:	74071b63          	bnez	a4,12960 <_vfprintf_r+0x15a6>
   1220e:	5aca                	lw	s5,176(sp)
   12210:	76c2                	ld	a3,48(sp)
   12212:	00dac663          	blt	s5,a3,1221e <_vfprintf_r+0xe64>
   12216:	001e7713          	andi	a4,t3,1
   1221a:	10070fe3          	beqz	a4,12b38 <_vfprintf_r+0x177e>
   1221e:	66a6                	ld	a3,72(sp)
   12220:	572e                	lw	a4,232(sp)
   12222:	6646                	ld	a2,80(sp)
   12224:	9936                	add	s2,s2,a3
   12226:	2705                	addiw	a4,a4,1
   12228:	00dbb423          	sd	a3,8(s7)
   1222c:	00cbb023          	sd	a2,0(s7)
   12230:	f9ca                	sd	s2,240(sp)
   12232:	d5ba                	sw	a4,232(sp)
   12234:	469d                	li	a3,7
   12236:	0bc1                	addi	s7,s7,16
   12238:	50e6cfe3          	blt	a3,a4,12f56 <_vfprintf_r+0x1b9c>
   1223c:	7742                	ld	a4,48(sp)
   1223e:	97ba                	add	a5,a5,a4
   12240:	41b78b33          	sub	s6,a5,s11
   12244:	41570abb          	subw	s5,a4,s5
   12248:	000b079b          	sext.w	a5,s6
   1224c:	00fad363          	bge	s5,a5,12252 <_vfprintf_r+0xe98>
   12250:	8b56                	mv	s6,s5
   12252:	2b01                	sext.w	s6,s6
   12254:	01605f63          	blez	s6,12272 <_vfprintf_r+0xeb8>
   12258:	57ae                	lw	a5,232(sp)
   1225a:	995a                	add	s2,s2,s6
   1225c:	01bbb023          	sd	s11,0(s7)
   12260:	2785                	addiw	a5,a5,1
   12262:	016bb423          	sd	s6,8(s7)
   12266:	f9ca                	sd	s2,240(sp)
   12268:	d5be                	sw	a5,232(sp)
   1226a:	471d                	li	a4,7
   1226c:	0bc1                	addi	s7,s7,16
   1226e:	58f74fe3          	blt	a4,a5,1300c <_vfprintf_r+0x1c52>
   12272:	87da                	mv	a5,s6
   12274:	000b5363          	bgez	s6,1227a <_vfprintf_r+0xec0>
   12278:	4781                	li	a5,0
   1227a:	40fa8abb          	subw	s5,s5,a5
   1227e:	b7505763          	blez	s5,115ec <_vfprintf_r+0x232>
   12282:	4b41                	li	s6,16
   12284:	57ae                	lw	a5,232(sp)
   12286:	66e5                	lui	a3,0x19
   12288:	3f5b5ee3          	bge	s6,s5,12e84 <_vfprintf_r+0x1aca>
   1228c:	84d6                	mv	s1,s5
   1228e:	874a                	mv	a4,s2
   12290:	4d9d                	li	s11,7
   12292:	8ac2                	mv	s5,a6
   12294:	8972                	mv	s2,t3
   12296:	58068c13          	addi	s8,a3,1408 # 19580 <zeroes.0>
   1229a:	a021                	j	122a2 <_vfprintf_r+0xee8>
   1229c:	34c1                	addiw	s1,s1,-16
   1229e:	4e9b5d63          	bge	s6,s1,12798 <_vfprintf_r+0x13de>
   122a2:	0741                	addi	a4,a4,16
   122a4:	2785                	addiw	a5,a5,1
   122a6:	018bb023          	sd	s8,0(s7)
   122aa:	016bb423          	sd	s6,8(s7)
   122ae:	f9ba                	sd	a4,240(sp)
   122b0:	d5be                	sw	a5,232(sp)
   122b2:	0bc1                	addi	s7,s7,16
   122b4:	fefdd4e3          	bge	s11,a5,1229c <_vfprintf_r+0xee2>
   122b8:	65a2                	ld	a1,8(sp)
   122ba:	6502                	ld	a0,0(sp)
   122bc:	1190                	addi	a2,sp,224
   122be:	182010ef          	jal	13440 <__sprint_r>
   122c2:	ce051ae3          	bnez	a0,11fb6 <_vfprintf_r+0xbfc>
   122c6:	774e                	ld	a4,240(sp)
   122c8:	57ae                	lw	a5,232(sp)
   122ca:	8bce                	mv	s7,s3
   122cc:	bfc1                	j	1229c <_vfprintf_r+0xee2>
   122ce:	4389                	li	t2,2
   122d0:	4941                	li	s2,16
   122d2:	8636                	mv	a2,a3
   122d4:	66e5                	lui	a3,0x19
   122d6:	4ae95fe3          	bge	s2,a4,12f94 <_vfprintf_r+0x1bda>
   122da:	f0be                	sd	a5,96(sp)
   122dc:	e956                	sd	s5,144(sp)
   122de:	87de                	mv	a5,s7
   122e0:	4f9d                	li	t6,7
   122e2:	84ba                	mv	s1,a4
   122e4:	ec9e                	sd	t2,88(sp)
   122e6:	e172                	sd	t3,128(sp)
   122e8:	8c42                	mv	s8,a6
   122ea:	8bc6                	mv	s7,a7
   122ec:	59068a93          	addi	s5,a3,1424 # 19590 <blanks.1>
   122f0:	a021                	j	122f8 <_vfprintf_r+0xf3e>
   122f2:	34c1                	addiw	s1,s1,-16
   122f4:	02995b63          	bge	s2,s1,1232a <_vfprintf_r+0xf70>
   122f8:	05c1                	addi	a1,a1,16
   122fa:	2605                	addiw	a2,a2,1
   122fc:	0157b023          	sd	s5,0(a5)
   12300:	0127b423          	sd	s2,8(a5)
   12304:	f9ae                	sd	a1,240(sp)
   12306:	d5b2                	sw	a2,232(sp)
   12308:	07c1                	addi	a5,a5,16
   1230a:	fecfd4e3          	bge	t6,a2,122f2 <_vfprintf_r+0xf38>
   1230e:	65a2                	ld	a1,8(sp)
   12310:	6502                	ld	a0,0(sp)
   12312:	1190                	addi	a2,sp,224
   12314:	12c010ef          	jal	13440 <__sprint_r>
   12318:	c8051fe3          	bnez	a0,11fb6 <_vfprintf_r+0xbfc>
   1231c:	34c1                	addiw	s1,s1,-16
   1231e:	75ce                	ld	a1,240(sp)
   12320:	562e                	lw	a2,232(sp)
   12322:	87ce                	mv	a5,s3
   12324:	4f9d                	li	t6,7
   12326:	fc9949e3          	blt	s2,s1,122f8 <_vfprintf_r+0xf3e>
   1232a:	88de                	mv	a7,s7
   1232c:	86d6                	mv	a3,s5
   1232e:	8bbe                	mv	s7,a5
   12330:	63e6                	ld	t2,88(sp)
   12332:	6e0a                	ld	t3,128(sp)
   12334:	7786                	ld	a5,96(sp)
   12336:	6aca                	ld	s5,144(sp)
   12338:	8726                	mv	a4,s1
   1233a:	8862                	mv	a6,s8
   1233c:	00b70933          	add	s2,a4,a1
   12340:	2605                	addiw	a2,a2,1
   12342:	00ebb423          	sd	a4,8(s7)
   12346:	f9ca                	sd	s2,240(sp)
   12348:	d5b2                	sw	a2,232(sp)
   1234a:	00dbb023          	sd	a3,0(s7)
   1234e:	471d                	li	a4,7
   12350:	3ac74363          	blt	a4,a2,126f6 <_vfprintf_r+0x133c>
   12354:	0a714703          	lbu	a4,167(sp)
   12358:	0bc1                	addi	s7,s7,16
   1235a:	84da                	mv	s1,s6
   1235c:	e769                	bnez	a4,12426 <_vfprintf_r+0x106c>
   1235e:	a6038263          	beqz	t2,115c2 <_vfprintf_r+0x208>
   12362:	4b01                	li	s6,0
   12364:	a3aff06f          	j	1159e <_vfprintf_r+0x1e4>
   12368:	56ae                	lw	a3,232(sp)
   1236a:	8b26                	mv	s6,s1
   1236c:	4381                	li	t2,0
   1236e:	b78d                	j	122d0 <_vfprintf_r+0xf16>
   12370:	4881                	li	a7,0
   12372:	4a81                	li	s5,0
   12374:	e082                	sd	zero,64(sp)
   12376:	fc02                	sd	zero,56(sp)
   12378:	4481                	li	s1,0
   1237a:	f002                	sd	zero,32(sp)
   1237c:	0afc                	addi	a5,sp,348
   1237e:	9e6ff06f          	j	11564 <_vfprintf_r+0x1aa>
   12382:	00de7633          	and	a2,t3,a3
   12386:	ca0615e3          	bnez	a2,12030 <_vfprintf_r+0xc76>
   1238a:	00fbb023          	sd	a5,0(s7)
   1238e:	00dbb423          	sd	a3,8(s7)
   12392:	f9ca                	sd	s2,240(sp)
   12394:	d5d6                	sw	s5,232(sp)
   12396:	479d                	li	a5,7
   12398:	d157d2e3          	bge	a5,s5,1209c <_vfprintf_r+0xce2>
   1239c:	65a2                	ld	a1,8(sp)
   1239e:	6502                	ld	a0,0(sp)
   123a0:	1190                	addi	a2,sp,224
   123a2:	e0c2                	sd	a6,64(sp)
   123a4:	fc72                	sd	t3,56(sp)
   123a6:	09a010ef          	jal	13440 <__sprint_r>
   123aa:	c00516e3          	bnez	a0,11fb6 <_vfprintf_r+0xbfc>
   123ae:	794e                	ld	s2,240(sp)
   123b0:	5aae                	lw	s5,232(sp)
   123b2:	6806                	ld	a6,64(sp)
   123b4:	7e62                	ld	t3,56(sp)
   123b6:	8b4e                	mv	s6,s3
   123b8:	b1d5                	j	1209c <_vfprintf_r+0xce2>
   123ba:	7742                	ld	a4,48(sp)
   123bc:	4785                	li	a5,1
   123be:	cce7dfe3          	bge	a5,a4,1209c <_vfprintf_r+0xce2>
   123c2:	47c5                	li	a5,17
   123c4:	66e5                	lui	a3,0x19
   123c6:	6ee7dae3          	bge	a5,a4,132ba <_vfprintf_r+0x1f00>
   123ca:	874a                	mv	a4,s2
   123cc:	84de                	mv	s1,s7
   123ce:	4dc1                	li	s11,16
   123d0:	479d                	li	a5,7
   123d2:	8972                	mv	s2,t3
   123d4:	8bc2                	mv	s7,a6
   123d6:	58068c13          	addi	s8,a3,1408 # 19580 <zeroes.0>
   123da:	a021                	j	123e2 <_vfprintf_r+0x1028>
   123dc:	34c1                	addiw	s1,s1,-16
   123de:	149ddf63          	bge	s11,s1,1253c <_vfprintf_r+0x1182>
   123e2:	0741                	addi	a4,a4,16
   123e4:	2a85                	addiw	s5,s5,1
   123e6:	018b3023          	sd	s8,0(s6)
   123ea:	01bb3423          	sd	s11,8(s6)
   123ee:	f9ba                	sd	a4,240(sp)
   123f0:	d5d6                	sw	s5,232(sp)
   123f2:	0b41                	addi	s6,s6,16
   123f4:	ff57d4e3          	bge	a5,s5,123dc <_vfprintf_r+0x1022>
   123f8:	65a2                	ld	a1,8(sp)
   123fa:	6502                	ld	a0,0(sp)
   123fc:	1190                	addi	a2,sp,224
   123fe:	042010ef          	jal	13440 <__sprint_r>
   12402:	ba051ae3          	bnez	a0,11fb6 <_vfprintf_r+0xbfc>
   12406:	774e                	ld	a4,240(sp)
   12408:	5aae                	lw	s5,232(sp)
   1240a:	8b4e                	mv	s6,s3
   1240c:	479d                	li	a5,7
   1240e:	b7f9                	j	123dc <_vfprintf_r+0x1022>
   12410:	001e7793          	andi	a5,t3,1
   12414:	9c078c63          	beqz	a5,115ec <_vfprintf_r+0x232>
   12418:	b271                	j	11da4 <_vfprintf_r+0x9ea>
   1241a:	07a1                	addi	a5,a5,8
   1241c:	000cc303          	lbu	t1,0(s9)
   12420:	ec3e                	sd	a5,24(sp)
   12422:	8d0ff06f          	j	114f2 <_vfprintf_r+0x138>
   12426:	4b01                	li	s6,0
   12428:	952ff06f          	j	1157a <_vfprintf_r+0x1c0>
   1242c:	0008881b          	sext.w	a6,a7
   12430:	f002                	sd	zero,32(sp)
   12432:	e082                	sd	zero,64(sp)
   12434:	fc02                	sd	zero,56(sp)
   12436:	4481                	li	s1,0
   12438:	92cff06f          	j	11564 <_vfprintf_r+0x1aa>
   1243c:	67c2                	ld	a5,16(sp)
   1243e:	e31c                	sd	a5,0(a4)
   12440:	840ff06f          	j	11480 <_vfprintf_r+0xc6>
   12444:	8872                	mv	a6,t3
   12446:	801ff06f          	j	11c46 <_vfprintf_r+0x88c>
   1244a:	1679                	addi	a2,a2,-2
   1244c:	40c888bb          	subw	a7,a7,a2
   12450:	fed78fa3          	sb	a3,-1(a5)
   12454:	000a881b          	sext.w	a6,s5
   12458:	011ad463          	bge	s5,a7,12460 <_vfprintf_r+0x10a6>
   1245c:	0008881b          	sext.w	a6,a7
   12460:	87b2                	mv	a5,a2
   12462:	f002                	sd	zero,32(sp)
   12464:	e082                	sd	zero,64(sp)
   12466:	fc02                	sd	zero,56(sp)
   12468:	4481                	li	s1,0
   1246a:	8faff06f          	j	11564 <_vfprintf_r+0x1aa>
   1246e:	67e2                	ld	a5,24(sp)
   12470:	00878713          	addi	a4,a5,8
   12474:	67e2                	ld	a5,24(sp)
   12476:	8e7a                	mv	t3,t5
   12478:	ec3a                	sd	a4,24(sp)
   1247a:	639c                	ld	a5,0(a5)
   1247c:	893e                	mv	s2,a5
   1247e:	d44ff06f          	j	119c2 <_vfprintf_r+0x608>
   12482:	0104f793          	andi	a5,s1,16
   12486:	400794e3          	bnez	a5,1308e <_vfprintf_r+0x1cd4>
   1248a:	66e2                	ld	a3,24(sp)
   1248c:	0404f793          	andi	a5,s1,64
   12490:	0006a903          	lw	s2,0(a3)
   12494:	00868713          	addi	a4,a3,8
   12498:	1e078463          	beqz	a5,12680 <_vfprintf_r+0x12c6>
   1249c:	1942                	slli	s2,s2,0x30
   1249e:	0a0103a3          	sb	zero,167(sp)
   124a2:	03095913          	srli	s2,s2,0x30
   124a6:	1e0ac763          	bltz	s5,12694 <_vfprintf_r+0x12da>
   124aa:	012aefb3          	or	t6,s5,s2
   124ae:	000f849b          	sext.w	s1,t6
   124b2:	ec3a                	sd	a4,24(sp)
   124b4:	f7fe7e13          	andi	t3,t3,-129
   124b8:	d8049763          	bnez	s1,11a46 <_vfprintf_r+0x68c>
   124bc:	ba4d                	j	11e6e <_vfprintf_r+0xab4>
   124be:	67e2                	ld	a5,24(sp)
   124c0:	07bd                	addi	a5,a5,15
   124c2:	9bc1                	andi	a5,a5,-16
   124c4:	01078713          	addi	a4,a5,16
   124c8:	6388                	ld	a0,0(a5)
   124ca:	678c                	ld	a1,8(a5)
   124cc:	ec3a                	sd	a4,24(sp)
   124ce:	9ccff06f          	j	1169a <_vfprintf_r+0x2e0>
   124d2:	0a714503          	lbu	a0,167(sp)
   124d6:	4805                	li	a6,1
   124d8:	4481                	li	s1,0
   124da:	4885                	li	a7,1
   124dc:	15b10793          	addi	a5,sp,347
   124e0:	d88ff06f          	j	11a68 <_vfprintf_r+0x6ae>
   124e4:	ec3e                	sd	a5,24(sp)
   124e6:	8e7a                	mv	t3,t5
   124e8:	d5eff06f          	j	11a46 <_vfprintf_r+0x68c>
   124ec:	8736                	mv	a4,a3
   124ee:	00070d9b          	sext.w	s11,a4
   124f2:	cfb044e3          	bgtz	s11,121da <_vfprintf_r+0xe20>
   124f6:	b9fd                	j	121f4 <_vfprintf_r+0xe3a>
   124f8:	6665                	lui	a2,0x19
   124fa:	0024ee13          	ori	t3,s1,2
   124fe:	ec2e                	sd	a1,24(sp)
   12500:	25860613          	addi	a2,a2,600 # 19258 <__clzdi2+0x5e>
   12504:	4489                	li	s1,2
   12506:	4501                	li	a0,0
   12508:	07800d93          	li	s11,120
   1250c:	15c10893          	addi	a7,sp,348
   12510:	87c6                	mv	a5,a7
   12512:	00f77693          	andi	a3,a4,15
   12516:	96b2                	add	a3,a3,a2
   12518:	0006c683          	lbu	a3,0(a3)
   1251c:	8311                	srli	a4,a4,0x4
   1251e:	17fd                	addi	a5,a5,-1
   12520:	00d78023          	sb	a3,0(a5)
   12524:	f77d                	bnez	a4,12512 <_vfprintf_r+0x1158>
   12526:	40f888bb          	subw	a7,a7,a5
   1252a:	000a881b          	sext.w	a6,s5
   1252e:	d31add63          	bge	s5,a7,11a68 <_vfprintf_r+0x6ae>
   12532:	0008881b          	sext.w	a6,a7
   12536:	f002                	sd	zero,32(sp)
   12538:	d32ff06f          	j	11a6a <_vfprintf_r+0x6b0>
   1253c:	8e4a                	mv	t3,s2
   1253e:	885e                	mv	a6,s7
   12540:	893a                	mv	s2,a4
   12542:	8ba6                	mv	s7,s1
   12544:	86e2                	mv	a3,s8
   12546:	995e                	add	s2,s2,s7
   12548:	2a85                	addiw	s5,s5,1
   1254a:	f9ca                	sd	s2,240(sp)
   1254c:	d5d6                	sw	s5,232(sp)
   1254e:	00db3023          	sd	a3,0(s6)
   12552:	017b3423          	sd	s7,8(s6)
   12556:	479d                	li	a5,7
   12558:	b557d1e3          	bge	a5,s5,1209a <_vfprintf_r+0xce0>
   1255c:	65a2                	ld	a1,8(sp)
   1255e:	6502                	ld	a0,0(sp)
   12560:	1190                	addi	a2,sp,224
   12562:	e0c2                	sd	a6,64(sp)
   12564:	fc72                	sd	t3,56(sp)
   12566:	6db000ef          	jal	13440 <__sprint_r>
   1256a:	a40516e3          	bnez	a0,11fb6 <_vfprintf_r+0xbfc>
   1256e:	794e                	ld	s2,240(sp)
   12570:	5aae                	lw	s5,232(sp)
   12572:	7e62                	ld	t3,56(sp)
   12574:	6806                	ld	a6,64(sp)
   12576:	8b4e                	mv	s6,s3
   12578:	b615                	j	1209c <_vfprintf_r+0xce2>
   1257a:	5afd                	li	s5,-1
   1257c:	8cb2                	mv	s9,a2
   1257e:	f7bfe06f          	j	114f8 <_vfprintf_r+0x13e>
   12582:	001cc303          	lbu	t1,1(s9)
   12586:	0204e493          	ori	s1,s1,32
   1258a:	0c85                	addi	s9,s9,1
   1258c:	f67fe06f          	j	114f2 <_vfprintf_r+0x138>
   12590:	65a2                	ld	a1,8(sp)
   12592:	6502                	ld	a0,0(sp)
   12594:	1190                	addi	a2,sp,224
   12596:	e0c2                	sd	a6,64(sp)
   12598:	fc72                	sd	t3,56(sp)
   1259a:	6a7000ef          	jal	13440 <__sprint_r>
   1259e:	a0051ce3          	bnez	a0,11fb6 <_vfprintf_r+0xbfc>
   125a2:	794e                	ld	s2,240(sp)
   125a4:	6806                	ld	a6,64(sp)
   125a6:	7e62                	ld	t3,56(sp)
   125a8:	8bce                	mv	s7,s3
   125aa:	819ff06f          	j	11dc2 <_vfprintf_r+0xa08>
   125ae:	001cc303          	lbu	t1,1(s9)
   125b2:	2004e493          	ori	s1,s1,512
   125b6:	0c85                	addi	s9,s9,1
   125b8:	f3bfe06f          	j	114f2 <_vfprintf_r+0x138>
   125bc:	6665                	lui	a2,0x19
   125be:	8e26                	mv	t3,s1
   125c0:	27060613          	addi	a2,a2,624 # 19270 <__clzdi2+0x76>
   125c4:	6762                	ld	a4,24(sp)
   125c6:	020e7793          	andi	a5,t3,32
   125ca:	00870593          	addi	a1,a4,8
   125ce:	c7f1                	beqz	a5,1269a <_vfprintf_r+0x12e0>
   125d0:	6318                	ld	a4,0(a4)
   125d2:	001e7793          	andi	a5,t3,1
   125d6:	00e036b3          	snez	a3,a4
   125da:	c399                	beqz	a5,125e0 <_vfprintf_r+0x1226>
   125dc:	16069263          	bnez	a3,12740 <_vfprintf_r+0x1386>
   125e0:	0a0103a3          	sb	zero,167(sp)
   125e4:	100ac363          	bltz	s5,126ea <_vfprintf_r+0x1330>
   125e8:	b7fe7e13          	andi	t3,t3,-1153
   125ec:	160a9d63          	bnez	s5,12766 <_vfprintf_r+0x13ac>
   125f0:	16069b63          	bnez	a3,12766 <_vfprintf_r+0x13ac>
   125f4:	ec2e                	sd	a1,24(sp)
   125f6:	4481                	li	s1,0
   125f8:	b89d                	j	11e6e <_vfprintf_r+0xab4>
   125fa:	4a81                	li	s5,0
   125fc:	befd                	j	121fa <_vfprintf_r+0xe40>
   125fe:	6665                	lui	a2,0x19
   12600:	8e26                	mv	t3,s1
   12602:	25860613          	addi	a2,a2,600 # 19258 <__clzdi2+0x5e>
   12606:	bf7d                	j	125c4 <_vfprintf_r+0x120a>
   12608:	4799                	li	a5,6
   1260a:	000a881b          	sext.w	a6,s5
   1260e:	4b57eb63          	bltu	a5,s5,12ac4 <_vfprintf_r+0x170a>
   12612:	67e5                	lui	a5,0x19
   12614:	ec26                	sd	s1,24(sp)
   12616:	88c2                	mv	a7,a6
   12618:	28878793          	addi	a5,a5,648 # 19288 <__clzdi2+0x8e>
   1261c:	f002                	sd	zero,32(sp)
   1261e:	4a81                	li	s5,0
   12620:	e082                	sd	zero,64(sp)
   12622:	fc02                	sd	zero,56(sp)
   12624:	4481                	li	s1,0
   12626:	f3ffe06f          	j	11564 <_vfprintf_r+0x1aa>
   1262a:	48c1                	li	a7,16
   1262c:	572e                	lw	a4,232(sp)
   1262e:	66e5                	lui	a3,0x19
   12630:	4f58dee3          	bge	a7,s5,1332c <_vfprintf_r+0x1f72>
   12634:	85a6                	mv	a1,s1
   12636:	8b56                	mv	s6,s5
   12638:	84be                	mv	s1,a5
   1263a:	864a                	mv	a2,s2
   1263c:	87de                	mv	a5,s7
   1263e:	4d9d                	li	s11,7
   12640:	8ac2                	mv	s5,a6
   12642:	8972                	mv	s2,t3
   12644:	58068c13          	addi	s8,a3,1408 # 19580 <zeroes.0>
   12648:	8bae                	mv	s7,a1
   1264a:	a021                	j	12652 <_vfprintf_r+0x1298>
   1264c:	3b41                	addiw	s6,s6,-16
   1264e:	2d68d463          	bge	a7,s6,12916 <_vfprintf_r+0x155c>
   12652:	0641                	addi	a2,a2,16
   12654:	2705                	addiw	a4,a4,1
   12656:	0187b023          	sd	s8,0(a5)
   1265a:	0117b423          	sd	a7,8(a5)
   1265e:	f9b2                	sd	a2,240(sp)
   12660:	d5ba                	sw	a4,232(sp)
   12662:	07c1                	addi	a5,a5,16
   12664:	feedd4e3          	bge	s11,a4,1264c <_vfprintf_r+0x1292>
   12668:	65a2                	ld	a1,8(sp)
   1266a:	6502                	ld	a0,0(sp)
   1266c:	1190                	addi	a2,sp,224
   1266e:	5d3000ef          	jal	13440 <__sprint_r>
   12672:	940512e3          	bnez	a0,11fb6 <_vfprintf_r+0xbfc>
   12676:	764e                	ld	a2,240(sp)
   12678:	572e                	lw	a4,232(sp)
   1267a:	87ce                	mv	a5,s3
   1267c:	48c1                	li	a7,16
   1267e:	b7f9                	j	1264c <_vfprintf_r+0x1292>
   12680:	2004f493          	andi	s1,s1,512
   12684:	0a0103a3          	sb	zero,167(sp)
   12688:	4e048b63          	beqz	s1,12b7e <_vfprintf_r+0x17c4>
   1268c:	0ff97913          	zext.b	s2,s2
   12690:	e00adde3          	bgez	s5,124aa <_vfprintf_r+0x10f0>
   12694:	ec3a                	sd	a4,24(sp)
   12696:	bb0ff06f          	j	11a46 <_vfprintf_r+0x68c>
   1269a:	010e7793          	andi	a5,t3,16
   1269e:	cbc1                	beqz	a5,1272e <_vfprintf_r+0x1374>
   126a0:	67e2                	ld	a5,24(sp)
   126a2:	6398                	ld	a4,0(a5)
   126a4:	b73d                	j	125d2 <_vfprintf_r+0x1218>
   126a6:	65a2                	ld	a1,8(sp)
   126a8:	6502                	ld	a0,0(sp)
   126aa:	1190                	addi	a2,sp,224
   126ac:	ecc2                	sd	a6,88(sp)
   126ae:	e0f2                	sd	t3,64(sp)
   126b0:	fc3e                	sd	a5,56(sp)
   126b2:	58f000ef          	jal	13440 <__sprint_r>
   126b6:	900510e3          	bnez	a0,11fb6 <_vfprintf_r+0xbfc>
   126ba:	794e                	ld	s2,240(sp)
   126bc:	5aae                	lw	s5,232(sp)
   126be:	6866                	ld	a6,88(sp)
   126c0:	6e06                	ld	t3,64(sp)
   126c2:	77e2                	ld	a5,56(sp)
   126c4:	8b4e                	mv	s6,s3
   126c6:	babd                	j	12044 <_vfprintf_r+0xc8a>
   126c8:	65a2                	ld	a1,8(sp)
   126ca:	6502                	ld	a0,0(sp)
   126cc:	1190                	addi	a2,sp,224
   126ce:	ecc2                	sd	a6,88(sp)
   126d0:	e0f2                	sd	t3,64(sp)
   126d2:	fc3e                	sd	a5,56(sp)
   126d4:	56d000ef          	jal	13440 <__sprint_r>
   126d8:	8c051fe3          	bnez	a0,11fb6 <_vfprintf_r+0xbfc>
   126dc:	794e                	ld	s2,240(sp)
   126de:	5aae                	lw	s5,232(sp)
   126e0:	6866                	ld	a6,88(sp)
   126e2:	6e06                	ld	t3,64(sp)
   126e4:	77e2                	ld	a5,56(sp)
   126e6:	8b4e                	mv	s6,s3
   126e8:	baa5                	j	12060 <_vfprintf_r+0xca6>
   126ea:	bffe7e13          	andi	t3,t3,-1025
   126ee:	ec2e                	sd	a1,24(sp)
   126f0:	4481                	li	s1,0
   126f2:	4501                	li	a0,0
   126f4:	bd21                	j	1250c <_vfprintf_r+0x1152>
   126f6:	65a2                	ld	a1,8(sp)
   126f8:	6502                	ld	a0,0(sp)
   126fa:	1190                	addi	a2,sp,224
   126fc:	ed46                	sd	a7,152(sp)
   126fe:	e942                	sd	a6,144(sp)
   12700:	e172                	sd	t3,128(sp)
   12702:	f0be                	sd	a5,96(sp)
   12704:	ec9e                	sd	t2,88(sp)
   12706:	53b000ef          	jal	13440 <__sprint_r>
   1270a:	8a0516e3          	bnez	a0,11fb6 <_vfprintf_r+0xbfc>
   1270e:	0a714703          	lbu	a4,167(sp)
   12712:	794e                	ld	s2,240(sp)
   12714:	63e6                	ld	t2,88(sp)
   12716:	7786                	ld	a5,96(sp)
   12718:	6e0a                	ld	t3,128(sp)
   1271a:	684a                	ld	a6,144(sp)
   1271c:	68ea                	ld	a7,152(sp)
   1271e:	84da                	mv	s1,s6
   12720:	12070263          	beqz	a4,12844 <_vfprintf_r+0x148a>
   12724:	562e                	lw	a2,232(sp)
   12726:	4b01                	li	s6,0
   12728:	8bce                	mv	s7,s3
   1272a:	e51fe06f          	j	1157a <_vfprintf_r+0x1c0>
   1272e:	6762                	ld	a4,24(sp)
   12730:	040e7793          	andi	a5,t3,64
   12734:	4318                	lw	a4,0(a4)
   12736:	12078a63          	beqz	a5,1286a <_vfprintf_r+0x14b0>
   1273a:	1742                	slli	a4,a4,0x30
   1273c:	9341                	srli	a4,a4,0x30
   1273e:	bd51                	j	125d2 <_vfprintf_r+0x1218>
   12740:	03000793          	li	a5,48
   12744:	0bb104a3          	sb	s11,169(sp)
   12748:	0a0103a3          	sb	zero,167(sp)
   1274c:	0af10423          	sb	a5,168(sp)
   12750:	1a0acb63          	bltz	s5,12906 <_vfprintf_r+0x154c>
   12754:	b7fe7f13          	andi	t5,t3,-1153
   12758:	002f6e13          	ori	t3,t5,2
   1275c:	4489                	li	s1,2
   1275e:	0a714503          	lbu	a0,167(sp)
   12762:	ec2e                	sd	a1,24(sp)
   12764:	b365                	j	1250c <_vfprintf_r+0x1152>
   12766:	4481                	li	s1,0
   12768:	bfdd                	j	1275e <_vfprintf_r+0x13a4>
   1276a:	6502                	ld	a0,0(sp)
   1276c:	d95fd0ef          	jal	10500 <__sinit>
   12770:	c87fe06f          	j	113f6 <_vfprintf_r+0x3c>
   12774:	65a2                	ld	a1,8(sp)
   12776:	6502                	ld	a0,0(sp)
   12778:	1190                	addi	a2,sp,224
   1277a:	e0c2                	sd	a6,64(sp)
   1277c:	fc72                	sd	t3,56(sp)
   1277e:	4c3000ef          	jal	13440 <__sprint_r>
   12782:	82051ae3          	bnez	a0,11fb6 <_vfprintf_r+0xbfc>
   12786:	794e                	ld	s2,240(sp)
   12788:	6806                	ld	a6,64(sp)
   1278a:	7e62                	ld	t3,56(sp)
   1278c:	8bce                	mv	s7,s3
   1278e:	e0eff06f          	j	11d9c <_vfprintf_r+0x9e2>
   12792:	84e2                	mv	s1,s8
   12794:	825ff06f          	j	11fb8 <_vfprintf_r+0xbfe>
   12798:	8e4a                	mv	t3,s2
   1279a:	8856                	mv	a6,s5
   1279c:	893a                	mv	s2,a4
   1279e:	8aa6                	mv	s5,s1
   127a0:	86e2                	mv	a3,s8
   127a2:	9956                	add	s2,s2,s5
   127a4:	2785                	addiw	a5,a5,1
   127a6:	f9ca                	sd	s2,240(sp)
   127a8:	d5be                	sw	a5,232(sp)
   127aa:	00dbb023          	sd	a3,0(s7)
   127ae:	015bb423          	sd	s5,8(s7)
   127b2:	471d                	li	a4,7
   127b4:	00f74463          	blt	a4,a5,127bc <_vfprintf_r+0x1402>
   127b8:	e33fe06f          	j	115ea <_vfprintf_r+0x230>
   127bc:	950ff06f          	j	1190c <_vfprintf_r+0x552>
   127c0:	654e                	ld	a0,208(sp)
   127c2:	65ee                	ld	a1,216(sp)
   127c4:	f7fe7e13          	andi	t3,t3,-129
   127c8:	4601                	li	a2,0
   127ca:	4681                	li	a3,0
   127cc:	f072                	sd	t3,32(sp)
   127ce:	15f050ef          	jal	1812c <__letf2>
   127d2:	7e02                	ld	t3,32(sp)
   127d4:	74054463          	bltz	a0,12f1c <_vfprintf_r+0x1b62>
   127d8:	04700793          	li	a5,71
   127dc:	0a714703          	lbu	a4,167(sp)
   127e0:	3fb7c763          	blt	a5,s11,12bce <_vfprintf_r+0x1814>
   127e4:	67e5                	lui	a5,0x19
   127e6:	23878793          	addi	a5,a5,568 # 19238 <__clzdi2+0x3e>
   127ea:	10071563          	bnez	a4,128f4 <_vfprintf_r+0x153a>
   127ee:	488d                	li	a7,3
   127f0:	8846                	mv	a6,a7
   127f2:	b52d                	j	1261c <_vfprintf_r+0x1262>
   127f4:	6665                	lui	a2,0x19
   127f6:	25860613          	addi	a2,a2,600 # 19258 <__clzdi2+0x5e>
   127fa:	4489                	li	s1,2
   127fc:	07800d93          	li	s11,120
   12800:	bfb9                	j	1275e <_vfprintf_r+0x13a4>
   12802:	77ce                	ld	a5,240(sp)
   12804:	64a2                	ld	s1,8(sp)
   12806:	fa078e63          	beqz	a5,11fc2 <_vfprintf_r+0xc08>
   1280a:	6502                	ld	a0,0(sp)
   1280c:	1190                	addi	a2,sp,224
   1280e:	85a6                	mv	a1,s1
   12810:	431000ef          	jal	13440 <__sprint_r>
   12814:	faeff06f          	j	11fc2 <_vfprintf_r+0xc08>
   12818:	853e                	mv	a0,a5
   1281a:	f072                	sd	t3,32(sp)
   1281c:	ec3e                	sd	a5,24(sp)
   1281e:	6cc010ef          	jal	13eea <strlen>
   12822:	0005089b          	sext.w	a7,a0
   12826:	67e2                	ld	a5,24(sp)
   12828:	7e02                	ld	t3,32(sp)
   1282a:	8746                	mv	a4,a7
   1282c:	3608c963          	bltz	a7,12b9e <_vfprintf_r+0x17e4>
   12830:	0a714683          	lbu	a3,167(sp)
   12834:	0007081b          	sext.w	a6,a4
   12838:	94068a63          	beqz	a3,1198c <_vfprintf_r+0x5d2>
   1283c:	0017081b          	addiw	a6,a4,1
   12840:	ec26                	sd	s1,24(sp)
   12842:	bbe9                	j	1261c <_vfprintf_r+0x1262>
   12844:	30038863          	beqz	t2,12b54 <_vfprintf_r+0x179a>
   12848:	562e                	lw	a2,232(sp)
   1284a:	4b01                	li	s6,0
   1284c:	8bce                	mv	s7,s3
   1284e:	d51fe06f          	j	1159e <_vfprintf_r+0x1e4>
   12852:	2004f793          	andi	a5,s1,512
   12856:	32078063          	beqz	a5,12b76 <_vfprintf_r+0x17bc>
   1285a:	0189191b          	slliw	s2,s2,0x18
   1285e:	4189591b          	sraiw	s2,s2,0x18
   12862:	ec3a                	sd	a4,24(sp)
   12864:	87ca                	mv	a5,s2
   12866:	95cff06f          	j	119c2 <_vfprintf_r+0x608>
   1286a:	200e7793          	andi	a5,t3,512
   1286e:	30078163          	beqz	a5,12b70 <_vfprintf_r+0x17b6>
   12872:	0ff77713          	zext.b	a4,a4
   12876:	bbb1                	j	125d2 <_vfprintf_r+0x1218>
   12878:	2004f793          	andi	a5,s1,512
   1287c:	2c078f63          	beqz	a5,12b5a <_vfprintf_r+0x17a0>
   12880:	0ff6f693          	zext.b	a3,a3
   12884:	ec3a                	sd	a4,24(sp)
   12886:	8826                	mv	a6,s1
   12888:	bc4ff06f          	j	11c4c <_vfprintf_r+0x892>
   1288c:	f002                	sd	zero,32(sp)
   1288e:	4881                	li	a7,0
   12890:	e082                	sd	zero,64(sp)
   12892:	fc02                	sd	zero,56(sp)
   12894:	4481                	li	s1,0
   12896:	0afc                	addi	a5,sp,348
   12898:	4801                	li	a6,0
   1289a:	ccbfe06f          	j	11564 <_vfprintf_r+0x1aa>
   1289e:	100e6713          	ori	a4,t3,256
   128a2:	57fd                	li	a5,-1
   128a4:	f03a                	sd	a4,32(sp)
   128a6:	64ce                	ld	s1,208(sp)
   128a8:	6b6e                	ld	s6,216(sp)
   128aa:	32fa8663          	beq	s5,a5,12bd6 <_vfprintf_r+0x181c>
   128ae:	ec82                	sd	zero,88(sp)
   128b0:	000a9663          	bnez	s5,128bc <_vfprintf_r+0x1502>
   128b4:	fb990713          	addi	a4,s2,-71
   128b8:	44070963          	beqz	a4,12d0a <_vfprintf_r+0x1950>
   128bc:	320b5163          	bgez	s6,12bde <_vfprintf_r+0x1824>
   128c0:	57fd                	li	a5,-1
   128c2:	17fe                	slli	a5,a5,0x3f
   128c4:	00fb4b33          	xor	s6,s6,a5
   128c8:	02d00793          	li	a5,45
   128cc:	ecbe                	sd	a5,88(sp)
   128ce:	ae01                	j	12bde <_vfprintf_r+0x1824>
   128d0:	67ee                	ld	a5,216(sp)
   128d2:	f7fe7e13          	andi	t3,t3,-129
   128d6:	03f7d493          	srli	s1,a5,0x3f
   128da:	2c07d763          	bgez	a5,12ba8 <_vfprintf_r+0x17ee>
   128de:	02d00793          	li	a5,45
   128e2:	0af103a3          	sb	a5,167(sp)
   128e6:	04700793          	li	a5,71
   128ea:	0db7d6e3          	bge	a5,s11,131b6 <_vfprintf_r+0x1dfc>
   128ee:	67e5                	lui	a5,0x19
   128f0:	25078793          	addi	a5,a5,592 # 19250 <__clzdi2+0x56>
   128f4:	f002                	sd	zero,32(sp)
   128f6:	488d                	li	a7,3
   128f8:	4a81                	li	s5,0
   128fa:	e082                	sd	zero,64(sp)
   128fc:	fc02                	sd	zero,56(sp)
   128fe:	4481                	li	s1,0
   12900:	4811                	li	a6,4
   12902:	c63fe06f          	j	11564 <_vfprintf_r+0x1aa>
   12906:	bffe7f13          	andi	t5,t3,-1025
   1290a:	002f6e13          	ori	t3,t5,2
   1290e:	ec2e                	sd	a1,24(sp)
   12910:	4489                	li	s1,2
   12912:	4501                	li	a0,0
   12914:	bee5                	j	1250c <_vfprintf_r+0x1152>
   12916:	85de                	mv	a1,s7
   12918:	8e4a                	mv	t3,s2
   1291a:	8856                	mv	a6,s5
   1291c:	8bbe                	mv	s7,a5
   1291e:	8ada                	mv	s5,s6
   12920:	87a6                	mv	a5,s1
   12922:	8932                	mv	s2,a2
   12924:	86e2                	mv	a3,s8
   12926:	84ae                	mv	s1,a1
   12928:	9956                	add	s2,s2,s5
   1292a:	2705                	addiw	a4,a4,1
   1292c:	00dbb023          	sd	a3,0(s7)
   12930:	015bb423          	sd	s5,8(s7)
   12934:	f9ca                	sd	s2,240(sp)
   12936:	d5ba                	sw	a4,232(sp)
   12938:	469d                	li	a3,7
   1293a:	0bc1                	addi	s7,s7,16
   1293c:	8ce6d3e3          	bge	a3,a4,12202 <_vfprintf_r+0xe48>
   12940:	65a2                	ld	a1,8(sp)
   12942:	6502                	ld	a0,0(sp)
   12944:	1190                	addi	a2,sp,224
   12946:	e142                	sd	a6,128(sp)
   12948:	f0f2                	sd	t3,96(sp)
   1294a:	ecbe                	sd	a5,88(sp)
   1294c:	2f5000ef          	jal	13440 <__sprint_r>
   12950:	e6051363          	bnez	a0,11fb6 <_vfprintf_r+0xbfc>
   12954:	794e                	ld	s2,240(sp)
   12956:	680a                	ld	a6,128(sp)
   12958:	7e06                	ld	t3,96(sp)
   1295a:	67e6                	ld	a5,88(sp)
   1295c:	8bce                	mv	s7,s3
   1295e:	b055                	j	12202 <_vfprintf_r+0xe48>
   12960:	7662                	ld	a2,56(sp)
   12962:	6586                	ld	a1,64(sp)
   12964:	00b66733          	or	a4,a2,a1
   12968:	200703e3          	beqz	a4,1336e <_vfprintf_r+0x1fb4>
   1296c:	7742                	ld	a4,48(sp)
   1296e:	ecea                	sd	s10,88(sp)
   12970:	ed66                	sd	s9,152(sp)
   12972:	7d66                	ld	s10,120(sp)
   12974:	6caa                	ld	s9,136(sp)
   12976:	6aa2                	ld	s5,8(sp)
   12978:	00e78333          	add	t1,a5,a4
   1297c:	68e5                	lui	a7,0x19
   1297e:	8c6e                	mv	s8,s11
   12980:	f0be                	sd	a5,96(sp)
   12982:	874a                	mv	a4,s2
   12984:	87de                	mv	a5,s7
   12986:	58088893          	addi	a7,a7,1408 # 19580 <zeroes.0>
   1298a:	469d                	li	a3,7
   1298c:	4b41                	li	s6,16
   1298e:	e172                	sd	t3,128(sp)
   12990:	8dae                	mv	s11,a1
   12992:	e942                	sd	a6,144(sp)
   12994:	8932                	mv	s2,a2
   12996:	8b9a                	mv	s7,t1
   12998:	07b04c63          	bgtz	s11,12a10 <_vfprintf_r+0x1656>
   1299c:	1d7d                	addi	s10,s10,-1
   1299e:	397d                	addiw	s2,s2,-1
   129a0:	562e                	lw	a2,232(sp)
   129a2:	75c6                	ld	a1,112(sp)
   129a4:	9766                	add	a4,a4,s9
   129a6:	2605                	addiw	a2,a2,1
   129a8:	e38c                	sd	a1,0(a5)
   129aa:	0197b423          	sd	s9,8(a5)
   129ae:	f9ba                	sd	a4,240(sp)
   129b0:	d5b2                	sw	a2,232(sp)
   129b2:	07c1                	addi	a5,a5,16
   129b4:	0cc6c663          	blt	a3,a2,12a80 <_vfprintf_r+0x16c6>
   129b8:	000d4603          	lbu	a2,0(s10)
   129bc:	418b83b3          	sub	t2,s7,s8
   129c0:	0003859b          	sext.w	a1,t2
   129c4:	0006081b          	sext.w	a6,a2
   129c8:	82de                	mv	t0,s7
   129ca:	00b65363          	bge	a2,a1,129d0 <_vfprintf_r+0x1616>
   129ce:	83c2                	mv	t2,a6
   129d0:	0003849b          	sext.w	s1,t2
   129d4:	02905163          	blez	s1,129f6 <_vfprintf_r+0x163c>
   129d8:	562e                	lw	a2,232(sp)
   129da:	9726                	add	a4,a4,s1
   129dc:	f9ba                	sd	a4,240(sp)
   129de:	2605                	addiw	a2,a2,1
   129e0:	0187b023          	sd	s8,0(a5)
   129e4:	e784                	sd	s1,8(a5)
   129e6:	d5b2                	sw	a2,232(sp)
   129e8:	0ac6ca63          	blt	a3,a2,12a9c <_vfprintf_r+0x16e2>
   129ec:	000d4603          	lbu	a2,0(s10)
   129f0:	07c1                	addi	a5,a5,16
   129f2:	0006081b          	sext.w	a6,a2
   129f6:	85a6                	mv	a1,s1
   129f8:	0004d363          	bgez	s1,129fe <_vfprintf_r+0x1644>
   129fc:	4581                	li	a1,0
   129fe:	40b804bb          	subw	s1,a6,a1
   12a02:	00904963          	bgtz	s1,12a14 <_vfprintf_r+0x165a>
   12a06:	9c32                	add	s8,s8,a2
   12a08:	f92048e3          	bgtz	s2,12998 <_vfprintf_r+0x15de>
   12a0c:	2fb05063          	blez	s11,12cec <_vfprintf_r+0x1932>
   12a10:	3dfd                	addiw	s11,s11,-1
   12a12:	b779                	j	129a0 <_vfprintf_r+0x15e6>
   12a14:	65e5                	lui	a1,0x19
   12a16:	562e                	lw	a2,232(sp)
   12a18:	58058593          	addi	a1,a1,1408 # 19580 <zeroes.0>
   12a1c:	049b5663          	bge	s6,s1,12a68 <_vfprintf_r+0x16ae>
   12a20:	fc16                	sd	t0,56(sp)
   12a22:	e0c6                	sd	a7,64(sp)
   12a24:	a021                	j	12a2c <_vfprintf_r+0x1672>
   12a26:	34c1                	addiw	s1,s1,-16
   12a28:	029b5e63          	bge	s6,s1,12a64 <_vfprintf_r+0x16aa>
   12a2c:	0741                	addi	a4,a4,16
   12a2e:	2605                	addiw	a2,a2,1
   12a30:	0117b023          	sd	a7,0(a5)
   12a34:	0167b423          	sd	s6,8(a5)
   12a38:	f9ba                	sd	a4,240(sp)
   12a3a:	d5b2                	sw	a2,232(sp)
   12a3c:	07c1                	addi	a5,a5,16
   12a3e:	fec6d4e3          	bge	a3,a2,12a26 <_vfprintf_r+0x166c>
   12a42:	6502                	ld	a0,0(sp)
   12a44:	1190                	addi	a2,sp,224
   12a46:	85d6                	mv	a1,s5
   12a48:	1f9000ef          	jal	13440 <__sprint_r>
   12a4c:	46051163          	bnez	a0,12eae <_vfprintf_r+0x1af4>
   12a50:	66e5                	lui	a3,0x19
   12a52:	34c1                	addiw	s1,s1,-16
   12a54:	58068893          	addi	a7,a3,1408 # 19580 <zeroes.0>
   12a58:	774e                	ld	a4,240(sp)
   12a5a:	562e                	lw	a2,232(sp)
   12a5c:	87ce                	mv	a5,s3
   12a5e:	469d                	li	a3,7
   12a60:	fc9b46e3          	blt	s6,s1,12a2c <_vfprintf_r+0x1672>
   12a64:	72e2                	ld	t0,56(sp)
   12a66:	6586                	ld	a1,64(sp)
   12a68:	9726                	add	a4,a4,s1
   12a6a:	2605                	addiw	a2,a2,1
   12a6c:	f9ba                	sd	a4,240(sp)
   12a6e:	d5b2                	sw	a2,232(sp)
   12a70:	e38c                	sd	a1,0(a5)
   12a72:	e784                	sd	s1,8(a5)
   12a74:	4cc6c063          	blt	a3,a2,12f34 <_vfprintf_r+0x1b7a>
   12a78:	000d4603          	lbu	a2,0(s10)
   12a7c:	07c1                	addi	a5,a5,16
   12a7e:	b761                	j	12a06 <_vfprintf_r+0x164c>
   12a80:	6502                	ld	a0,0(sp)
   12a82:	1190                	addi	a2,sp,224
   12a84:	85d6                	mv	a1,s5
   12a86:	1bb000ef          	jal	13440 <__sprint_r>
   12a8a:	42051263          	bnez	a0,12eae <_vfprintf_r+0x1af4>
   12a8e:	66e5                	lui	a3,0x19
   12a90:	58068893          	addi	a7,a3,1408 # 19580 <zeroes.0>
   12a94:	774e                	ld	a4,240(sp)
   12a96:	87ce                	mv	a5,s3
   12a98:	469d                	li	a3,7
   12a9a:	bf39                	j	129b8 <_vfprintf_r+0x15fe>
   12a9c:	6502                	ld	a0,0(sp)
   12a9e:	1190                	addi	a2,sp,224
   12aa0:	85d6                	mv	a1,s5
   12aa2:	fc16                	sd	t0,56(sp)
   12aa4:	19d000ef          	jal	13440 <__sprint_r>
   12aa8:	40051363          	bnez	a0,12eae <_vfprintf_r+0x1af4>
   12aac:	000d4603          	lbu	a2,0(s10)
   12ab0:	66e5                	lui	a3,0x19
   12ab2:	58068893          	addi	a7,a3,1408 # 19580 <zeroes.0>
   12ab6:	774e                	ld	a4,240(sp)
   12ab8:	72e2                	ld	t0,56(sp)
   12aba:	87ce                	mv	a5,s3
   12abc:	0006081b          	sext.w	a6,a2
   12ac0:	469d                	li	a3,7
   12ac2:	bf15                	j	129f6 <_vfprintf_r+0x163c>
   12ac4:	0007881b          	sext.w	a6,a5
   12ac8:	b6a9                	j	12612 <_vfprintf_r+0x1258>
   12aca:	65a2                	ld	a1,8(sp)
   12acc:	6502                	ld	a0,0(sp)
   12ace:	1190                	addi	a2,sp,224
   12ad0:	e142                	sd	a6,128(sp)
   12ad2:	f0f2                	sd	t3,96(sp)
   12ad4:	ecbe                	sd	a5,88(sp)
   12ad6:	16b000ef          	jal	13440 <__sprint_r>
   12ada:	cc051e63          	bnez	a0,11fb6 <_vfprintf_r+0xbfc>
   12ade:	794e                	ld	s2,240(sp)
   12ae0:	680a                	ld	a6,128(sp)
   12ae2:	7e06                	ld	t3,96(sp)
   12ae4:	67e6                	ld	a5,88(sp)
   12ae6:	8bce                	mv	s7,s3
   12ae8:	f0cff06f          	j	121f4 <_vfprintf_r+0xe3a>
   12aec:	001e7713          	andi	a4,t3,1
   12af0:	e319                	bnez	a4,12af6 <_vfprintf_r+0x173c>
   12af2:	afbfe06f          	j	115ec <_vfprintf_r+0x232>
   12af6:	66a6                	ld	a3,72(sp)
   12af8:	572e                	lw	a4,232(sp)
   12afa:	6646                	ld	a2,80(sp)
   12afc:	9936                	add	s2,s2,a3
   12afe:	2705                	addiw	a4,a4,1
   12b00:	00dbb423          	sd	a3,8(s7)
   12b04:	f9ca                	sd	s2,240(sp)
   12b06:	00cbb023          	sd	a2,0(s7)
   12b0a:	d5ba                	sw	a4,232(sp)
   12b0c:	469d                	li	a3,7
   12b0e:	3ae6d363          	bge	a3,a4,12eb4 <_vfprintf_r+0x1afa>
   12b12:	65a2                	ld	a1,8(sp)
   12b14:	6502                	ld	a0,0(sp)
   12b16:	1190                	addi	a2,sp,224
   12b18:	ecc2                	sd	a6,88(sp)
   12b1a:	e0f2                	sd	t3,64(sp)
   12b1c:	fc3e                	sd	a5,56(sp)
   12b1e:	123000ef          	jal	13440 <__sprint_r>
   12b22:	c8051a63          	bnez	a0,11fb6 <_vfprintf_r+0xbfc>
   12b26:	564a                	lw	a2,176(sp)
   12b28:	794e                	ld	s2,240(sp)
   12b2a:	572e                	lw	a4,232(sp)
   12b2c:	6866                	ld	a6,88(sp)
   12b2e:	6e06                	ld	t3,64(sp)
   12b30:	77e2                	ld	a5,56(sp)
   12b32:	8bce                	mv	s7,s3
   12b34:	db9fe06f          	j	118ec <_vfprintf_r+0x532>
   12b38:	00d78b33          	add	s6,a5,a3
   12b3c:	41bb0b33          	sub	s6,s6,s11
   12b40:	41568abb          	subw	s5,a3,s5
   12b44:	000b079b          	sext.w	a5,s6
   12b48:	00fad363          	bge	s5,a5,12b4e <_vfprintf_r+0x1794>
   12b4c:	8b56                	mv	s6,s5
   12b4e:	2b01                	sext.w	s6,s6
   12b50:	f22ff06f          	j	12272 <_vfprintf_r+0xeb8>
   12b54:	8bce                	mv	s7,s3
   12b56:	a6dfe06f          	j	115c2 <_vfprintf_r+0x208>
   12b5a:	1682                	slli	a3,a3,0x20
   12b5c:	9281                	srli	a3,a3,0x20
   12b5e:	ec3a                	sd	a4,24(sp)
   12b60:	8826                	mv	a6,s1
   12b62:	8eaff06f          	j	11c4c <_vfprintf_r+0x892>
   12b66:	67c2                	ld	a5,16(sp)
   12b68:	00f71023          	sh	a5,0(a4)
   12b6c:	915fe06f          	j	11480 <_vfprintf_r+0xc6>
   12b70:	1702                	slli	a4,a4,0x20
   12b72:	9301                	srli	a4,a4,0x20
   12b74:	bcb9                	j	125d2 <_vfprintf_r+0x1218>
   12b76:	ec3a                	sd	a4,24(sp)
   12b78:	87ca                	mv	a5,s2
   12b7a:	e49fe06f          	j	119c2 <_vfprintf_r+0x608>
   12b7e:	1902                	slli	s2,s2,0x20
   12b80:	02095913          	srli	s2,s2,0x20
   12b84:	b00ac8e3          	bltz	s5,12694 <_vfprintf_r+0x12da>
   12b88:	ec3a                	sd	a4,24(sp)
   12b8a:	f7fe7e13          	andi	t3,t3,-129
   12b8e:	000a8463          	beqz	s5,12b96 <_vfprintf_r+0x17dc>
   12b92:	eb5fe06f          	j	11a46 <_vfprintf_r+0x68c>
   12b96:	ac090c63          	beqz	s2,11e6e <_vfprintf_r+0xab4>
   12b9a:	eadfe06f          	j	11a46 <_vfprintf_r+0x68c>
   12b9e:	4701                	li	a4,0
   12ba0:	b941                	j	12830 <_vfprintf_r+0x1476>
   12ba2:	4681                	li	a3,0
   12ba4:	ddffe06f          	j	11982 <_vfprintf_r+0x5c8>
   12ba8:	04700793          	li	a5,71
   12bac:	0a714703          	lbu	a4,167(sp)
   12bb0:	61b7d863          	bge	a5,s11,131c0 <_vfprintf_r+0x1e06>
   12bb4:	67e5                	lui	a5,0x19
   12bb6:	25078793          	addi	a5,a5,592 # 19250 <__clzdi2+0x56>
   12bba:	78071e63          	bnez	a4,13356 <_vfprintf_r+0x1f9c>
   12bbe:	488d                	li	a7,3
   12bc0:	8846                	mv	a6,a7
   12bc2:	4a81                	li	s5,0
   12bc4:	e082                	sd	zero,64(sp)
   12bc6:	fc02                	sd	zero,56(sp)
   12bc8:	f002                	sd	zero,32(sp)
   12bca:	99bfe06f          	j	11564 <_vfprintf_r+0x1aa>
   12bce:	67e5                	lui	a5,0x19
   12bd0:	24078793          	addi	a5,a5,576 # 19240 <__clzdi2+0x46>
   12bd4:	b919                	j	127ea <_vfprintf_r+0x1430>
   12bd6:	6e0b4663          	bltz	s6,132c2 <_vfprintf_r+0x1f08>
   12bda:	ec82                	sd	zero,88(sp)
   12bdc:	4a99                	li	s5,6
   12bde:	04600793          	li	a5,70
   12be2:	2cf91c63          	bne	s2,a5,12eba <_vfprintf_r+0x1b00>
   12be6:	6502                	ld	a0,0(sp)
   12be8:	191c                	addi	a5,sp,176
   12bea:	8756                	mv	a4,s5
   12bec:	468d                	li	a3,3
   12bee:	865a                	mv	a2,s6
   12bf0:	0c810893          	addi	a7,sp,200
   12bf4:	0b410813          	addi	a6,sp,180
   12bf8:	85a6                	mv	a1,s1
   12bfa:	f872                	sd	t3,48(sp)
   12bfc:	490010ef          	jal	1408c <_ldtoa_r>
   12c00:	00054603          	lbu	a2,0(a0)
   12c04:	03000693          	li	a3,48
   12c08:	7e42                	ld	t3,48(sp)
   12c0a:	87aa                	mv	a5,a0
   12c0c:	01550733          	add	a4,a0,s5
   12c10:	5cd60763          	beq	a2,a3,131de <_vfprintf_r+0x1e24>
   12c14:	56ca                	lw	a3,176(sp)
   12c16:	00d70c33          	add	s8,a4,a3
   12c1a:	8526                	mv	a0,s1
   12c1c:	85da                	mv	a1,s6
   12c1e:	4601                	li	a2,0
   12c20:	4681                	li	a3,0
   12c22:	fc72                	sd	t3,56(sp)
   12c24:	f83e                	sd	a5,48(sp)
   12c26:	3a8050ef          	jal	17fce <__eqtf2>
   12c2a:	77c2                	ld	a5,48(sp)
   12c2c:	7e62                	ld	t3,56(sp)
   12c2e:	56050f63          	beqz	a0,131ac <_vfprintf_r+0x1df2>
   12c32:	68ae                	ld	a7,200(sp)
   12c34:	7588f763          	bgeu	a7,s8,13382 <_vfprintf_r+0x1fc8>
   12c38:	03000693          	li	a3,48
   12c3c:	00188713          	addi	a4,a7,1
   12c40:	e5ba                	sd	a4,200(sp)
   12c42:	00d88023          	sb	a3,0(a7)
   12c46:	68ae                	ld	a7,200(sp)
   12c48:	ff88eae3          	bltu	a7,s8,12c3c <_vfprintf_r+0x1882>
   12c4c:	40f888b3          	sub	a7,a7,a5
   12c50:	0008869b          	sext.w	a3,a7
   12c54:	04700713          	li	a4,71
   12c58:	f836                	sd	a3,48(sp)
   12c5a:	54ca                	lw	s1,176(sp)
   12c5c:	0ee90b63          	beq	s2,a4,12d52 <_vfprintf_r+0x1998>
   12c60:	04600713          	li	a4,70
   12c64:	0ee91d63          	bne	s2,a4,12d5e <_vfprintf_r+0x19a4>
   12c68:	001e7713          	andi	a4,t3,1
   12c6c:	00eae733          	or	a4,s5,a4
   12c70:	2701                	sext.w	a4,a4
   12c72:	66905563          	blez	s1,132dc <_vfprintf_r+0x1f22>
   12c76:	54071963          	bnez	a4,131c8 <_vfprintf_r+0x1e0e>
   12c7a:	88a6                	mv	a7,s1
   12c7c:	06600d93          	li	s11,102
   12c80:	400e7f13          	andi	t5,t3,1024
   12c84:	4e0f1763          	bnez	t5,13172 <_vfprintf_r+0x1db8>
   12c88:	0008881b          	sext.w	a6,a7
   12c8c:	0008d363          	bgez	a7,12c92 <_vfprintf_r+0x18d8>
   12c90:	4801                	li	a6,0
   12c92:	6766                	ld	a4,88(sp)
   12c94:	36070663          	beqz	a4,13000 <_vfprintf_r+0x1c46>
   12c98:	02d00713          	li	a4,45
   12c9c:	0ae103a3          	sb	a4,167(sp)
   12ca0:	2805                	addiw	a6,a6,1
   12ca2:	7e02                	ld	t3,32(sp)
   12ca4:	4a81                	li	s5,0
   12ca6:	f002                	sd	zero,32(sp)
   12ca8:	e082                	sd	zero,64(sp)
   12caa:	fc02                	sd	zero,56(sp)
   12cac:	8b9fe06f          	j	11564 <_vfprintf_r+0x1aa>
   12cb0:	07800793          	li	a5,120
   12cb4:	a33fe06f          	j	116e6 <_vfprintf_r+0x32c>
   12cb8:	6502                	ld	a0,0(sp)
   12cba:	001a859b          	addiw	a1,s5,1
   12cbe:	f072                	sd	t3,32(sp)
   12cc0:	880fe0ef          	jal	10d40 <_malloc_r>
   12cc4:	7e02                	ld	t3,32(sp)
   12cc6:	87aa                	mv	a5,a0
   12cc8:	6c050263          	beqz	a0,1338c <_vfprintf_r+0x1fd2>
   12ccc:	65ee                	ld	a1,216(sp)
   12cce:	f03e                	sd	a5,32(sp)
   12cd0:	ec82                	sd	zero,88(sp)
   12cd2:	654e                	ld	a0,208(sp)
   12cd4:	0005c463          	bltz	a1,12cdc <_vfprintf_r+0x1922>
   12cd8:	a31fe06f          	j	11708 <_vfprintf_r+0x34e>
   12cdc:	577d                	li	a4,-1
   12cde:	177e                	slli	a4,a4,0x3f
   12ce0:	8db9                	xor	a1,a1,a4
   12ce2:	02d00713          	li	a4,45
   12ce6:	ecba                	sd	a4,88(sp)
   12ce8:	a21fe06f          	j	11708 <_vfprintf_r+0x34e>
   12cec:	8bbe                	mv	s7,a5
   12cee:	fcea                	sd	s10,120(sp)
   12cf0:	7786                	ld	a5,96(sp)
   12cf2:	6e0a                	ld	t3,128(sp)
   12cf4:	6d66                	ld	s10,88(sp)
   12cf6:	684a                	ld	a6,144(sp)
   12cf8:	6cea                	ld	s9,152(sp)
   12cfa:	8de2                	mv	s11,s8
   12cfc:	893a                	mv	s2,a4
   12cfe:	8c16                	mv	s8,t0
   12d00:	d1bc7763          	bgeu	s8,s11,1220e <_vfprintf_r+0xe54>
   12d04:	8de2                	mv	s11,s8
   12d06:	d08ff06f          	j	1220e <_vfprintf_r+0xe54>
   12d0a:	000b5863          	bgez	s6,12d1a <_vfprintf_r+0x1960>
   12d0e:	17fe                	slli	a5,a5,0x3f
   12d10:	00fb4b33          	xor	s6,s6,a5
   12d14:	02d00793          	li	a5,45
   12d18:	ecbe                	sd	a5,88(sp)
   12d1a:	6502                	ld	a0,0(sp)
   12d1c:	191c                	addi	a5,sp,176
   12d1e:	0c810893          	addi	a7,sp,200
   12d22:	0b410813          	addi	a6,sp,180
   12d26:	4705                	li	a4,1
   12d28:	4689                	li	a3,2
   12d2a:	85a6                	mv	a1,s1
   12d2c:	865a                	mv	a2,s6
   12d2e:	fc72                	sd	t3,56(sp)
   12d30:	35c010ef          	jal	1408c <_ldtoa_r>
   12d34:	7e62                	ld	t3,56(sp)
   12d36:	4a85                	li	s5,1
   12d38:	87aa                	mv	a5,a0
   12d3a:	f856                	sd	s5,48(sp)
   12d3c:	001e7713          	andi	a4,t3,1
   12d40:	34071d63          	bnez	a4,1309a <_vfprintf_r+0x1ce0>
   12d44:	68ae                	ld	a7,200(sp)
   12d46:	54ca                	lw	s1,176(sp)
   12d48:	40f888b3          	sub	a7,a7,a5
   12d4c:	0008871b          	sext.w	a4,a7
   12d50:	f83a                	sd	a4,48(sp)
   12d52:	ffd4a713          	slti	a4,s1,-3
   12d56:	e319                	bnez	a4,12d5c <_vfprintf_r+0x19a2>
   12d58:	0c9add63          	bge	s5,s1,12e32 <_vfprintf_r+0x1a78>
   12d5c:	3df9                	addiw	s11,s11,-2
   12d5e:	fff4871b          	addiw	a4,s1,-1
   12d62:	0bb10c23          	sb	s11,184(sp)
   12d66:	d93a                	sw	a4,176(sp)
   12d68:	48074d63          	bltz	a4,13202 <_vfprintf_r+0x1e48>
   12d6c:	02b00693          	li	a3,43
   12d70:	0ad10ca3          	sb	a3,185(sp)
   12d74:	46a5                	li	a3,9
   12d76:	48e6df63          	bge	a3,a4,13214 <_vfprintf_r+0x1e5a>
   12d7a:	fc72                	sd	t3,56(sp)
   12d7c:	f002                	sd	zero,32(sp)
   12d7e:	0c710f13          	addi	t5,sp,199
   12d82:	666668b7          	lui	a7,0x66666
   12d86:	857a                	mv	a0,t5
   12d88:	66788893          	addi	a7,a7,1639 # 66666667 <__BSS_END__+0x6664aa57>
   12d8c:	06300f93          	li	t6,99
   12d90:	031706b3          	mul	a3,a4,a7
   12d94:	41f7561b          	sraiw	a2,a4,0x1f
   12d98:	883a                	mv	a6,a4
   12d9a:	85aa                	mv	a1,a0
   12d9c:	157d                	addi	a0,a0,-1
   12d9e:	9689                	srai	a3,a3,0x22
   12da0:	9e91                	subw	a3,a3,a2
   12da2:	0026961b          	slliw	a2,a3,0x2
   12da6:	9e35                	addw	a2,a2,a3
   12da8:	0016161b          	slliw	a2,a2,0x1
   12dac:	9f11                	subw	a4,a4,a2
   12dae:	0307071b          	addiw	a4,a4,48
   12db2:	fee58fa3          	sb	a4,-1(a1)
   12db6:	8736                	mv	a4,a3
   12db8:	fd0fcce3          	blt	t6,a6,12d90 <_vfprintf_r+0x19d6>
   12dbc:	0306871b          	addiw	a4,a3,48
   12dc0:	fee50fa3          	sb	a4,-1(a0)
   12dc4:	ffe58713          	addi	a4,a1,-2
   12dc8:	57e77b63          	bgeu	a4,t5,1333e <_vfprintf_r+0x1f84>
   12dcc:	0ba10513          	addi	a0,sp,186
   12dd0:	86aa                	mv	a3,a0
   12dd2:	00074603          	lbu	a2,0(a4)
   12dd6:	0705                	addi	a4,a4,1
   12dd8:	0685                	addi	a3,a3,1
   12dda:	fec68fa3          	sb	a2,-1(a3)
   12dde:	ffe71ae3          	bne	a4,t5,12dd2 <_vfprintf_r+0x1a18>
   12de2:	972a                	add	a4,a4,a0
   12de4:	0709                	addi	a4,a4,2
   12de6:	8f0d                	sub	a4,a4,a1
   12de8:	1934                	addi	a3,sp,184
   12dea:	9f15                	subw	a4,a4,a3
   12dec:	f4ba                	sd	a4,104(sp)
   12dee:	7642                	ld	a2,48(sp)
   12df0:	7726                	ld	a4,104(sp)
   12df2:	4685                	li	a3,1
   12df4:	9f31                	addw	a4,a4,a2
   12df6:	88ba                	mv	a7,a4
   12df8:	30c6d363          	bge	a3,a2,130fe <_vfprintf_r+0x1d44>
   12dfc:	66a6                	ld	a3,72(sp)
   12dfe:	00e688bb          	addw	a7,a3,a4
   12e02:	7762                	ld	a4,56(sp)
   12e04:	0008881b          	sext.w	a6,a7
   12e08:	bff77f13          	andi	t5,a4,-1025
   12e0c:	100f6e13          	ori	t3,t5,256
   12e10:	0008d363          	bgez	a7,12e16 <_vfprintf_r+0x1a5c>
   12e14:	4801                	li	a6,0
   12e16:	7762                	ld	a4,56(sp)
   12e18:	00277493          	andi	s1,a4,2
   12e1c:	6766                	ld	a4,88(sp)
   12e1e:	2a070763          	beqz	a4,130cc <_vfprintf_r+0x1d12>
   12e22:	02d00513          	li	a0,45
   12e26:	0aa103a3          	sb	a0,167(sp)
   12e2a:	4a81                	li	s5,0
   12e2c:	2805                	addiw	a6,a6,1
   12e2e:	bbffe06f          	j	119ec <_vfprintf_r+0x632>
   12e32:	7742                	ld	a4,48(sp)
   12e34:	02e4c663          	blt	s1,a4,12e60 <_vfprintf_r+0x1aa6>
   12e38:	001e7713          	andi	a4,t3,1
   12e3c:	88a6                	mv	a7,s1
   12e3e:	c701                	beqz	a4,12e46 <_vfprintf_r+0x1a8c>
   12e40:	6726                	ld	a4,72(sp)
   12e42:	009708bb          	addw	a7,a4,s1
   12e46:	400e7f13          	andi	t5,t3,1024
   12e4a:	000f0463          	beqz	t5,12e52 <_vfprintf_r+0x1a98>
   12e4e:	32904063          	bgtz	s1,1316e <_vfprintf_r+0x1db4>
   12e52:	0008881b          	sext.w	a6,a7
   12e56:	0208c363          	bltz	a7,12e7c <_vfprintf_r+0x1ac2>
   12e5a:	06700d93          	li	s11,103
   12e5e:	bd15                	j	12c92 <_vfprintf_r+0x18d8>
   12e60:	6726                	ld	a4,72(sp)
   12e62:	06700d93          	li	s11,103
   12e66:	011708bb          	addw	a7,a4,a7
   12e6a:	e0904be3          	bgtz	s1,12c80 <_vfprintf_r+0x18c6>
   12e6e:	409888bb          	subw	a7,a7,s1
   12e72:	2885                	addiw	a7,a7,1
   12e74:	0008881b          	sext.w	a6,a7
   12e78:	fe08d1e3          	bgez	a7,12e5a <_vfprintf_r+0x1aa0>
   12e7c:	4801                	li	a6,0
   12e7e:	06700d93          	li	s11,103
   12e82:	bd01                	j	12c92 <_vfprintf_r+0x18d8>
   12e84:	58068693          	addi	a3,a3,1408
   12e88:	ba29                	j	127a2 <_vfprintf_r+0x13e8>
   12e8a:	65a2                	ld	a1,8(sp)
   12e8c:	6502                	ld	a0,0(sp)
   12e8e:	1190                	addi	a2,sp,224
   12e90:	ecc2                	sd	a6,88(sp)
   12e92:	e0f2                	sd	t3,64(sp)
   12e94:	fc3e                	sd	a5,56(sp)
   12e96:	5aa000ef          	jal	13440 <__sprint_r>
   12e9a:	90051e63          	bnez	a0,11fb6 <_vfprintf_r+0xbfc>
   12e9e:	564a                	lw	a2,176(sp)
   12ea0:	794e                	ld	s2,240(sp)
   12ea2:	6866                	ld	a6,88(sp)
   12ea4:	6e06                	ld	t3,64(sp)
   12ea6:	77e2                	ld	a5,56(sp)
   12ea8:	8bce                	mv	s7,s3
   12eaa:	a17fe06f          	j	118c0 <_vfprintf_r+0x506>
   12eae:	84d6                	mv	s1,s5
   12eb0:	908ff06f          	j	11fb8 <_vfprintf_r+0xbfe>
   12eb4:	0bc1                	addi	s7,s7,16
   12eb6:	a3ffe06f          	j	118f4 <_vfprintf_r+0x53a>
   12eba:	fbb90793          	addi	a5,s2,-69
   12ebe:	6502                	ld	a0,0(sp)
   12ec0:	0017b793          	seqz	a5,a5
   12ec4:	015787bb          	addw	a5,a5,s5
   12ec8:	873e                	mv	a4,a5
   12eca:	f83e                	sd	a5,48(sp)
   12ecc:	0c810893          	addi	a7,sp,200
   12ed0:	191c                	addi	a5,sp,176
   12ed2:	0b410813          	addi	a6,sp,180
   12ed6:	4689                	li	a3,2
   12ed8:	85a6                	mv	a1,s1
   12eda:	865a                	mv	a2,s6
   12edc:	fc72                	sd	t3,56(sp)
   12ede:	1ae010ef          	jal	1408c <_ldtoa_r>
   12ee2:	04700713          	li	a4,71
   12ee6:	7e62                	ld	t3,56(sp)
   12ee8:	87aa                	mv	a5,a0
   12eea:	e4e909e3          	beq	s2,a4,12d3c <_vfprintf_r+0x1982>
   12eee:	fc2a                	sd	a0,56(sp)
   12ef0:	85da                	mv	a1,s6
   12ef2:	8526                	mv	a0,s1
   12ef4:	4601                	li	a2,0
   12ef6:	4681                	li	a3,0
   12ef8:	e0f2                	sd	t3,64(sp)
   12efa:	0d4050ef          	jal	17fce <__eqtf2>
   12efe:	77e2                	ld	a5,56(sp)
   12f00:	6e06                	ld	t3,64(sp)
   12f02:	46050a63          	beqz	a0,13376 <_vfprintf_r+0x1fbc>
   12f06:	7742                	ld	a4,48(sp)
   12f08:	68ae                	ld	a7,200(sp)
   12f0a:	00e78c33          	add	s8,a5,a4
   12f0e:	d388e5e3          	bltu	a7,s8,12c38 <_vfprintf_r+0x187e>
   12f12:	40f8873b          	subw	a4,a7,a5
   12f16:	54ca                	lw	s1,176(sp)
   12f18:	f83a                	sd	a4,48(sp)
   12f1a:	b591                	j	12d5e <_vfprintf_r+0x19a4>
   12f1c:	02d00793          	li	a5,45
   12f20:	0af103a3          	sb	a5,167(sp)
   12f24:	04700793          	li	a5,71
   12f28:	1bb7de63          	bge	a5,s11,130e4 <_vfprintf_r+0x1d2a>
   12f2c:	67e5                	lui	a5,0x19
   12f2e:	24078793          	addi	a5,a5,576 # 19240 <__clzdi2+0x46>
   12f32:	b2c9                	j	128f4 <_vfprintf_r+0x153a>
   12f34:	6502                	ld	a0,0(sp)
   12f36:	1190                	addi	a2,sp,224
   12f38:	85d6                	mv	a1,s5
   12f3a:	fc16                	sd	t0,56(sp)
   12f3c:	504000ef          	jal	13440 <__sprint_r>
   12f40:	f53d                	bnez	a0,12eae <_vfprintf_r+0x1af4>
   12f42:	66e5                	lui	a3,0x19
   12f44:	58068893          	addi	a7,a3,1408 # 19580 <zeroes.0>
   12f48:	000d4603          	lbu	a2,0(s10)
   12f4c:	774e                	ld	a4,240(sp)
   12f4e:	72e2                	ld	t0,56(sp)
   12f50:	87ce                	mv	a5,s3
   12f52:	469d                	li	a3,7
   12f54:	bc4d                	j	12a06 <_vfprintf_r+0x164c>
   12f56:	65a2                	ld	a1,8(sp)
   12f58:	6502                	ld	a0,0(sp)
   12f5a:	1190                	addi	a2,sp,224
   12f5c:	ecc2                	sd	a6,88(sp)
   12f5e:	e0f2                	sd	t3,64(sp)
   12f60:	fc3e                	sd	a5,56(sp)
   12f62:	4de000ef          	jal	13440 <__sprint_r>
   12f66:	c119                	beqz	a0,12f6c <_vfprintf_r+0x1bb2>
   12f68:	84eff06f          	j	11fb6 <_vfprintf_r+0xbfc>
   12f6c:	5aca                	lw	s5,176(sp)
   12f6e:	794e                	ld	s2,240(sp)
   12f70:	6866                	ld	a6,88(sp)
   12f72:	6e06                	ld	t3,64(sp)
   12f74:	77e2                	ld	a5,56(sp)
   12f76:	8bce                	mv	s7,s3
   12f78:	ac4ff06f          	j	1223c <_vfprintf_r+0xe82>
   12f7c:	ec26                	sd	s1,24(sp)
   12f7e:	16070863          	beqz	a4,130ee <_vfprintf_r+0x1d34>
   12f82:	001a881b          	addiw	a6,s5,1
   12f86:	88d6                	mv	a7,s5
   12f88:	e082                	sd	zero,64(sp)
   12f8a:	4a81                	li	s5,0
   12f8c:	fc02                	sd	zero,56(sp)
   12f8e:	4481                	li	s1,0
   12f90:	dd4fe06f          	j	11564 <_vfprintf_r+0x1aa>
   12f94:	59068693          	addi	a3,a3,1424
   12f98:	ba4ff06f          	j	1233c <_vfprintf_r+0xf82>
   12f9c:	662a                	ld	a2,136(sp)
   12f9e:	75c6                	ld	a1,112(sp)
   12fa0:	e0c6                	sd	a7,64(sp)
   12fa2:	40c78333          	sub	t1,a5,a2
   12fa6:	851a                	mv	a0,t1
   12fa8:	fc42                	sd	a6,56(sp)
   12faa:	f872                	sd	t3,48(sp)
   12fac:	f01a                	sd	t1,32(sp)
   12fae:	46f000ef          	jal	13c1c <strncpy>
   12fb2:	ccccd7b7          	lui	a5,0xccccd
   12fb6:	ccd78793          	addi	a5,a5,-819 # ffffffffcccccccd <__BSS_END__+0xffffffffcccb10bd>
   12fba:	02079713          	slli	a4,a5,0x20
   12fbe:	973e                	add	a4,a4,a5
   12fc0:	02e93933          	mulhu	s2,s2,a4
   12fc4:	0014c683          	lbu	a3,1(s1)
   12fc8:	7302                	ld	t1,32(sp)
   12fca:	7e42                	ld	t3,48(sp)
   12fcc:	00d036b3          	snez	a3,a3
   12fd0:	94b6                	add	s1,s1,a3
   12fd2:	7862                	ld	a6,56(sp)
   12fd4:	6886                	ld	a7,64(sp)
   12fd6:	fff30793          	addi	a5,t1,-1
   12fda:	4585                	li	a1,1
   12fdc:	00395913          	srli	s2,s2,0x3
   12fe0:	02e93733          	mulhu	a4,s2,a4
   12fe4:	00375693          	srli	a3,a4,0x3
   12fe8:	00269713          	slli	a4,a3,0x2
   12fec:	9736                	add	a4,a4,a3
   12fee:	0706                	slli	a4,a4,0x1
   12ff0:	40e90733          	sub	a4,s2,a4
   12ff4:	0307071b          	addiw	a4,a4,48
   12ff8:	fee30fa3          	sb	a4,-1(t1)
   12ffc:	ba7fe06f          	j	11ba2 <_vfprintf_r+0x7e8>
   13000:	0a714703          	lbu	a4,167(sp)
   13004:	c8070fe3          	beqz	a4,12ca2 <_vfprintf_r+0x18e8>
   13008:	2805                	addiw	a6,a6,1
   1300a:	b961                	j	12ca2 <_vfprintf_r+0x18e8>
   1300c:	65a2                	ld	a1,8(sp)
   1300e:	6502                	ld	a0,0(sp)
   13010:	1190                	addi	a2,sp,224
   13012:	e0c2                	sd	a6,64(sp)
   13014:	fc72                	sd	t3,56(sp)
   13016:	42a000ef          	jal	13440 <__sprint_r>
   1301a:	c119                	beqz	a0,13020 <_vfprintf_r+0x1c66>
   1301c:	f9bfe06f          	j	11fb6 <_vfprintf_r+0xbfc>
   13020:	5aca                	lw	s5,176(sp)
   13022:	77c2                	ld	a5,48(sp)
   13024:	794e                	ld	s2,240(sp)
   13026:	6806                	ld	a6,64(sp)
   13028:	7e62                	ld	t3,56(sp)
   1302a:	8bce                	mv	s7,s3
   1302c:	41578abb          	subw	s5,a5,s5
   13030:	a42ff06f          	j	12272 <_vfprintf_r+0xeb8>
   13034:	59068693          	addi	a3,a3,1424
   13038:	91aff06f          	j	12152 <_vfprintf_r+0xd98>
   1303c:	56c1                	li	a3,-16
   1303e:	40c00abb          	negw	s5,a2
   13042:	30d65663          	bge	a2,a3,1334e <_vfprintf_r+0x1f94>
   13046:	66e5                	lui	a3,0x19
   13048:	fc3e                	sd	a5,56(sp)
   1304a:	4b41                	li	s6,16
   1304c:	87ca                	mv	a5,s2
   1304e:	4d9d                	li	s11,7
   13050:	8c72                	mv	s8,t3
   13052:	8942                	mv	s2,a6
   13054:	58068493          	addi	s1,a3,1408 # 19580 <zeroes.0>
   13058:	a021                	j	13060 <_vfprintf_r+0x1ca6>
   1305a:	3ac1                	addiw	s5,s5,-16
   1305c:	0b5b5663          	bge	s6,s5,13108 <_vfprintf_r+0x1d4e>
   13060:	07c1                	addi	a5,a5,16
   13062:	2705                	addiw	a4,a4,1
   13064:	009bb023          	sd	s1,0(s7)
   13068:	016bb423          	sd	s6,8(s7)
   1306c:	f9be                	sd	a5,240(sp)
   1306e:	d5ba                	sw	a4,232(sp)
   13070:	0bc1                	addi	s7,s7,16
   13072:	feedd4e3          	bge	s11,a4,1305a <_vfprintf_r+0x1ca0>
   13076:	65a2                	ld	a1,8(sp)
   13078:	6502                	ld	a0,0(sp)
   1307a:	1190                	addi	a2,sp,224
   1307c:	3c4000ef          	jal	13440 <__sprint_r>
   13080:	c119                	beqz	a0,13086 <_vfprintf_r+0x1ccc>
   13082:	f35fe06f          	j	11fb6 <_vfprintf_r+0xbfc>
   13086:	77ce                	ld	a5,240(sp)
   13088:	572e                	lw	a4,232(sp)
   1308a:	8bce                	mv	s7,s3
   1308c:	b7f9                	j	1305a <_vfprintf_r+0x1ca0>
   1308e:	8f26                	mv	t5,s1
   13090:	a6dfe06f          	j	11afc <_vfprintf_r+0x742>
   13094:	8f26                	mv	t5,s1
   13096:	bdeff06f          	j	12474 <_vfprintf_r+0x10ba>
   1309a:	8526                	mv	a0,s1
   1309c:	85da                	mv	a1,s6
   1309e:	4601                	li	a2,0
   130a0:	4681                	li	a3,0
   130a2:	e0f2                	sd	t3,64(sp)
   130a4:	fc3e                	sd	a5,56(sp)
   130a6:	729040ef          	jal	17fce <__eqtf2>
   130aa:	77e2                	ld	a5,56(sp)
   130ac:	6e06                	ld	t3,64(sp)
   130ae:	12050563          	beqz	a0,131d8 <_vfprintf_r+0x1e1e>
   130b2:	7742                	ld	a4,48(sp)
   130b4:	68ae                	ld	a7,200(sp)
   130b6:	00e78c33          	add	s8,a5,a4
   130ba:	b788efe3          	bltu	a7,s8,12c38 <_vfprintf_r+0x187e>
   130be:	40f888b3          	sub	a7,a7,a5
   130c2:	0008871b          	sext.w	a4,a7
   130c6:	54ca                	lw	s1,176(sp)
   130c8:	f83a                	sd	a4,48(sp)
   130ca:	b161                	j	12d52 <_vfprintf_r+0x1998>
   130cc:	0a714503          	lbu	a0,167(sp)
   130d0:	4a81                	li	s5,0
   130d2:	c119                	beqz	a0,130d8 <_vfprintf_r+0x1d1e>
   130d4:	999fe06f          	j	11a6c <_vfprintf_r+0x6b2>
   130d8:	915fe06f          	j	119ec <_vfprintf_r+0x632>
   130dc:	58068693          	addi	a3,a3,1408
   130e0:	e8dfe06f          	j	11f6c <_vfprintf_r+0xbb2>
   130e4:	67e5                	lui	a5,0x19
   130e6:	23878793          	addi	a5,a5,568 # 19238 <__clzdi2+0x3e>
   130ea:	80bff06f          	j	128f4 <_vfprintf_r+0x153a>
   130ee:	88d6                	mv	a7,s5
   130f0:	8856                	mv	a6,s5
   130f2:	e082                	sd	zero,64(sp)
   130f4:	4a81                	li	s5,0
   130f6:	fc02                	sd	zero,56(sp)
   130f8:	4481                	li	s1,0
   130fa:	c6afe06f          	j	11564 <_vfprintf_r+0x1aa>
   130fe:	76e2                	ld	a3,56(sp)
   13100:	8a85                	andi	a3,a3,1
   13102:	d00680e3          	beqz	a3,12e02 <_vfprintf_r+0x1a48>
   13106:	b9dd                	j	12dfc <_vfprintf_r+0x1a42>
   13108:	884a                	mv	a6,s2
   1310a:	893e                	mv	s2,a5
   1310c:	77e2                	ld	a5,56(sp)
   1310e:	8e62                	mv	t3,s8
   13110:	86a6                	mv	a3,s1
   13112:	9956                	add	s2,s2,s5
   13114:	2705                	addiw	a4,a4,1
   13116:	00dbb023          	sd	a3,0(s7)
   1311a:	f9ca                	sd	s2,240(sp)
   1311c:	d5ba                	sw	a4,232(sp)
   1311e:	015bb423          	sd	s5,8(s7)
   13122:	469d                	li	a3,7
   13124:	d8e6d8e3          	bge	a3,a4,12eb4 <_vfprintf_r+0x1afa>
   13128:	65a2                	ld	a1,8(sp)
   1312a:	6502                	ld	a0,0(sp)
   1312c:	1190                	addi	a2,sp,224
   1312e:	ecc2                	sd	a6,88(sp)
   13130:	e0f2                	sd	t3,64(sp)
   13132:	fc3e                	sd	a5,56(sp)
   13134:	30c000ef          	jal	13440 <__sprint_r>
   13138:	c119                	beqz	a0,1313e <_vfprintf_r+0x1d84>
   1313a:	e7dfe06f          	j	11fb6 <_vfprintf_r+0xbfc>
   1313e:	794e                	ld	s2,240(sp)
   13140:	572e                	lw	a4,232(sp)
   13142:	6866                	ld	a6,88(sp)
   13144:	6e06                	ld	t3,64(sp)
   13146:	77e2                	ld	a5,56(sp)
   13148:	8bce                	mv	s7,s3
   1314a:	faafe06f          	j	118f4 <_vfprintf_r+0x53a>
   1314e:	c31c                	sw	a5,0(a4)
   13150:	b30fe06f          	j	11480 <_vfprintf_r+0xc6>
   13154:	57fd                	li	a5,-1
   13156:	17fe                	slli	a5,a5,0x3f
   13158:	8dbd                	xor	a1,a1,a5
   1315a:	02d00793          	li	a5,45
   1315e:	ecbe                	sd	a5,88(sp)
   13160:	f002                	sd	zero,32(sp)
   13162:	19bc                	addi	a5,sp,248
   13164:	da4fe06f          	j	11708 <_vfprintf_r+0x34e>
   13168:	64a2                	ld	s1,8(sp)
   1316a:	e59fe06f          	j	11fc2 <_vfprintf_r+0xc08>
   1316e:	06700d93          	li	s11,103
   13172:	7666                	ld	a2,120(sp)
   13174:	00064703          	lbu	a4,0(a2)
   13178:	f0170693          	addi	a3,a4,-255
   1317c:	1e068f63          	beqz	a3,1337a <_vfprintf_r+0x1fc0>
   13180:	1e975d63          	bge	a4,s1,1337a <_vfprintf_r+0x1fc0>
   13184:	46aa                	lw	a3,136(sp)
   13186:	4801                	li	a6,0
   13188:	4501                	li	a0,0
   1318a:	a809                	j	1319c <_vfprintf_r+0x1de2>
   1318c:	2505                	addiw	a0,a0,1
   1318e:	0605                	addi	a2,a2,1
   13190:	f0170593          	addi	a1,a4,-255
   13194:	2701                	sext.w	a4,a4
   13196:	c9c9                	beqz	a1,13228 <_vfprintf_r+0x1e6e>
   13198:	08975863          	bge	a4,s1,13228 <_vfprintf_r+0x1e6e>
   1319c:	9c99                	subw	s1,s1,a4
   1319e:	00164703          	lbu	a4,1(a2)
   131a2:	f76d                	bnez	a4,1318c <_vfprintf_r+0x1dd2>
   131a4:	00064703          	lbu	a4,0(a2)
   131a8:	2805                	addiw	a6,a6,1
   131aa:	b7dd                	j	13190 <_vfprintf_r+0x1dd6>
   131ac:	40fc073b          	subw	a4,s8,a5
   131b0:	54ca                	lw	s1,176(sp)
   131b2:	f83a                	sd	a4,48(sp)
   131b4:	bc55                	j	12c68 <_vfprintf_r+0x18ae>
   131b6:	67e5                	lui	a5,0x19
   131b8:	24878793          	addi	a5,a5,584 # 19248 <__clzdi2+0x4e>
   131bc:	f38ff06f          	j	128f4 <_vfprintf_r+0x153a>
   131c0:	67e5                	lui	a5,0x19
   131c2:	24878793          	addi	a5,a5,584 # 19248 <__clzdi2+0x4e>
   131c6:	bad5                	j	12bba <_vfprintf_r+0x1800>
   131c8:	6726                	ld	a4,72(sp)
   131ca:	009a88bb          	addw	a7,s5,s1
   131ce:	06600d93          	li	s11,102
   131d2:	00e888bb          	addw	a7,a7,a4
   131d6:	b46d                	j	12c80 <_vfprintf_r+0x18c6>
   131d8:	54ca                	lw	s1,176(sp)
   131da:	78c2                	ld	a7,48(sp)
   131dc:	be9d                	j	12d52 <_vfprintf_r+0x1998>
   131de:	4601                	li	a2,0
   131e0:	4681                	li	a3,0
   131e2:	8526                	mv	a0,s1
   131e4:	85da                	mv	a1,s6
   131e6:	e0f2                	sd	t3,64(sp)
   131e8:	fc3e                	sd	a5,56(sp)
   131ea:	f83a                	sd	a4,48(sp)
   131ec:	5e3040ef          	jal	17fce <__eqtf2>
   131f0:	7742                	ld	a4,48(sp)
   131f2:	77e2                	ld	a5,56(sp)
   131f4:	6e06                	ld	t3,64(sp)
   131f6:	ed71                	bnez	a0,132d2 <_vfprintf_r+0x1f18>
   131f8:	54ca                	lw	s1,176(sp)
   131fa:	9726                	add	a4,a4,s1
   131fc:	9f1d                	subw	a4,a4,a5
   131fe:	f83a                	sd	a4,48(sp)
   13200:	b485                	j	12c60 <_vfprintf_r+0x18a6>
   13202:	02d00713          	li	a4,45
   13206:	0ae10ca3          	sb	a4,185(sp)
   1320a:	56e1                	li	a3,-8
   1320c:	4705                	li	a4,1
   1320e:	9f05                	subw	a4,a4,s1
   13210:	b6d4c5e3          	blt	s1,a3,12d7a <_vfprintf_r+0x19c0>
   13214:	03000693          	li	a3,48
   13218:	0ad10d23          	sb	a3,186(sp)
   1321c:	fc72                	sd	t3,56(sp)
   1321e:	f002                	sd	zero,32(sp)
   13220:	0bb10693          	addi	a3,sp,187
   13224:	e38fe06f          	j	1185c <_vfprintf_r+0x4a2>
   13228:	00a8073b          	addw	a4,a6,a0
   1322c:	02d7073b          	mulw	a4,a4,a3
   13230:	fcb2                	sd	a2,120(sp)
   13232:	fc2a                	sd	a0,56(sp)
   13234:	e0c2                	sd	a6,64(sp)
   13236:	00e888bb          	addw	a7,a7,a4
   1323a:	8746                	mv	a4,a7
   1323c:	0008d363          	bgez	a7,13242 <_vfprintf_r+0x1e88>
   13240:	4701                	li	a4,0
   13242:	66e6                	ld	a3,88(sp)
   13244:	0007081b          	sext.w	a6,a4
   13248:	cae1                	beqz	a3,13318 <_vfprintf_r+0x1f5e>
   1324a:	02d00693          	li	a3,45
   1324e:	7e02                	ld	t3,32(sp)
   13250:	0ad103a3          	sb	a3,167(sp)
   13254:	0017081b          	addiw	a6,a4,1
   13258:	f002                	sd	zero,32(sp)
   1325a:	4a81                	li	s5,0
   1325c:	b08fe06f          	j	11564 <_vfprintf_r+0x1aa>
   13260:	8c5a                	mv	s8,s6
   13262:	fffa8b1b          	addiw	s6,s5,-1
   13266:	87e6                	mv	a5,s9
   13268:	6b86                	ld	s7,64(sp)
   1326a:	7c86                	ld	s9,96(sp)
   1326c:	9ae2                	add	s5,s5,s8
   1326e:	8762                	mv	a4,s8
   13270:	03000693          	li	a3,48
   13274:	000b5463          	bgez	s6,1327c <_vfprintf_r+0x1ec2>
   13278:	db0fe06f          	j	11828 <_vfprintf_r+0x46e>
   1327c:	0705                	addi	a4,a4,1
   1327e:	fed70fa3          	sb	a3,-1(a4)
   13282:	feea9de3          	bne	s5,a4,1327c <_vfprintf_r+0x1ec2>
   13286:	001c0813          	addi	a6,s8,1
   1328a:	01680c33          	add	s8,a6,s6
   1328e:	d9afe06f          	j	11828 <_vfprintf_r+0x46e>
   13292:	6765                	lui	a4,0x19
   13294:	25870713          	addi	a4,a4,600 # 19258 <__clzdi2+0x5e>
   13298:	f83a                	sd	a4,48(sp)
   1329a:	cb0fe06f          	j	1174a <_vfprintf_r+0x390>
   1329e:	6762                	ld	a4,24(sp)
   132a0:	431c                	lw	a5,0(a4)
   132a2:	0721                	addi	a4,a4,8
   132a4:	00078a9b          	sext.w	s5,a5
   132a8:	0007d363          	bgez	a5,132ae <_vfprintf_r+0x1ef4>
   132ac:	5afd                	li	s5,-1
   132ae:	001cc303          	lbu	t1,1(s9)
   132b2:	ec3a                	sd	a4,24(sp)
   132b4:	8cb2                	mv	s9,a2
   132b6:	a3cfe06f          	j	114f2 <_vfprintf_r+0x138>
   132ba:	58068693          	addi	a3,a3,1408
   132be:	a88ff06f          	j	12546 <_vfprintf_r+0x118c>
   132c2:	1afe                	slli	s5,s5,0x3f
   132c4:	02d00793          	li	a5,45
   132c8:	015b4b33          	xor	s6,s6,s5
   132cc:	ecbe                	sd	a5,88(sp)
   132ce:	4a99                	li	s5,6
   132d0:	b239                	j	12bde <_vfprintf_r+0x1824>
   132d2:	4685                	li	a3,1
   132d4:	415686bb          	subw	a3,a3,s5
   132d8:	d936                	sw	a3,176(sp)
   132da:	ba35                	j	12c16 <_vfprintf_r+0x185c>
   132dc:	e711                	bnez	a4,132e8 <_vfprintf_r+0x1f2e>
   132de:	4805                	li	a6,1
   132e0:	88c2                	mv	a7,a6
   132e2:	06600d93          	li	s11,102
   132e6:	b275                	j	12c92 <_vfprintf_r+0x18d8>
   132e8:	6726                	ld	a4,72(sp)
   132ea:	0017089b          	addiw	a7,a4,1
   132ee:	015888bb          	addw	a7,a7,s5
   132f2:	0008881b          	sext.w	a6,a7
   132f6:	fe08d6e3          	bgez	a7,132e2 <_vfprintf_r+0x1f28>
   132fa:	4801                	li	a6,0
   132fc:	06600d93          	li	s11,102
   13300:	ba49                	j	12c92 <_vfprintf_r+0x18d8>
   13302:	02d00713          	li	a4,45
   13306:	0ae10ca3          	sb	a4,185(sp)
   1330a:	5661                	li	a2,-8
   1330c:	4705                	li	a4,1
   1330e:	9f15                	subw	a4,a4,a3
   13310:	a6c6c7e3          	blt	a3,a2,12d7e <_vfprintf_r+0x19c4>
   13314:	d44fe06f          	j	11858 <_vfprintf_r+0x49e>
   13318:	0a714683          	lbu	a3,167(sp)
   1331c:	ce81                	beqz	a3,13334 <_vfprintf_r+0x1f7a>
   1331e:	7e02                	ld	t3,32(sp)
   13320:	0017081b          	addiw	a6,a4,1
   13324:	f002                	sd	zero,32(sp)
   13326:	4a81                	li	s5,0
   13328:	a3cfe06f          	j	11564 <_vfprintf_r+0x1aa>
   1332c:	58068693          	addi	a3,a3,1408
   13330:	df8ff06f          	j	12928 <_vfprintf_r+0x156e>
   13334:	7e02                	ld	t3,32(sp)
   13336:	4a81                	li	s5,0
   13338:	f002                	sd	zero,32(sp)
   1333a:	a2afe06f          	j	11564 <_vfprintf_r+0x1aa>
   1333e:	4709                	li	a4,2
   13340:	f4ba                	sd	a4,104(sp)
   13342:	b475                	j	12dee <_vfprintf_r+0x1a34>
   13344:	76c2                	ld	a3,48(sp)
   13346:	00a6c683          	lbu	a3,10(a3)
   1334a:	cdafe06f          	j	11824 <_vfprintf_r+0x46a>
   1334e:	66e5                	lui	a3,0x19
   13350:	58068693          	addi	a3,a3,1408 # 19580 <zeroes.0>
   13354:	bb7d                	j	13112 <_vfprintf_r+0x1d58>
   13356:	4a81                	li	s5,0
   13358:	e082                	sd	zero,64(sp)
   1335a:	fc02                	sd	zero,56(sp)
   1335c:	f002                	sd	zero,32(sp)
   1335e:	488d                	li	a7,3
   13360:	4811                	li	a6,4
   13362:	a02fe06f          	j	11564 <_vfprintf_r+0x1aa>
   13366:	e082                	sd	zero,64(sp)
   13368:	fc02                	sd	zero,56(sp)
   1336a:	9fafe06f          	j	11564 <_vfprintf_r+0x1aa>
   1336e:	7742                	ld	a4,48(sp)
   13370:	00e78c33          	add	s8,a5,a4
   13374:	b271                	j	12d00 <_vfprintf_r+0x1946>
   13376:	54ca                	lw	s1,176(sp)
   13378:	b2dd                	j	12d5e <_vfprintf_r+0x19a4>
   1337a:	4701                	li	a4,0
   1337c:	e082                	sd	zero,64(sp)
   1337e:	fc02                	sd	zero,56(sp)
   13380:	bd5d                	j	13236 <_vfprintf_r+0x1e7c>
   13382:	40f8873b          	subw	a4,a7,a5
   13386:	54ca                	lw	s1,176(sp)
   13388:	f83a                	sd	a4,48(sp)
   1338a:	b8d9                	j	12c60 <_vfprintf_r+0x18a6>
   1338c:	64a2                	ld	s1,8(sp)
   1338e:	0104d783          	lhu	a5,16(s1)
   13392:	0407e793          	ori	a5,a5,64
   13396:	00f49823          	sh	a5,16(s1)
   1339a:	c29fe06f          	j	11fc2 <_vfprintf_r+0xc08>

000000000001339e <vfprintf>:
   1339e:	872a                	mv	a4,a0
   133a0:	2201b503          	ld	a0,544(gp) # 1b630 <_impure_ptr>
   133a4:	86b2                	mv	a3,a2
   133a6:	862e                	mv	a2,a1
   133a8:	85ba                	mv	a1,a4
   133aa:	810fe06f          	j	113ba <_vfprintf_r>

00000000000133ae <__sbprintf>:
   133ae:	0105d783          	lhu	a5,16(a1)
   133b2:	0ac5ae83          	lw	t4,172(a1)
   133b6:	0125de03          	lhu	t3,18(a1)
   133ba:	0305b303          	ld	t1,48(a1)
   133be:	0405b883          	ld	a7,64(a1)
   133c2:	b2010113          	addi	sp,sp,-1248
   133c6:	9bf5                	andi	a5,a5,-3
   133c8:	0c010813          	addi	a6,sp,192
   133cc:	40000713          	li	a4,1024
   133d0:	4c813823          	sd	s0,1232(sp)
   133d4:	842e                	mv	s0,a1
   133d6:	080c                	addi	a1,sp,16
   133d8:	4c913423          	sd	s1,1224(sp)
   133dc:	02f11023          	sh	a5,32(sp)
   133e0:	4c113c23          	sd	ra,1240(sp)
   133e4:	dc02                	sw	zero,56(sp)
   133e6:	df76                	sw	t4,188(sp)
   133e8:	03c11123          	sh	t3,34(sp)
   133ec:	e09a                	sd	t1,64(sp)
   133ee:	e8c6                	sd	a7,80(sp)
   133f0:	e842                	sd	a6,16(sp)
   133f2:	f442                	sd	a6,40(sp)
   133f4:	ce3a                	sw	a4,28(sp)
   133f6:	d83a                	sw	a4,48(sp)
   133f8:	84aa                	mv	s1,a0
   133fa:	fc1fd0ef          	jal	113ba <_vfprintf_r>
   133fe:	87aa                	mv	a5,a0
   13400:	02055763          	bgez	a0,1342e <__sbprintf+0x80>
   13404:	02015703          	lhu	a4,32(sp)
   13408:	04077713          	andi	a4,a4,64
   1340c:	c719                	beqz	a4,1341a <__sbprintf+0x6c>
   1340e:	01045703          	lhu	a4,16(s0)
   13412:	04076713          	ori	a4,a4,64
   13416:	00e41823          	sh	a4,16(s0)
   1341a:	4d813083          	ld	ra,1240(sp)
   1341e:	4d013403          	ld	s0,1232(sp)
   13422:	4c813483          	ld	s1,1224(sp)
   13426:	853e                	mv	a0,a5
   13428:	4e010113          	addi	sp,sp,1248
   1342c:	8082                	ret
   1342e:	e42a                	sd	a0,8(sp)
   13430:	080c                	addi	a1,sp,16
   13432:	8526                	mv	a0,s1
   13434:	27c000ef          	jal	136b0 <_fflush_r>
   13438:	67a2                	ld	a5,8(sp)
   1343a:	d569                	beqz	a0,13404 <__sbprintf+0x56>
   1343c:	57fd                	li	a5,-1
   1343e:	b7d9                	j	13404 <__sbprintf+0x56>

0000000000013440 <__sprint_r>:
   13440:	6a18                	ld	a4,16(a2)
   13442:	e709                	bnez	a4,1344c <__sprint_r+0xc>
   13444:	4501                	li	a0,0
   13446:	00062423          	sw	zero,8(a2)
   1344a:	8082                	ret
   1344c:	1101                	addi	sp,sp,-32
   1344e:	ec06                	sd	ra,24(sp)
   13450:	e432                	sd	a2,8(sp)
   13452:	2ee000ef          	jal	13740 <__sfvwrite_r>
   13456:	67a2                	ld	a5,8(sp)
   13458:	60e2                	ld	ra,24(sp)
   1345a:	0007b823          	sd	zero,16(a5)
   1345e:	0007a423          	sw	zero,8(a5)
   13462:	6105                	addi	sp,sp,32
   13464:	8082                	ret

0000000000013466 <_fclose_r>:
   13466:	1101                	addi	sp,sp,-32
   13468:	ec06                	sd	ra,24(sp)
   1346a:	e04a                	sd	s2,0(sp)
   1346c:	cd89                	beqz	a1,13486 <_fclose_r+0x20>
   1346e:	e822                	sd	s0,16(sp)
   13470:	e426                	sd	s1,8(sp)
   13472:	842e                	mv	s0,a1
   13474:	84aa                	mv	s1,a0
   13476:	c119                	beqz	a0,1347c <_fclose_r+0x16>
   13478:	653c                	ld	a5,72(a0)
   1347a:	c7d9                	beqz	a5,13508 <_fclose_r+0xa2>
   1347c:	01041783          	lh	a5,16(s0)
   13480:	eb89                	bnez	a5,13492 <_fclose_r+0x2c>
   13482:	6442                	ld	s0,16(sp)
   13484:	64a2                	ld	s1,8(sp)
   13486:	60e2                	ld	ra,24(sp)
   13488:	4901                	li	s2,0
   1348a:	854a                	mv	a0,s2
   1348c:	6902                	ld	s2,0(sp)
   1348e:	6105                	addi	sp,sp,32
   13490:	8082                	ret
   13492:	85a2                	mv	a1,s0
   13494:	8526                	mv	a0,s1
   13496:	080000ef          	jal	13516 <__sflush_r>
   1349a:	683c                	ld	a5,80(s0)
   1349c:	892a                	mv	s2,a0
   1349e:	c791                	beqz	a5,134aa <_fclose_r+0x44>
   134a0:	780c                	ld	a1,48(s0)
   134a2:	8526                	mv	a0,s1
   134a4:	9782                	jalr	a5
   134a6:	04054663          	bltz	a0,134f2 <_fclose_r+0x8c>
   134aa:	01045783          	lhu	a5,16(s0)
   134ae:	0807f793          	andi	a5,a5,128
   134b2:	e7b1                	bnez	a5,134fe <_fclose_r+0x98>
   134b4:	6c2c                	ld	a1,88(s0)
   134b6:	c991                	beqz	a1,134ca <_fclose_r+0x64>
   134b8:	07440793          	addi	a5,s0,116
   134bc:	00f58563          	beq	a1,a5,134c6 <_fclose_r+0x60>
   134c0:	8526                	mv	a0,s1
   134c2:	e44fd0ef          	jal	10b06 <_free_r>
   134c6:	04043c23          	sd	zero,88(s0)
   134ca:	7c2c                	ld	a1,120(s0)
   134cc:	c591                	beqz	a1,134d8 <_fclose_r+0x72>
   134ce:	8526                	mv	a0,s1
   134d0:	e36fd0ef          	jal	10b06 <_free_r>
   134d4:	06043c23          	sd	zero,120(s0)
   134d8:	83efd0ef          	jal	10516 <__sfp_lock_acquire>
   134dc:	00041823          	sh	zero,16(s0)
   134e0:	838fd0ef          	jal	10518 <__sfp_lock_release>
   134e4:	60e2                	ld	ra,24(sp)
   134e6:	6442                	ld	s0,16(sp)
   134e8:	64a2                	ld	s1,8(sp)
   134ea:	854a                	mv	a0,s2
   134ec:	6902                	ld	s2,0(sp)
   134ee:	6105                	addi	sp,sp,32
   134f0:	8082                	ret
   134f2:	01045783          	lhu	a5,16(s0)
   134f6:	597d                	li	s2,-1
   134f8:	0807f793          	andi	a5,a5,128
   134fc:	dfc5                	beqz	a5,134b4 <_fclose_r+0x4e>
   134fe:	6c0c                	ld	a1,24(s0)
   13500:	8526                	mv	a0,s1
   13502:	e04fd0ef          	jal	10b06 <_free_r>
   13506:	b77d                	j	134b4 <_fclose_r+0x4e>
   13508:	ff9fc0ef          	jal	10500 <__sinit>
   1350c:	bf85                	j	1347c <_fclose_r+0x16>

000000000001350e <fclose>:
   1350e:	85aa                	mv	a1,a0
   13510:	2201b503          	ld	a0,544(gp) # 1b630 <_impure_ptr>
   13514:	bf89                	j	13466 <_fclose_r>

0000000000013516 <__sflush_r>:
   13516:	01059703          	lh	a4,16(a1)
   1351a:	7179                	addi	sp,sp,-48
   1351c:	f022                	sd	s0,32(sp)
   1351e:	e44e                	sd	s3,8(sp)
   13520:	f406                	sd	ra,40(sp)
   13522:	00877793          	andi	a5,a4,8
   13526:	842e                	mv	s0,a1
   13528:	89aa                	mv	s3,a0
   1352a:	e7f1                	bnez	a5,135f6 <__sflush_r+0xe0>
   1352c:	6785                	lui	a5,0x1
   1352e:	80078793          	addi	a5,a5,-2048 # 800 <exit-0xf920>
   13532:	4594                	lw	a3,8(a1)
   13534:	8fd9                	or	a5,a5,a4
   13536:	00f59823          	sh	a5,16(a1)
   1353a:	10d05b63          	blez	a3,13650 <__sflush_r+0x13a>
   1353e:	04843803          	ld	a6,72(s0)
   13542:	0a080463          	beqz	a6,135ea <__sflush_r+0xd4>
   13546:	ec26                	sd	s1,24(sp)
   13548:	03371693          	slli	a3,a4,0x33
   1354c:	0009a483          	lw	s1,0(s3)
   13550:	0009a023          	sw	zero,0(s3)
   13554:	1006c563          	bltz	a3,1365e <__sflush_r+0x148>
   13558:	780c                	ld	a1,48(s0)
   1355a:	4601                	li	a2,0
   1355c:	4685                	li	a3,1
   1355e:	854e                	mv	a0,s3
   13560:	9802                	jalr	a6
   13562:	57fd                	li	a5,-1
   13564:	862a                	mv	a2,a0
   13566:	12f50363          	beq	a0,a5,1368c <__sflush_r+0x176>
   1356a:	01041783          	lh	a5,16(s0)
   1356e:	04843803          	ld	a6,72(s0)
   13572:	8b91                	andi	a5,a5,4
   13574:	c799                	beqz	a5,13582 <__sflush_r+0x6c>
   13576:	4418                	lw	a4,8(s0)
   13578:	6c3c                	ld	a5,88(s0)
   1357a:	8e19                	sub	a2,a2,a4
   1357c:	c399                	beqz	a5,13582 <__sflush_r+0x6c>
   1357e:	583c                	lw	a5,112(s0)
   13580:	8e1d                	sub	a2,a2,a5
   13582:	780c                	ld	a1,48(s0)
   13584:	4681                	li	a3,0
   13586:	854e                	mv	a0,s3
   13588:	9802                	jalr	a6
   1358a:	577d                	li	a4,-1
   1358c:	01041783          	lh	a5,16(s0)
   13590:	0ce51963          	bne	a0,a4,13662 <__sflush_r+0x14c>
   13594:	0009a683          	lw	a3,0(s3)
   13598:	4775                	li	a4,29
   1359a:	10d76463          	bltu	a4,a3,136a2 <__sflush_r+0x18c>
   1359e:	20400737          	lui	a4,0x20400
   135a2:	0705                	addi	a4,a4,1 # 20400001 <__BSS_END__+0x203e43f1>
   135a4:	00d75733          	srl	a4,a4,a3
   135a8:	8b05                	andi	a4,a4,1
   135aa:	cf65                	beqz	a4,136a2 <__sflush_r+0x18c>
   135ac:	6c14                	ld	a3,24(s0)
   135ae:	777d                	lui	a4,0xfffff
   135b0:	7ff70713          	addi	a4,a4,2047 # fffffffffffff7ff <__BSS_END__+0xfffffffffffe3bef>
   135b4:	8f7d                	and	a4,a4,a5
   135b6:	00e41823          	sh	a4,16(s0)
   135ba:	00042423          	sw	zero,8(s0)
   135be:	e014                	sd	a3,0(s0)
   135c0:	03379713          	slli	a4,a5,0x33
   135c4:	00075563          	bgez	a4,135ce <__sflush_r+0xb8>
   135c8:	0009a783          	lw	a5,0(s3)
   135cc:	cbcd                	beqz	a5,1367e <__sflush_r+0x168>
   135ce:	6c2c                	ld	a1,88(s0)
   135d0:	0099a023          	sw	s1,0(s3)
   135d4:	c9d5                	beqz	a1,13688 <__sflush_r+0x172>
   135d6:	07440793          	addi	a5,s0,116
   135da:	00f58563          	beq	a1,a5,135e4 <__sflush_r+0xce>
   135de:	854e                	mv	a0,s3
   135e0:	d26fd0ef          	jal	10b06 <_free_r>
   135e4:	64e2                	ld	s1,24(sp)
   135e6:	04043c23          	sd	zero,88(s0)
   135ea:	70a2                	ld	ra,40(sp)
   135ec:	7402                	ld	s0,32(sp)
   135ee:	69a2                	ld	s3,8(sp)
   135f0:	4501                	li	a0,0
   135f2:	6145                	addi	sp,sp,48
   135f4:	8082                	ret
   135f6:	e84a                	sd	s2,16(sp)
   135f8:	0185b903          	ld	s2,24(a1)
   135fc:	04090f63          	beqz	s2,1365a <__sflush_r+0x144>
   13600:	ec26                	sd	s1,24(sp)
   13602:	6184                	ld	s1,0(a1)
   13604:	8b0d                	andi	a4,a4,3
   13606:	0125b023          	sd	s2,0(a1)
   1360a:	412484bb          	subw	s1,s1,s2
   1360e:	4781                	li	a5,0
   13610:	e311                	bnez	a4,13614 <__sflush_r+0xfe>
   13612:	519c                	lw	a5,32(a1)
   13614:	c45c                	sw	a5,12(s0)
   13616:	00904663          	bgtz	s1,13622 <__sflush_r+0x10c>
   1361a:	a83d                	j	13658 <__sflush_r+0x142>
   1361c:	992a                	add	s2,s2,a0
   1361e:	02905d63          	blez	s1,13658 <__sflush_r+0x142>
   13622:	603c                	ld	a5,64(s0)
   13624:	780c                	ld	a1,48(s0)
   13626:	86a6                	mv	a3,s1
   13628:	864a                	mv	a2,s2
   1362a:	854e                	mv	a0,s3
   1362c:	9782                	jalr	a5
   1362e:	9c89                	subw	s1,s1,a0
   13630:	fea046e3          	bgtz	a0,1361c <__sflush_r+0x106>
   13634:	01045783          	lhu	a5,16(s0)
   13638:	6942                	ld	s2,16(sp)
   1363a:	0407e793          	ori	a5,a5,64
   1363e:	70a2                	ld	ra,40(sp)
   13640:	00f41823          	sh	a5,16(s0)
   13644:	7402                	ld	s0,32(sp)
   13646:	64e2                	ld	s1,24(sp)
   13648:	69a2                	ld	s3,8(sp)
   1364a:	557d                	li	a0,-1
   1364c:	6145                	addi	sp,sp,48
   1364e:	8082                	ret
   13650:	59b4                	lw	a3,112(a1)
   13652:	eed046e3          	bgtz	a3,1353e <__sflush_r+0x28>
   13656:	bf51                	j	135ea <__sflush_r+0xd4>
   13658:	64e2                	ld	s1,24(sp)
   1365a:	6942                	ld	s2,16(sp)
   1365c:	b779                	j	135ea <__sflush_r+0xd4>
   1365e:	6850                	ld	a2,144(s0)
   13660:	bf09                	j	13572 <__sflush_r+0x5c>
   13662:	6c14                	ld	a3,24(s0)
   13664:	777d                	lui	a4,0xfffff
   13666:	7ff70713          	addi	a4,a4,2047 # fffffffffffff7ff <__BSS_END__+0xfffffffffffe3bef>
   1366a:	8f7d                	and	a4,a4,a5
   1366c:	00e41823          	sh	a4,16(s0)
   13670:	00042423          	sw	zero,8(s0)
   13674:	e014                	sd	a3,0(s0)
   13676:	03379713          	slli	a4,a5,0x33
   1367a:	f4075ae3          	bgez	a4,135ce <__sflush_r+0xb8>
   1367e:	6c2c                	ld	a1,88(s0)
   13680:	e848                	sd	a0,144(s0)
   13682:	0099a023          	sw	s1,0(s3)
   13686:	f9a1                	bnez	a1,135d6 <__sflush_r+0xc0>
   13688:	64e2                	ld	s1,24(sp)
   1368a:	b785                	j	135ea <__sflush_r+0xd4>
   1368c:	0009a783          	lw	a5,0(s3)
   13690:	ec078de3          	beqz	a5,1356a <__sflush_r+0x54>
   13694:	fe378713          	addi	a4,a5,-29
   13698:	cb01                	beqz	a4,136a8 <__sflush_r+0x192>
   1369a:	17a9                	addi	a5,a5,-22
   1369c:	c791                	beqz	a5,136a8 <__sflush_r+0x192>
   1369e:	01045783          	lhu	a5,16(s0)
   136a2:	0407e793          	ori	a5,a5,64
   136a6:	bf61                	j	1363e <__sflush_r+0x128>
   136a8:	0099a023          	sw	s1,0(s3)
   136ac:	64e2                	ld	s1,24(sp)
   136ae:	bf35                	j	135ea <__sflush_r+0xd4>

00000000000136b0 <_fflush_r>:
   136b0:	87aa                	mv	a5,a0
   136b2:	c119                	beqz	a0,136b8 <_fflush_r+0x8>
   136b4:	6538                	ld	a4,72(a0)
   136b6:	cb01                	beqz	a4,136c6 <_fflush_r+0x16>
   136b8:	01059703          	lh	a4,16(a1)
   136bc:	e319                	bnez	a4,136c2 <_fflush_r+0x12>
   136be:	4501                	li	a0,0
   136c0:	8082                	ret
   136c2:	853e                	mv	a0,a5
   136c4:	bd89                	j	13516 <__sflush_r>
   136c6:	1101                	addi	sp,sp,-32
   136c8:	e42e                	sd	a1,8(sp)
   136ca:	ec06                	sd	ra,24(sp)
   136cc:	e02a                	sd	a0,0(sp)
   136ce:	e33fc0ef          	jal	10500 <__sinit>
   136d2:	65a2                	ld	a1,8(sp)
   136d4:	6782                	ld	a5,0(sp)
   136d6:	01059703          	lh	a4,16(a1)
   136da:	c709                	beqz	a4,136e4 <_fflush_r+0x34>
   136dc:	60e2                	ld	ra,24(sp)
   136de:	853e                	mv	a0,a5
   136e0:	6105                	addi	sp,sp,32
   136e2:	bd15                	j	13516 <__sflush_r>
   136e4:	60e2                	ld	ra,24(sp)
   136e6:	4501                	li	a0,0
   136e8:	6105                	addi	sp,sp,32
   136ea:	8082                	ret

00000000000136ec <fflush>:
   136ec:	cd05                	beqz	a0,13724 <fflush+0x38>
   136ee:	85aa                	mv	a1,a0
   136f0:	2201b503          	ld	a0,544(gp) # 1b630 <_impure_ptr>
   136f4:	c119                	beqz	a0,136fa <fflush+0xe>
   136f6:	653c                	ld	a5,72(a0)
   136f8:	c799                	beqz	a5,13706 <fflush+0x1a>
   136fa:	01059783          	lh	a5,16(a1)
   136fe:	e399                	bnez	a5,13704 <fflush+0x18>
   13700:	4501                	li	a0,0
   13702:	8082                	ret
   13704:	bd09                	j	13516 <__sflush_r>
   13706:	1101                	addi	sp,sp,-32
   13708:	e42e                	sd	a1,8(sp)
   1370a:	e02a                	sd	a0,0(sp)
   1370c:	ec06                	sd	ra,24(sp)
   1370e:	df3fc0ef          	jal	10500 <__sinit>
   13712:	65a2                	ld	a1,8(sp)
   13714:	6502                	ld	a0,0(sp)
   13716:	01059783          	lh	a5,16(a1)
   1371a:	e385                	bnez	a5,1373a <fflush+0x4e>
   1371c:	60e2                	ld	ra,24(sp)
   1371e:	4501                	li	a0,0
   13720:	6105                	addi	sp,sp,32
   13722:	8082                	ret
   13724:	666d                	lui	a2,0x1b
   13726:	65cd                	lui	a1,0x13
   13728:	656d                	lui	a0,0x1b
   1372a:	a9060613          	addi	a2,a2,-1392 # 1aa90 <__sglue>
   1372e:	6b058593          	addi	a1,a1,1712 # 136b0 <_fflush_r>
   13732:	aa850513          	addi	a0,a0,-1368 # 1aaa8 <_impure_data>
   13736:	e05fc06f          	j	1053a <_fwalk_sglue>
   1373a:	60e2                	ld	ra,24(sp)
   1373c:	6105                	addi	sp,sp,32
   1373e:	bbe1                	j	13516 <__sflush_r>

0000000000013740 <__sfvwrite_r>:
   13740:	6a1c                	ld	a5,16(a2)
   13742:	18078d63          	beqz	a5,138dc <__sfvwrite_r+0x19c>
   13746:	01059683          	lh	a3,16(a1)
   1374a:	711d                	addi	sp,sp,-96
   1374c:	e8a2                	sd	s0,80(sp)
   1374e:	f852                	sd	s4,48(sp)
   13750:	f456                	sd	s5,40(sp)
   13752:	ec86                	sd	ra,88(sp)
   13754:	0086f793          	andi	a5,a3,8
   13758:	842e                	mv	s0,a1
   1375a:	8aaa                	mv	s5,a0
   1375c:	8a32                	mv	s4,a2
   1375e:	c7bd                	beqz	a5,137cc <__sfvwrite_r+0x8c>
   13760:	6d9c                	ld	a5,24(a1)
   13762:	c7ad                	beqz	a5,137cc <__sfvwrite_r+0x8c>
   13764:	e4a6                	sd	s1,72(sp)
   13766:	e0ca                	sd	s2,64(sp)
   13768:	fc4e                	sd	s3,56(sp)
   1376a:	f05a                	sd	s6,32(sp)
   1376c:	0026f793          	andi	a5,a3,2
   13770:	000a3483          	ld	s1,0(s4)
   13774:	cfad                	beqz	a5,137ee <__sfvwrite_r+0xae>
   13776:	80000b37          	lui	s6,0x80000
   1377a:	c00b4b13          	xori	s6,s6,-1024
   1377e:	4981                	li	s3,0
   13780:	4901                	li	s2,0
   13782:	864e                	mv	a2,s3
   13784:	8556                	mv	a0,s5
   13786:	14090563          	beqz	s2,138d0 <__sfvwrite_r+0x190>
   1378a:	86ca                	mv	a3,s2
   1378c:	012b7663          	bgeu	s6,s2,13798 <__sfvwrite_r+0x58>
   13790:	800006b7          	lui	a3,0x80000
   13794:	c006c693          	xori	a3,a3,-1024
   13798:	603c                	ld	a5,64(s0)
   1379a:	780c                	ld	a1,48(s0)
   1379c:	2681                	sext.w	a3,a3
   1379e:	9782                	jalr	a5
   137a0:	2ea05363          	blez	a0,13a86 <__sfvwrite_r+0x346>
   137a4:	010a3783          	ld	a5,16(s4)
   137a8:	99aa                	add	s3,s3,a0
   137aa:	40a90933          	sub	s2,s2,a0
   137ae:	8f89                	sub	a5,a5,a0
   137b0:	00fa3823          	sd	a5,16(s4)
   137b4:	f7f9                	bnez	a5,13782 <__sfvwrite_r+0x42>
   137b6:	64a6                	ld	s1,72(sp)
   137b8:	6906                	ld	s2,64(sp)
   137ba:	79e2                	ld	s3,56(sp)
   137bc:	7b02                	ld	s6,32(sp)
   137be:	4501                	li	a0,0
   137c0:	60e6                	ld	ra,88(sp)
   137c2:	6446                	ld	s0,80(sp)
   137c4:	7a42                	ld	s4,48(sp)
   137c6:	7aa2                	ld	s5,40(sp)
   137c8:	6125                	addi	sp,sp,96
   137ca:	8082                	ret
   137cc:	85a2                	mv	a1,s0
   137ce:	8556                	mv	a0,s5
   137d0:	2ce000ef          	jal	13a9e <__swsetup_r>
   137d4:	1e051263          	bnez	a0,139b8 <__sfvwrite_r+0x278>
   137d8:	01041683          	lh	a3,16(s0)
   137dc:	e4a6                	sd	s1,72(sp)
   137de:	e0ca                	sd	s2,64(sp)
   137e0:	fc4e                	sd	s3,56(sp)
   137e2:	f05a                	sd	s6,32(sp)
   137e4:	0026f793          	andi	a5,a3,2
   137e8:	000a3483          	ld	s1,0(s4)
   137ec:	f7c9                	bnez	a5,13776 <__sfvwrite_r+0x36>
   137ee:	ec5e                	sd	s7,24(sp)
   137f0:	e862                	sd	s8,16(sp)
   137f2:	e466                	sd	s9,8(sp)
   137f4:	0016f793          	andi	a5,a3,1
   137f8:	e7e5                	bnez	a5,138e0 <__sfvwrite_r+0x1a0>
   137fa:	601c                	ld	a5,0(s0)
   137fc:	80000737          	lui	a4,0x80000
   13800:	fff74c13          	not	s8,a4
   13804:	4b01                	li	s6,0
   13806:	4981                	li	s3,0
   13808:	0a098e63          	beqz	s3,138c4 <__sfvwrite_r+0x184>
   1380c:	2006f713          	andi	a4,a3,512
   13810:	00c42903          	lw	s2,12(s0)
   13814:	853e                	mv	a0,a5
   13816:	1a070363          	beqz	a4,139bc <__sfvwrite_r+0x27c>
   1381a:	0729ee63          	bltu	s3,s2,13896 <__sfvwrite_r+0x156>
   1381e:	4806f713          	andi	a4,a3,1152
   13822:	8bca                	mv	s7,s2
   13824:	cb3d                	beqz	a4,1389a <__sfvwrite_r+0x15a>
   13826:	5010                	lw	a2,32(s0)
   13828:	6c0c                	ld	a1,24(s0)
   1382a:	0016171b          	slliw	a4,a2,0x1
   1382e:	9f31                	addw	a4,a4,a2
   13830:	8f8d                	sub	a5,a5,a1
   13832:	01f7591b          	srliw	s2,a4,0x1f
   13836:	00078b9b          	sext.w	s7,a5
   1383a:	00e9093b          	addw	s2,s2,a4
   1383e:	001b8713          	addi	a4,s7,1
   13842:	4019591b          	sraiw	s2,s2,0x1
   13846:	974e                	add	a4,a4,s3
   13848:	00e97563          	bgeu	s2,a4,13852 <__sfvwrite_r+0x112>
   1384c:	2785                	addiw	a5,a5,1
   1384e:	0137893b          	addw	s2,a5,s3
   13852:	4006f693          	andi	a3,a3,1024
   13856:	1e068b63          	beqz	a3,13a4c <__sfvwrite_r+0x30c>
   1385a:	85ca                	mv	a1,s2
   1385c:	8556                	mv	a0,s5
   1385e:	ce2fd0ef          	jal	10d40 <_malloc_r>
   13862:	8caa                	mv	s9,a0
   13864:	22050463          	beqz	a0,13a8c <__sfvwrite_r+0x34c>
   13868:	6c0c                	ld	a1,24(s0)
   1386a:	865e                	mv	a2,s7
   1386c:	596000ef          	jal	13e02 <memcpy>
   13870:	01045703          	lhu	a4,16(s0)
   13874:	b7f77713          	andi	a4,a4,-1153
   13878:	08076713          	ori	a4,a4,128
   1387c:	00e41823          	sh	a4,16(s0)
   13880:	017c8533          	add	a0,s9,s7
   13884:	41790bbb          	subw	s7,s2,s7
   13888:	01943c23          	sd	s9,24(s0)
   1388c:	e008                	sd	a0,0(s0)
   1388e:	01742623          	sw	s7,12(s0)
   13892:	03242023          	sw	s2,32(s0)
   13896:	8bce                	mv	s7,s3
   13898:	894e                	mv	s2,s3
   1389a:	85da                	mv	a1,s6
   1389c:	864a                	mv	a2,s2
   1389e:	482000ef          	jal	13d20 <memmove>
   138a2:	4454                	lw	a3,12(s0)
   138a4:	601c                	ld	a5,0(s0)
   138a6:	010a3703          	ld	a4,16(s4)
   138aa:	417686bb          	subw	a3,a3,s7
   138ae:	97ca                	add	a5,a5,s2
   138b0:	c454                	sw	a3,12(s0)
   138b2:	e01c                	sd	a5,0(s0)
   138b4:	41370733          	sub	a4,a4,s3
   138b8:	00ea3823          	sd	a4,16(s4)
   138bc:	1c070163          	beqz	a4,13a7e <__sfvwrite_r+0x33e>
   138c0:	01041683          	lh	a3,16(s0)
   138c4:	0004bb03          	ld	s6,0(s1)
   138c8:	0084b983          	ld	s3,8(s1)
   138cc:	04c1                	addi	s1,s1,16
   138ce:	bf2d                	j	13808 <__sfvwrite_r+0xc8>
   138d0:	0004b983          	ld	s3,0(s1)
   138d4:	0084b903          	ld	s2,8(s1)
   138d8:	04c1                	addi	s1,s1,16
   138da:	b565                	j	13782 <__sfvwrite_r+0x42>
   138dc:	4501                	li	a0,0
   138de:	8082                	ret
   138e0:	4b81                	li	s7,0
   138e2:	4c01                	li	s8,0
   138e4:	4501                	li	a0,0
   138e6:	4c81                	li	s9,0
   138e8:	060b8063          	beqz	s7,13948 <__sfvwrite_r+0x208>
   138ec:	c535                	beqz	a0,13958 <__sfvwrite_r+0x218>
   138ee:	8b62                	mv	s6,s8
   138f0:	018bf363          	bgeu	s7,s8,138f6 <__sfvwrite_r+0x1b6>
   138f4:	8b5e                	mv	s6,s7
   138f6:	5014                	lw	a3,32(s0)
   138f8:	445c                	lw	a5,12(s0)
   138fa:	6008                	ld	a0,0(s0)
   138fc:	6c18                	ld	a4,24(s0)
   138fe:	00d789bb          	addw	s3,a5,a3
   13902:	895a                	mv	s2,s6
   13904:	00a77463          	bgeu	a4,a0,1390c <__sfvwrite_r+0x1cc>
   13908:	0769c363          	blt	s3,s6,1396e <__sfvwrite_r+0x22e>
   1390c:	12db4263          	blt	s6,a3,13a30 <__sfvwrite_r+0x2f0>
   13910:	603c                	ld	a5,64(s0)
   13912:	780c                	ld	a1,48(s0)
   13914:	8666                	mv	a2,s9
   13916:	8556                	mv	a0,s5
   13918:	9782                	jalr	a5
   1391a:	892a                	mv	s2,a0
   1391c:	08a05163          	blez	a0,1399e <__sfvwrite_r+0x25e>
   13920:	0005079b          	sext.w	a5,a0
   13924:	40fc0c3b          	subw	s8,s8,a5
   13928:	4505                	li	a0,1
   1392a:	060c0563          	beqz	s8,13994 <__sfvwrite_r+0x254>
   1392e:	010a3783          	ld	a5,16(s4)
   13932:	412787b3          	sub	a5,a5,s2
   13936:	00fa3823          	sd	a5,16(s4)
   1393a:	14078263          	beqz	a5,13a7e <__sfvwrite_r+0x33e>
   1393e:	412b8bb3          	sub	s7,s7,s2
   13942:	9cca                	add	s9,s9,s2
   13944:	fa0b94e3          	bnez	s7,138ec <__sfvwrite_r+0x1ac>
   13948:	0084bb83          	ld	s7,8(s1)
   1394c:	87a6                	mv	a5,s1
   1394e:	04c1                	addi	s1,s1,16
   13950:	fe0b8ce3          	beqz	s7,13948 <__sfvwrite_r+0x208>
   13954:	0007bc83          	ld	s9,0(a5)
   13958:	865e                	mv	a2,s7
   1395a:	45a9                	li	a1,10
   1395c:	8566                	mv	a0,s9
   1395e:	230000ef          	jal	13b8e <memchr>
   13962:	10050b63          	beqz	a0,13a78 <__sfvwrite_r+0x338>
   13966:	0505                	addi	a0,a0,1
   13968:	41950c3b          	subw	s8,a0,s9
   1396c:	b749                	j	138ee <__sfvwrite_r+0x1ae>
   1396e:	85e6                	mv	a1,s9
   13970:	864e                	mv	a2,s3
   13972:	3ae000ef          	jal	13d20 <memmove>
   13976:	601c                	ld	a5,0(s0)
   13978:	85a2                	mv	a1,s0
   1397a:	8556                	mv	a0,s5
   1397c:	97ce                	add	a5,a5,s3
   1397e:	e01c                	sd	a5,0(s0)
   13980:	d31ff0ef          	jal	136b0 <_fflush_r>
   13984:	ed09                	bnez	a0,1399e <__sfvwrite_r+0x25e>
   13986:	87ce                	mv	a5,s3
   13988:	40fc0c3b          	subw	s8,s8,a5
   1398c:	894e                	mv	s2,s3
   1398e:	4505                	li	a0,1
   13990:	f80c1fe3          	bnez	s8,1392e <__sfvwrite_r+0x1ee>
   13994:	85a2                	mv	a1,s0
   13996:	8556                	mv	a0,s5
   13998:	d19ff0ef          	jal	136b0 <_fflush_r>
   1399c:	d949                	beqz	a0,1392e <__sfvwrite_r+0x1ee>
   1399e:	01041783          	lh	a5,16(s0)
   139a2:	6be2                	ld	s7,24(sp)
   139a4:	6c42                	ld	s8,16(sp)
   139a6:	6ca2                	ld	s9,8(sp)
   139a8:	64a6                	ld	s1,72(sp)
   139aa:	6906                	ld	s2,64(sp)
   139ac:	79e2                	ld	s3,56(sp)
   139ae:	7b02                	ld	s6,32(sp)
   139b0:	0407e793          	ori	a5,a5,64
   139b4:	00f41823          	sh	a5,16(s0)
   139b8:	557d                	li	a0,-1
   139ba:	b519                	j	137c0 <__sfvwrite_r+0x80>
   139bc:	6c18                	ld	a4,24(s0)
   139be:	04f76363          	bltu	a4,a5,13a04 <__sfvwrite_r+0x2c4>
   139c2:	5018                	lw	a4,32(s0)
   139c4:	04e9e063          	bltu	s3,a4,13a04 <__sfvwrite_r+0x2c4>
   139c8:	86ce                	mv	a3,s3
   139ca:	013c7363          	bgeu	s8,s3,139d0 <__sfvwrite_r+0x290>
   139ce:	86e2                	mv	a3,s8
   139d0:	02e6c6bb          	divw	a3,a3,a4
   139d4:	603c                	ld	a5,64(s0)
   139d6:	780c                	ld	a1,48(s0)
   139d8:	865a                	mv	a2,s6
   139da:	8556                	mv	a0,s5
   139dc:	02e686bb          	mulw	a3,a3,a4
   139e0:	9782                	jalr	a5
   139e2:	faa05ee3          	blez	a0,1399e <__sfvwrite_r+0x25e>
   139e6:	892a                	mv	s2,a0
   139e8:	010a3783          	ld	a5,16(s4)
   139ec:	412989b3          	sub	s3,s3,s2
   139f0:	412787b3          	sub	a5,a5,s2
   139f4:	00fa3823          	sd	a5,16(s4)
   139f8:	c3d9                	beqz	a5,13a7e <__sfvwrite_r+0x33e>
   139fa:	01041683          	lh	a3,16(s0)
   139fe:	601c                	ld	a5,0(s0)
   13a00:	9b4a                	add	s6,s6,s2
   13a02:	b519                	j	13808 <__sfvwrite_r+0xc8>
   13a04:	0129f363          	bgeu	s3,s2,13a0a <__sfvwrite_r+0x2ca>
   13a08:	894e                	mv	s2,s3
   13a0a:	853e                	mv	a0,a5
   13a0c:	864a                	mv	a2,s2
   13a0e:	85da                	mv	a1,s6
   13a10:	310000ef          	jal	13d20 <memmove>
   13a14:	601c                	ld	a5,0(s0)
   13a16:	4458                	lw	a4,12(s0)
   13a18:	97ca                	add	a5,a5,s2
   13a1a:	4127073b          	subw	a4,a4,s2
   13a1e:	e01c                	sd	a5,0(s0)
   13a20:	c458                	sw	a4,12(s0)
   13a22:	f379                	bnez	a4,139e8 <__sfvwrite_r+0x2a8>
   13a24:	85a2                	mv	a1,s0
   13a26:	8556                	mv	a0,s5
   13a28:	c89ff0ef          	jal	136b0 <_fflush_r>
   13a2c:	dd55                	beqz	a0,139e8 <__sfvwrite_r+0x2a8>
   13a2e:	bf85                	j	1399e <__sfvwrite_r+0x25e>
   13a30:	865a                	mv	a2,s6
   13a32:	85e6                	mv	a1,s9
   13a34:	2ec000ef          	jal	13d20 <memmove>
   13a38:	4454                	lw	a3,12(s0)
   13a3a:	6018                	ld	a4,0(s0)
   13a3c:	000b079b          	sext.w	a5,s6
   13a40:	416686bb          	subw	a3,a3,s6
   13a44:	975a                	add	a4,a4,s6
   13a46:	c454                	sw	a3,12(s0)
   13a48:	e018                	sd	a4,0(s0)
   13a4a:	bde9                	j	13924 <__sfvwrite_r+0x1e4>
   13a4c:	864a                	mv	a2,s2
   13a4e:	8556                	mv	a0,s5
   13a50:	12d020ef          	jal	1637c <_realloc_r>
   13a54:	8caa                	mv	s9,a0
   13a56:	e20515e3          	bnez	a0,13880 <__sfvwrite_r+0x140>
   13a5a:	6c0c                	ld	a1,24(s0)
   13a5c:	8556                	mv	a0,s5
   13a5e:	8a8fd0ef          	jal	10b06 <_free_r>
   13a62:	01045783          	lhu	a5,16(s0)
   13a66:	4731                	li	a4,12
   13a68:	6be2                	ld	s7,24(sp)
   13a6a:	6c42                	ld	s8,16(sp)
   13a6c:	6ca2                	ld	s9,8(sp)
   13a6e:	00eaa023          	sw	a4,0(s5)
   13a72:	f7f7f793          	andi	a5,a5,-129
   13a76:	bf0d                	j	139a8 <__sfvwrite_r+0x268>
   13a78:	001b8c1b          	addiw	s8,s7,1
   13a7c:	bd8d                	j	138ee <__sfvwrite_r+0x1ae>
   13a7e:	6be2                	ld	s7,24(sp)
   13a80:	6c42                	ld	s8,16(sp)
   13a82:	6ca2                	ld	s9,8(sp)
   13a84:	bb0d                	j	137b6 <__sfvwrite_r+0x76>
   13a86:	01041783          	lh	a5,16(s0)
   13a8a:	bf39                	j	139a8 <__sfvwrite_r+0x268>
   13a8c:	47b1                	li	a5,12
   13a8e:	00faa023          	sw	a5,0(s5)
   13a92:	6be2                	ld	s7,24(sp)
   13a94:	01041783          	lh	a5,16(s0)
   13a98:	6c42                	ld	s8,16(sp)
   13a9a:	6ca2                	ld	s9,8(sp)
   13a9c:	b731                	j	139a8 <__sfvwrite_r+0x268>

0000000000013a9e <__swsetup_r>:
   13a9e:	2201b703          	ld	a4,544(gp) # 1b630 <_impure_ptr>
   13aa2:	1101                	addi	sp,sp,-32
   13aa4:	ec06                	sd	ra,24(sp)
   13aa6:	862a                	mv	a2,a0
   13aa8:	87ae                	mv	a5,a1
   13aaa:	c319                	beqz	a4,13ab0 <__swsetup_r+0x12>
   13aac:	6734                	ld	a3,72(a4)
   13aae:	c2e1                	beqz	a3,13b6e <__swsetup_r+0xd0>
   13ab0:	01079703          	lh	a4,16(a5)
   13ab4:	00877693          	andi	a3,a4,8
   13ab8:	c29d                	beqz	a3,13ade <__swsetup_r+0x40>
   13aba:	6f94                	ld	a3,24(a5)
   13abc:	ce8d                	beqz	a3,13af6 <__swsetup_r+0x58>
   13abe:	01079703          	lh	a4,16(a5)
   13ac2:	00177613          	andi	a2,a4,1
   13ac6:	ca39                	beqz	a2,13b1c <__swsetup_r+0x7e>
   13ac8:	5390                	lw	a2,32(a5)
   13aca:	0007a623          	sw	zero,12(a5)
   13ace:	4501                	li	a0,0
   13ad0:	40c0063b          	negw	a2,a2
   13ad4:	d790                	sw	a2,40(a5)
   13ad6:	cab9                	beqz	a3,13b2c <__swsetup_r+0x8e>
   13ad8:	60e2                	ld	ra,24(sp)
   13ada:	6105                	addi	sp,sp,32
   13adc:	8082                	ret
   13ade:	01077693          	andi	a3,a4,16
   13ae2:	ced1                	beqz	a3,13b7e <__swsetup_r+0xe0>
   13ae4:	00477693          	andi	a3,a4,4
   13ae8:	eab9                	bnez	a3,13b3e <__swsetup_r+0xa0>
   13aea:	6f94                	ld	a3,24(a5)
   13aec:	00876713          	ori	a4,a4,8
   13af0:	00e79823          	sh	a4,16(a5)
   13af4:	f6e9                	bnez	a3,13abe <__swsetup_r+0x20>
   13af6:	6b98                	ld	a4,16(a5)
   13af8:	20000593          	li	a1,512
   13afc:	28077713          	andi	a4,a4,640
   13b00:	fab70fe3          	beq	a4,a1,13abe <__swsetup_r+0x20>
   13b04:	8532                	mv	a0,a2
   13b06:	85be                	mv	a1,a5
   13b08:	e03e                	sd	a5,0(sp)
   13b0a:	4ed020ef          	jal	167f6 <__smakebuf_r>
   13b0e:	6782                	ld	a5,0(sp)
   13b10:	01079703          	lh	a4,16(a5)
   13b14:	6f94                	ld	a3,24(a5)
   13b16:	00177613          	andi	a2,a4,1
   13b1a:	f65d                	bnez	a2,13ac8 <__swsetup_r+0x2a>
   13b1c:	00277613          	andi	a2,a4,2
   13b20:	4581                	li	a1,0
   13b22:	e211                	bnez	a2,13b26 <__swsetup_r+0x88>
   13b24:	538c                	lw	a1,32(a5)
   13b26:	c7cc                	sw	a1,12(a5)
   13b28:	4501                	li	a0,0
   13b2a:	f6dd                	bnez	a3,13ad8 <__swsetup_r+0x3a>
   13b2c:	08077693          	andi	a3,a4,128
   13b30:	d6c5                	beqz	a3,13ad8 <__swsetup_r+0x3a>
   13b32:	04076713          	ori	a4,a4,64
   13b36:	00e79823          	sh	a4,16(a5)
   13b3a:	557d                	li	a0,-1
   13b3c:	bf71                	j	13ad8 <__swsetup_r+0x3a>
   13b3e:	6fac                	ld	a1,88(a5)
   13b40:	c185                	beqz	a1,13b60 <__swsetup_r+0xc2>
   13b42:	07478693          	addi	a3,a5,116
   13b46:	00d58b63          	beq	a1,a3,13b5c <__swsetup_r+0xbe>
   13b4a:	8532                	mv	a0,a2
   13b4c:	e43e                	sd	a5,8(sp)
   13b4e:	e032                	sd	a2,0(sp)
   13b50:	fb7fc0ef          	jal	10b06 <_free_r>
   13b54:	67a2                	ld	a5,8(sp)
   13b56:	6602                	ld	a2,0(sp)
   13b58:	01079703          	lh	a4,16(a5)
   13b5c:	0407bc23          	sd	zero,88(a5)
   13b60:	6f94                	ld	a3,24(a5)
   13b62:	fdb77713          	andi	a4,a4,-37
   13b66:	0007a423          	sw	zero,8(a5)
   13b6a:	e394                	sd	a3,0(a5)
   13b6c:	b741                	j	13aec <__swsetup_r+0x4e>
   13b6e:	e02a                	sd	a0,0(sp)
   13b70:	853a                	mv	a0,a4
   13b72:	e42e                	sd	a1,8(sp)
   13b74:	98dfc0ef          	jal	10500 <__sinit>
   13b78:	67a2                	ld	a5,8(sp)
   13b7a:	6602                	ld	a2,0(sp)
   13b7c:	bf15                	j	13ab0 <__swsetup_r+0x12>
   13b7e:	46a5                	li	a3,9
   13b80:	04076713          	ori	a4,a4,64
   13b84:	c214                	sw	a3,0(a2)
   13b86:	00e79823          	sh	a4,16(a5)
   13b8a:	557d                	li	a0,-1
   13b8c:	b7b1                	j	13ad8 <__swsetup_r+0x3a>

0000000000013b8e <memchr>:
   13b8e:	00757793          	andi	a5,a0,7
   13b92:	0ff5f313          	zext.b	t1,a1
   13b96:	cb99                	beqz	a5,13bac <memchr+0x1e>
   13b98:	c241                	beqz	a2,13c18 <memchr+0x8a>
   13b9a:	00054783          	lbu	a5,0(a0)
   13b9e:	167d                	addi	a2,a2,-1
   13ba0:	06678b63          	beq	a5,t1,13c16 <memchr+0x88>
   13ba4:	0505                	addi	a0,a0,1
   13ba6:	00757793          	andi	a5,a0,7
   13baa:	f7fd                	bnez	a5,13b98 <memchr+0xa>
   13bac:	481d                	li	a6,7
   13bae:	04c87a63          	bgeu	a6,a2,13c02 <memchr+0x74>
   13bb2:	0ff5f593          	zext.b	a1,a1
   13bb6:	0085979b          	slliw	a5,a1,0x8
   13bba:	97ae                	add	a5,a5,a1
   13bbc:	01079693          	slli	a3,a5,0x10
   13bc0:	7f7f8737          	lui	a4,0x7f7f8
   13bc4:	96be                	add	a3,a3,a5
   13bc6:	f7f70713          	addi	a4,a4,-129 # 7f7f7f7f <__BSS_END__+0x7f7dc36f>
   13bca:	feff07b7          	lui	a5,0xfeff0
   13bce:	eff78793          	addi	a5,a5,-257 # fffffffffefefeff <__BSS_END__+0xfffffffffefd42ef>
   13bd2:	02071593          	slli	a1,a4,0x20
   13bd6:	02069e13          	slli	t3,a3,0x20
   13bda:	95ba                	add	a1,a1,a4
   13bdc:	02079893          	slli	a7,a5,0x20
   13be0:	96f2                	add	a3,a3,t3
   13be2:	fff5c593          	not	a1,a1
   13be6:	98be                	add	a7,a7,a5
   13be8:	611c                	ld	a5,0(a0)
   13bea:	8fb5                	xor	a5,a5,a3
   13bec:	01178733          	add	a4,a5,a7
   13bf0:	fff7c793          	not	a5,a5
   13bf4:	8ff9                	and	a5,a5,a4
   13bf6:	8fed                	and	a5,a5,a1
   13bf8:	e791                	bnez	a5,13c04 <memchr+0x76>
   13bfa:	1661                	addi	a2,a2,-8
   13bfc:	0521                	addi	a0,a0,8
   13bfe:	fec865e3          	bltu	a6,a2,13be8 <memchr+0x5a>
   13c02:	ca19                	beqz	a2,13c18 <memchr+0x8a>
   13c04:	962a                	add	a2,a2,a0
   13c06:	a021                	j	13c0e <memchr+0x80>
   13c08:	0505                	addi	a0,a0,1
   13c0a:	00c50763          	beq	a0,a2,13c18 <memchr+0x8a>
   13c0e:	00054783          	lbu	a5,0(a0)
   13c12:	fe679be3          	bne	a5,t1,13c08 <memchr+0x7a>
   13c16:	8082                	ret
   13c18:	4501                	li	a0,0
   13c1a:	8082                	ret

0000000000013c1c <strncpy>:
   13c1c:	00a5e7b3          	or	a5,a1,a0
   13c20:	8b9d                	andi	a5,a5,7
   13c22:	e781                	bnez	a5,13c2a <strncpy+0xe>
   13c24:	00863793          	sltiu	a5,a2,8
   13c28:	cb95                	beqz	a5,13c5c <strncpy+0x40>
   13c2a:	872a                	mv	a4,a0
   13c2c:	a811                	j	13c40 <strncpy+0x24>
   13c2e:	fff5c683          	lbu	a3,-1(a1)
   13c32:	fff60813          	addi	a6,a2,-1
   13c36:	fed78fa3          	sb	a3,-1(a5)
   13c3a:	ca81                	beqz	a3,13c4a <strncpy+0x2e>
   13c3c:	873e                	mv	a4,a5
   13c3e:	8642                	mv	a2,a6
   13c40:	0585                	addi	a1,a1,1
   13c42:	00170793          	addi	a5,a4,1
   13c46:	f665                	bnez	a2,13c2e <strncpy+0x12>
   13c48:	8082                	ret
   13c4a:	9732                	add	a4,a4,a2
   13c4c:	04080b63          	beqz	a6,13ca2 <strncpy+0x86>
   13c50:	0785                	addi	a5,a5,1
   13c52:	fe078fa3          	sb	zero,-1(a5)
   13c56:	fee79de3          	bne	a5,a4,13c50 <strncpy+0x34>
   13c5a:	8082                	ret
   13c5c:	7f7f8737          	lui	a4,0x7f7f8
   13c60:	f7f70713          	addi	a4,a4,-129 # 7f7f7f7f <__BSS_END__+0x7f7dc36f>
   13c64:	feff07b7          	lui	a5,0xfeff0
   13c68:	02071893          	slli	a7,a4,0x20
   13c6c:	eff78793          	addi	a5,a5,-257 # fffffffffefefeff <__BSS_END__+0xfffffffffefd42ef>
   13c70:	98ba                	add	a7,a7,a4
   13c72:	02079313          	slli	t1,a5,0x20
   13c76:	933e                	add	t1,t1,a5
   13c78:	fff8c893          	not	a7,a7
   13c7c:	872a                	mv	a4,a0
   13c7e:	4e1d                	li	t3,7
   13c80:	6194                	ld	a3,0(a1)
   13c82:	006687b3          	add	a5,a3,t1
   13c86:	fff6c813          	not	a6,a3
   13c8a:	0107f7b3          	and	a5,a5,a6
   13c8e:	0117f7b3          	and	a5,a5,a7
   13c92:	f7dd                	bnez	a5,13c40 <strncpy+0x24>
   13c94:	1661                	addi	a2,a2,-8
   13c96:	e314                	sd	a3,0(a4)
   13c98:	0721                	addi	a4,a4,8
   13c9a:	05a1                	addi	a1,a1,8
   13c9c:	fece62e3          	bltu	t3,a2,13c80 <strncpy+0x64>
   13ca0:	b745                	j	13c40 <strncpy+0x24>
   13ca2:	8082                	ret

0000000000013ca4 <__localeconv_l>:
   13ca4:	10050513          	addi	a0,a0,256
   13ca8:	8082                	ret

0000000000013caa <_localeconv_r>:
   13caa:	10018513          	addi	a0,gp,256 # 1b510 <__global_locale+0x100>
   13cae:	8082                	ret

0000000000013cb0 <localeconv>:
   13cb0:	10018513          	addi	a0,gp,256 # 1b510 <__global_locale+0x100>
   13cb4:	8082                	ret

0000000000013cb6 <_sbrk_r>:
   13cb6:	1101                	addi	sp,sp,-32
   13cb8:	e822                	sd	s0,16(sp)
   13cba:	e426                	sd	s1,8(sp)
   13cbc:	84aa                	mv	s1,a0
   13cbe:	852e                	mv	a0,a1
   13cc0:	ec06                	sd	ra,24(sp)
   13cc2:	2401a023          	sw	zero,576(gp) # 1b650 <errno>
   13cc6:	230040ef          	jal	17ef6 <_sbrk>
   13cca:	57fd                	li	a5,-1
   13ccc:	00f50763          	beq	a0,a5,13cda <_sbrk_r+0x24>
   13cd0:	60e2                	ld	ra,24(sp)
   13cd2:	6442                	ld	s0,16(sp)
   13cd4:	64a2                	ld	s1,8(sp)
   13cd6:	6105                	addi	sp,sp,32
   13cd8:	8082                	ret
   13cda:	2401a783          	lw	a5,576(gp) # 1b650 <errno>
   13cde:	dbed                	beqz	a5,13cd0 <_sbrk_r+0x1a>
   13ce0:	60e2                	ld	ra,24(sp)
   13ce2:	6442                	ld	s0,16(sp)
   13ce4:	c09c                	sw	a5,0(s1)
   13ce6:	64a2                	ld	s1,8(sp)
   13ce8:	6105                	addi	sp,sp,32
   13cea:	8082                	ret

0000000000013cec <__libc_fini_array>:
   13cec:	1101                	addi	sp,sp,-32
   13cee:	e822                	sd	s0,16(sp)
   13cf0:	67ed                	lui	a5,0x1b
   13cf2:	646d                	lui	s0,0x1b
   13cf4:	a9078793          	addi	a5,a5,-1392 # 1aa90 <__sglue>
   13cf8:	a8840413          	addi	s0,s0,-1400 # 1aa88 <__do_global_dtors_aux_fini_array_entry>
   13cfc:	8f81                	sub	a5,a5,s0
   13cfe:	e426                	sd	s1,8(sp)
   13d00:	ec06                	sd	ra,24(sp)
   13d02:	4037d493          	srai	s1,a5,0x3
   13d06:	c881                	beqz	s1,13d16 <__libc_fini_array+0x2a>
   13d08:	1461                	addi	s0,s0,-8
   13d0a:	943e                	add	s0,s0,a5
   13d0c:	601c                	ld	a5,0(s0)
   13d0e:	14fd                	addi	s1,s1,-1
   13d10:	1461                	addi	s0,s0,-8
   13d12:	9782                	jalr	a5
   13d14:	fce5                	bnez	s1,13d0c <__libc_fini_array+0x20>
   13d16:	60e2                	ld	ra,24(sp)
   13d18:	6442                	ld	s0,16(sp)
   13d1a:	64a2                	ld	s1,8(sp)
   13d1c:	6105                	addi	sp,sp,32
   13d1e:	8082                	ret

0000000000013d20 <memmove>:
   13d20:	02a5f163          	bgeu	a1,a0,13d42 <memmove+0x22>
   13d24:	00c587b3          	add	a5,a1,a2
   13d28:	00f57d63          	bgeu	a0,a5,13d42 <memmove+0x22>
   13d2c:	ce05                	beqz	a2,13d64 <memmove+0x44>
   13d2e:	962a                	add	a2,a2,a0
   13d30:	fff7c703          	lbu	a4,-1(a5)
   13d34:	167d                	addi	a2,a2,-1
   13d36:	17fd                	addi	a5,a5,-1
   13d38:	00e60023          	sb	a4,0(a2)
   13d3c:	fec51ae3          	bne	a0,a2,13d30 <memmove+0x10>
   13d40:	8082                	ret
   13d42:	47fd                	li	a5,31
   13d44:	02c7e163          	bltu	a5,a2,13d66 <memmove+0x46>
   13d48:	87aa                	mv	a5,a0
   13d4a:	fff60693          	addi	a3,a2,-1
   13d4e:	c65d                	beqz	a2,13dfc <memmove+0xdc>
   13d50:	0685                	addi	a3,a3,1 # ffffffff80000001 <__BSS_END__+0xffffffff7ffe43f1>
   13d52:	96be                	add	a3,a3,a5
   13d54:	0005c703          	lbu	a4,0(a1)
   13d58:	0785                	addi	a5,a5,1
   13d5a:	0585                	addi	a1,a1,1
   13d5c:	fee78fa3          	sb	a4,-1(a5)
   13d60:	fed79ae3          	bne	a5,a3,13d54 <memmove+0x34>
   13d64:	8082                	ret
   13d66:	00b567b3          	or	a5,a0,a1
   13d6a:	8b9d                	andi	a5,a5,7
   13d6c:	88ae                	mv	a7,a1
   13d6e:	e3d9                	bnez	a5,13df4 <memmove+0xd4>
   13d70:	00565793          	srli	a5,a2,0x5
   13d74:	00579813          	slli	a6,a5,0x5
   13d78:	982a                	add	a6,a6,a0
   13d7a:	17fd                	addi	a5,a5,-1
   13d7c:	872a                	mv	a4,a0
   13d7e:	6194                	ld	a3,0(a1)
   13d80:	02058593          	addi	a1,a1,32
   13d84:	02070713          	addi	a4,a4,32
   13d88:	fed73023          	sd	a3,-32(a4)
   13d8c:	fe85b683          	ld	a3,-24(a1)
   13d90:	fed73423          	sd	a3,-24(a4)
   13d94:	ff05b683          	ld	a3,-16(a1)
   13d98:	fed73823          	sd	a3,-16(a4)
   13d9c:	ff85b683          	ld	a3,-8(a1)
   13da0:	fed73c23          	sd	a3,-8(a4)
   13da4:	fd071de3          	bne	a4,a6,13d7e <memmove+0x5e>
   13da8:	0796                	slli	a5,a5,0x5
   13daa:	01178733          	add	a4,a5,a7
   13dae:	02070593          	addi	a1,a4,32
   13db2:	97aa                	add	a5,a5,a0
   13db4:	01867813          	andi	a6,a2,24
   13db8:	02078793          	addi	a5,a5,32
   13dbc:	8e2e                	mv	t3,a1
   13dbe:	01f67693          	andi	a3,a2,31
   13dc2:	02080e63          	beqz	a6,13dfe <memmove+0xde>
   13dc6:	16e1                	addi	a3,a3,-8
   13dc8:	9ae1                	andi	a3,a3,-8
   13dca:	9736                	add	a4,a4,a3
   13dcc:	02870713          	addi	a4,a4,40
   13dd0:	41150833          	sub	a6,a0,a7
   13dd4:	0005b303          	ld	t1,0(a1)
   13dd8:	010588b3          	add	a7,a1,a6
   13ddc:	05a1                	addi	a1,a1,8
   13dde:	0068b023          	sd	t1,0(a7)
   13de2:	fee599e3          	bne	a1,a4,13dd4 <memmove+0xb4>
   13de6:	00868713          	addi	a4,a3,8
   13dea:	01c705b3          	add	a1,a4,t3
   13dee:	97ba                	add	a5,a5,a4
   13df0:	8a1d                	andi	a2,a2,7
   13df2:	bfa1                	j	13d4a <memmove+0x2a>
   13df4:	fff60693          	addi	a3,a2,-1
   13df8:	87aa                	mv	a5,a0
   13dfa:	bf99                	j	13d50 <memmove+0x30>
   13dfc:	8082                	ret
   13dfe:	8636                	mv	a2,a3
   13e00:	b7a9                	j	13d4a <memmove+0x2a>

0000000000013e02 <memcpy>:
   13e02:	00a5c7b3          	xor	a5,a1,a0
   13e06:	8b9d                	andi	a5,a5,7
   13e08:	00c508b3          	add	a7,a0,a2
   13e0c:	e7b1                	bnez	a5,13e58 <memcpy+0x56>
   13e0e:	00863613          	sltiu	a2,a2,8
   13e12:	e239                	bnez	a2,13e58 <memcpy+0x56>
   13e14:	00757793          	andi	a5,a0,7
   13e18:	872a                	mv	a4,a0
   13e1a:	e7cd                	bnez	a5,13ec4 <memcpy+0xc2>
   13e1c:	ff88f613          	andi	a2,a7,-8
   13e20:	40e606b3          	sub	a3,a2,a4
   13e24:	04000793          	li	a5,64
   13e28:	04d7c463          	blt	a5,a3,13e70 <memcpy+0x6e>
   13e2c:	86ae                	mv	a3,a1
   13e2e:	87ba                	mv	a5,a4
   13e30:	02c77163          	bgeu	a4,a2,13e52 <memcpy+0x50>
   13e34:	0006b803          	ld	a6,0(a3)
   13e38:	07a1                	addi	a5,a5,8
   13e3a:	06a1                	addi	a3,a3,8
   13e3c:	ff07bc23          	sd	a6,-8(a5)
   13e40:	fec7eae3          	bltu	a5,a2,13e34 <memcpy+0x32>
   13e44:	167d                	addi	a2,a2,-1
   13e46:	8e19                	sub	a2,a2,a4
   13e48:	9a61                	andi	a2,a2,-8
   13e4a:	05a1                	addi	a1,a1,8
   13e4c:	0721                	addi	a4,a4,8
   13e4e:	95b2                	add	a1,a1,a2
   13e50:	9732                	add	a4,a4,a2
   13e52:	01176663          	bltu	a4,a7,13e5e <memcpy+0x5c>
   13e56:	8082                	ret
   13e58:	872a                	mv	a4,a0
   13e5a:	ff157ee3          	bgeu	a0,a7,13e56 <memcpy+0x54>
   13e5e:	0005c783          	lbu	a5,0(a1)
   13e62:	0705                	addi	a4,a4,1
   13e64:	0585                	addi	a1,a1,1
   13e66:	fef70fa3          	sb	a5,-1(a4)
   13e6a:	fee89ae3          	bne	a7,a4,13e5e <memcpy+0x5c>
   13e6e:	8082                	ret
   13e70:	6194                	ld	a3,0(a1)
   13e72:	0085b283          	ld	t0,8(a1)
   13e76:	0105bf83          	ld	t6,16(a1)
   13e7a:	0185bf03          	ld	t5,24(a1)
   13e7e:	0205be83          	ld	t4,32(a1)
   13e82:	0285be03          	ld	t3,40(a1)
   13e86:	0305b303          	ld	t1,48(a1)
   13e8a:	0385b803          	ld	a6,56(a1)
   13e8e:	e314                	sd	a3,0(a4)
   13e90:	61b4                	ld	a3,64(a1)
   13e92:	04870713          	addi	a4,a4,72
   13e96:	fc573023          	sd	t0,-64(a4)
   13e9a:	fed73c23          	sd	a3,-8(a4)
   13e9e:	fdf73423          	sd	t6,-56(a4)
   13ea2:	40e606b3          	sub	a3,a2,a4
   13ea6:	fde73823          	sd	t5,-48(a4)
   13eaa:	fdd73c23          	sd	t4,-40(a4)
   13eae:	ffc73023          	sd	t3,-32(a4)
   13eb2:	fe673423          	sd	t1,-24(a4)
   13eb6:	ff073823          	sd	a6,-16(a4)
   13eba:	04858593          	addi	a1,a1,72
   13ebe:	fad7c9e3          	blt	a5,a3,13e70 <memcpy+0x6e>
   13ec2:	b7ad                	j	13e2c <memcpy+0x2a>
   13ec4:	0005c683          	lbu	a3,0(a1)
   13ec8:	0705                	addi	a4,a4,1
   13eca:	00777793          	andi	a5,a4,7
   13ece:	fed70fa3          	sb	a3,-1(a4)
   13ed2:	0585                	addi	a1,a1,1
   13ed4:	d7a1                	beqz	a5,13e1c <memcpy+0x1a>
   13ed6:	0005c683          	lbu	a3,0(a1)
   13eda:	0705                	addi	a4,a4,1
   13edc:	00777793          	andi	a5,a4,7
   13ee0:	fed70fa3          	sb	a3,-1(a4)
   13ee4:	0585                	addi	a1,a1,1
   13ee6:	fff9                	bnez	a5,13ec4 <memcpy+0xc2>
   13ee8:	bf15                	j	13e1c <memcpy+0x1a>

0000000000013eea <strlen>:
   13eea:	00757793          	andi	a5,a0,7
   13eee:	872a                	mv	a4,a0
   13ef0:	efb1                	bnez	a5,13f4c <strlen+0x62>
   13ef2:	7f7f87b7          	lui	a5,0x7f7f8
   13ef6:	f7f78793          	addi	a5,a5,-129 # 7f7f7f7f <__BSS_END__+0x7f7dc36f>
   13efa:	02079693          	slli	a3,a5,0x20
   13efe:	96be                	add	a3,a3,a5
   13f00:	55fd                	li	a1,-1
   13f02:	6310                	ld	a2,0(a4)
   13f04:	0721                	addi	a4,a4,8
   13f06:	00d677b3          	and	a5,a2,a3
   13f0a:	97b6                	add	a5,a5,a3
   13f0c:	8fd1                	or	a5,a5,a2
   13f0e:	8fd5                	or	a5,a5,a3
   13f10:	feb789e3          	beq	a5,a1,13f02 <strlen+0x18>
   13f14:	ff874783          	lbu	a5,-8(a4)
   13f18:	40a706b3          	sub	a3,a4,a0
   13f1c:	c7a9                	beqz	a5,13f66 <strlen+0x7c>
   13f1e:	ff974783          	lbu	a5,-7(a4)
   13f22:	cf9d                	beqz	a5,13f60 <strlen+0x76>
   13f24:	ffa74783          	lbu	a5,-6(a4)
   13f28:	c7a9                	beqz	a5,13f72 <strlen+0x88>
   13f2a:	ffb74783          	lbu	a5,-5(a4)
   13f2e:	cf9d                	beqz	a5,13f6c <strlen+0x82>
   13f30:	ffc74783          	lbu	a5,-4(a4)
   13f34:	c3b1                	beqz	a5,13f78 <strlen+0x8e>
   13f36:	ffd74783          	lbu	a5,-3(a4)
   13f3a:	c3b1                	beqz	a5,13f7e <strlen+0x94>
   13f3c:	ffe74783          	lbu	a5,-2(a4)
   13f40:	00f03533          	snez	a0,a5
   13f44:	9536                	add	a0,a0,a3
   13f46:	1579                	addi	a0,a0,-2
   13f48:	8082                	ret
   13f4a:	d6c5                	beqz	a3,13ef2 <strlen+0x8>
   13f4c:	00074783          	lbu	a5,0(a4)
   13f50:	0705                	addi	a4,a4,1
   13f52:	00777693          	andi	a3,a4,7
   13f56:	fbf5                	bnez	a5,13f4a <strlen+0x60>
   13f58:	8f09                	sub	a4,a4,a0
   13f5a:	fff70513          	addi	a0,a4,-1
   13f5e:	8082                	ret
   13f60:	ff968513          	addi	a0,a3,-7
   13f64:	8082                	ret
   13f66:	ff868513          	addi	a0,a3,-8
   13f6a:	8082                	ret
   13f6c:	ffb68513          	addi	a0,a3,-5
   13f70:	8082                	ret
   13f72:	ffa68513          	addi	a0,a3,-6
   13f76:	8082                	ret
   13f78:	ffc68513          	addi	a0,a3,-4
   13f7c:	8082                	ret
   13f7e:	ffd68513          	addi	a0,a3,-3
   13f82:	8082                	ret

0000000000013f84 <frexpl>:
   13f84:	715d                	addi	sp,sp,-80
   13f86:	fc26                	sd	s1,56(sp)
   13f88:	64a1                	lui	s1,0x8
   13f8a:	e486                	sd	ra,72(sp)
   13f8c:	0305d793          	srli	a5,a1,0x30
   13f90:	14fd                	addi	s1,s1,-1 # 7fff <exit-0x8121>
   13f92:	00062023          	sw	zero,0(a2)
   13f96:	8fe5                	and	a5,a5,s1
   13f98:	872e                	mv	a4,a1
   13f9a:	832a                	mv	t1,a0
   13f9c:	06978a63          	beq	a5,s1,14010 <frexpl+0x8c>
   13fa0:	e0a2                	sd	s0,64(sp)
   13fa2:	4681                	li	a3,0
   13fa4:	8432                	mv	s0,a2
   13fa6:	4601                	li	a2,0
   13fa8:	e82e                	sd	a1,16(sp)
   13faa:	e42a                	sd	a0,8(sp)
   13fac:	ec3e                	sd	a5,24(sp)
   13fae:	f02a                	sd	a0,32(sp)
   13fb0:	f42e                	sd	a1,40(sp)
   13fb2:	01c040ef          	jal	17fce <__eqtf2>
   13fb6:	6322                	ld	t1,8(sp)
   13fb8:	6742                	ld	a4,16(sp)
   13fba:	c931                	beqz	a0,1400e <frexpl+0x8a>
   13fbc:	67e2                	ld	a5,24(sp)
   13fbe:	4601                	li	a2,0
   13fc0:	889a                	mv	a7,t1
   13fc2:	883a                	mv	a6,a4
   13fc4:	ef99                	bnez	a5,13fe2 <frexpl+0x5e>
   13fc6:	040716b7          	lui	a3,0x4071
   13fca:	851a                	mv	a0,t1
   13fcc:	85ba                	mv	a1,a4
   13fce:	1692                	slli	a3,a3,0x24
   13fd0:	212040ef          	jal	181e2 <__multf3>
   13fd4:	0305d793          	srli	a5,a1,0x30
   13fd8:	882e                	mv	a6,a1
   13fda:	88aa                	mv	a7,a0
   13fdc:	8fe5                	and	a5,a5,s1
   13fde:	f8e00613          	li	a2,-114
   13fe2:	7771                	lui	a4,0xffffc
   13fe4:	2709                	addiw	a4,a4,2 # ffffffffffffc002 <__BSS_END__+0xfffffffffffe03f2>
   13fe6:	9fb9                	addw	a5,a5,a4
   13fe8:	f80016b7          	lui	a3,0xf8001
   13fec:	9fb1                	addw	a5,a5,a2
   13fee:	60a6                	ld	ra,72(sp)
   13ff0:	c01c                	sw	a5,0(s0)
   13ff2:	1692                	slli	a3,a3,0x24
   13ff4:	6406                	ld	s0,64(sp)
   13ff6:	16fd                	addi	a3,a3,-1 # fffffffff8000fff <__BSS_END__+0xfffffffff7fe53ef>
   13ff8:	01fff737          	lui	a4,0x1fff
   13ffc:	00d87833          	and	a6,a6,a3
   14000:	1716                	slli	a4,a4,0x25
   14002:	74e2                	ld	s1,56(sp)
   14004:	8546                	mv	a0,a7
   14006:	00e865b3          	or	a1,a6,a4
   1400a:	6161                	addi	sp,sp,80
   1400c:	8082                	ret
   1400e:	6406                	ld	s0,64(sp)
   14010:	60a6                	ld	ra,72(sp)
   14012:	74e2                	ld	s1,56(sp)
   14014:	851a                	mv	a0,t1
   14016:	85ba                	mv	a1,a4
   14018:	6161                	addi	sp,sp,80
   1401a:	8082                	ret

000000000001401c <__register_exitproc>:
   1401c:	2481b783          	ld	a5,584(gp) # 1b658 <__atexit>
   14020:	c3a9                	beqz	a5,14062 <__register_exitproc+0x46>
   14022:	4798                	lw	a4,8(a5)
   14024:	487d                	li	a6,31
   14026:	06e84163          	blt	a6,a4,14088 <__register_exitproc+0x6c>
   1402a:	c505                	beqz	a0,14052 <__register_exitproc+0x36>
   1402c:	00371813          	slli	a6,a4,0x3
   14030:	983e                	add	a6,a6,a5
   14032:	10c83823          	sd	a2,272(a6)
   14036:	3107a883          	lw	a7,784(a5)
   1403a:	4605                	li	a2,1
   1403c:	00e6163b          	sllw	a2,a2,a4
   14040:	00c8e8b3          	or	a7,a7,a2
   14044:	3117a823          	sw	a7,784(a5)
   14048:	20d83823          	sd	a3,528(a6)
   1404c:	4689                	li	a3,2
   1404e:	02d50063          	beq	a0,a3,1406e <__register_exitproc+0x52>
   14052:	0017069b          	addiw	a3,a4,1 # 1fff001 <__BSS_END__+0x1fe33f1>
   14056:	070e                	slli	a4,a4,0x3
   14058:	c794                	sw	a3,8(a5)
   1405a:	97ba                	add	a5,a5,a4
   1405c:	eb8c                	sd	a1,16(a5)
   1405e:	4501                	li	a0,0
   14060:	8082                	ret
   14062:	67f1                	lui	a5,0x1c
   14064:	8f878793          	addi	a5,a5,-1800 # 1b8f8 <__atexit0>
   14068:	24f1b423          	sd	a5,584(gp) # 1b658 <__atexit>
   1406c:	bf5d                	j	14022 <__register_exitproc+0x6>
   1406e:	3147a683          	lw	a3,788(a5)
   14072:	4501                	li	a0,0
   14074:	8e55                	or	a2,a2,a3
   14076:	0017069b          	addiw	a3,a4,1
   1407a:	070e                	slli	a4,a4,0x3
   1407c:	30c7aa23          	sw	a2,788(a5)
   14080:	c794                	sw	a3,8(a5)
   14082:	97ba                	add	a5,a5,a4
   14084:	eb8c                	sd	a1,16(a5)
   14086:	8082                	ret
   14088:	557d                	li	a0,-1
   1408a:	8082                	ret

000000000001408c <_ldtoa_r>:
   1408c:	6365                	lui	t1,0x19
   1408e:	5a030313          	addi	t1,t1,1440 # 195a0 <blanks.1+0x10>
   14092:	00033f03          	ld	t5,0(t1)
   14096:	00833e83          	ld	t4,8(t1)
   1409a:	01032e03          	lw	t3,16(t1)
   1409e:	05053303          	ld	t1,80(a0)
   140a2:	7171                	addi	sp,sp,-176
   140a4:	ed26                	sd	s1,152(sp)
   140a6:	e94a                	sd	s2,144(sp)
   140a8:	e152                	sd	s4,128(sp)
   140aa:	fcd6                	sd	s5,120(sp)
   140ac:	f8da                	sd	s6,112(sp)
   140ae:	ece6                	sd	s9,88(sp)
   140b0:	e8ea                	sd	s10,80(sp)
   140b2:	e4ee                	sd	s11,72(sp)
   140b4:	f506                	sd	ra,168(sp)
   140b6:	f122                	sd	s0,160(sp)
   140b8:	e54e                	sd	s3,136(sp)
   140ba:	f4de                	sd	s7,104(sp)
   140bc:	f0e2                	sd	s8,96(sp)
   140be:	f47a                	sd	t5,40(sp)
   140c0:	f876                	sd	t4,48(sp)
   140c2:	dc72                	sw	t3,56(sp)
   140c4:	8a2a                	mv	s4,a0
   140c6:	892e                	mv	s2,a1
   140c8:	84b2                	mv	s1,a2
   140ca:	8cb6                	mv	s9,a3
   140cc:	8d3a                	mv	s10,a4
   140ce:	8abe                	mv	s5,a5
   140d0:	8b42                	mv	s6,a6
   140d2:	8dc6                	mv	s11,a7
   140d4:	00030763          	beqz	t1,140e2 <_ldtoa_r+0x56>
   140d8:	859a                	mv	a1,t1
   140da:	340010ef          	jal	1541a <__freedtoa>
   140de:	040a3823          	sd	zero,80(s4)
   140e2:	5752                	lw	a4,52(sp)
   140e4:	0004a793          	slti	a5,s1,0
   140e8:	59fd                	li	s3,-1
   140ea:	4017569b          	sraiw	a3,a4,0x1
   140ee:	8ff5                	and	a5,a5,a3
   140f0:	8f3d                	xor	a4,a4,a5
   140f2:	da3a                	sw	a4,52(sp)
   140f4:	0004a713          	slti	a4,s1,0
   140f8:	00eb2023          	sw	a4,0(s6) # ffffffff80000000 <__BSS_END__+0xffffffff7ffe43f0>
   140fc:	0019d413          	srli	s0,s3,0x1
   14100:	00149713          	slli	a4,s1,0x1
   14104:	8c65                	and	s0,s0,s1
   14106:	03175b93          	srli	s7,a4,0x31
   1410a:	77f1                	lui	a5,0xffffc
   1410c:	01049713          	slli	a4,s1,0x10
   14110:	f917879b          	addiw	a5,a5,-111 # ffffffffffffbf91 <__BSS_END__+0xfffffffffffe0381>
   14114:	03075b13          	srli	s6,a4,0x30
   14118:	86a2                	mv	a3,s0
   1411a:	85a2                	mv	a1,s0
   1411c:	864a                	mv	a2,s2
   1411e:	854a                	mv	a0,s2
   14120:	ec4a                	sd	s2,24(sp)
   14122:	d026                	sw	s1,32(sp)
   14124:	00fb8c3b          	addw	s8,s7,a5
   14128:	d25a                	sw	s6,36(sp)
   1412a:	6c9040ef          	jal	18ff2 <__unordtf2>
   1412e:	ed55                	bnez	a0,141ea <_ldtoa_r+0x15e>
   14130:	07fff6b7          	lui	a3,0x7fff
   14134:	1692                	slli	a3,a3,0x24
   14136:	96ce                	add	a3,a3,s3
   14138:	864e                	mv	a2,s3
   1413a:	854a                	mv	a0,s2
   1413c:	85a2                	mv	a1,s0
   1413e:	6b5040ef          	jal	18ff2 <__unordtf2>
   14142:	e135                	bnez	a0,141a6 <_ldtoa_r+0x11a>
   14144:	07fff6b7          	lui	a3,0x7fff
   14148:	1692                	slli	a3,a3,0x24
   1414a:	864e                	mv	a2,s3
   1414c:	96ce                	add	a3,a3,s3
   1414e:	854a                	mv	a0,s2
   14150:	85a2                	mv	a1,s0
   14152:	7db030ef          	jal	1812c <__letf2>
   14156:	04a05863          	blez	a0,141a6 <_ldtoa_r+0x11a>
   1415a:	478d                	li	a5,3
   1415c:	ca3e                	sw	a5,20(sp)
   1415e:	87e6                	mv	a5,s9
   14160:	0858                	addi	a4,sp,20
   14162:	e06e                	sd	s11,0(sp)
   14164:	886a                	mv	a6,s10
   14166:	8662                	mv	a2,s8
   14168:	8552                	mv	a0,s4
   1416a:	88d6                	mv	a7,s5
   1416c:	0834                	addi	a3,sp,24
   1416e:	102c                	addi	a1,sp,40
   14170:	102000ef          	jal	14272 <__gdtoa>
   14174:	000aa703          	lw	a4,0(s5)
   14178:	77e1                	lui	a5,0xffff8
   1417a:	00f71763          	bne	a4,a5,14188 <_ldtoa_r+0xfc>
   1417e:	800007b7          	lui	a5,0x80000
   14182:	17fd                	addi	a5,a5,-1 # ffffffff7fffffff <__BSS_END__+0xffffffff7ffe43ef>
   14184:	00faa023          	sw	a5,0(s5)
   14188:	70aa                	ld	ra,168(sp)
   1418a:	740a                	ld	s0,160(sp)
   1418c:	64ea                	ld	s1,152(sp)
   1418e:	694a                	ld	s2,144(sp)
   14190:	69aa                	ld	s3,136(sp)
   14192:	6a0a                	ld	s4,128(sp)
   14194:	7ae6                	ld	s5,120(sp)
   14196:	7b46                	ld	s6,112(sp)
   14198:	7ba6                	ld	s7,104(sp)
   1419a:	7c06                	ld	s8,96(sp)
   1419c:	6ce6                	ld	s9,88(sp)
   1419e:	6d46                	ld	s10,80(sp)
   141a0:	6da6                	ld	s11,72(sp)
   141a2:	614d                	addi	sp,sp,176
   141a4:	8082                	ret
   141a6:	67e5                	lui	a5,0x19
   141a8:	4087b683          	ld	a3,1032(a5) # 19408 <__clzdi2+0x20e>
   141ac:	85a2                	mv	a1,s0
   141ae:	4601                	li	a2,0
   141b0:	854a                	mv	a0,s2
   141b2:	6c5030ef          	jal	18076 <__getf2>
   141b6:	00054963          	bltz	a0,141c8 <_ldtoa_r+0x13c>
   141ba:	67c1                	lui	a5,0x10
   141bc:	0167e7b3          	or	a5,a5,s6
   141c0:	4705                	li	a4,1
   141c2:	d23e                	sw	a5,36(sp)
   141c4:	ca3a                	sw	a4,20(sp)
   141c6:	bf61                	j	1415e <_ldtoa_r+0xd2>
   141c8:	854a                	mv	a0,s2
   141ca:	85a6                	mv	a1,s1
   141cc:	4601                	li	a2,0
   141ce:	4681                	li	a3,0
   141d0:	5ff030ef          	jal	17fce <__eqtf2>
   141d4:	e119                	bnez	a0,141da <_ldtoa_r+0x14e>
   141d6:	ca02                	sw	zero,20(sp)
   141d8:	b759                	j	1415e <_ldtoa_r+0xd2>
   141da:	77f1                	lui	a5,0xffffc
   141dc:	f927879b          	addiw	a5,a5,-110 # ffffffffffffbf92 <__BSS_END__+0xfffffffffffe0382>
   141e0:	4709                	li	a4,2
   141e2:	00fb8c3b          	addw	s8,s7,a5
   141e6:	ca3a                	sw	a4,20(sp)
   141e8:	bf9d                	j	1415e <_ldtoa_r+0xd2>
   141ea:	4791                	li	a5,4
   141ec:	ca3e                	sw	a5,20(sp)
   141ee:	bf85                	j	1415e <_ldtoa_r+0xd2>

00000000000141f0 <_ldcheck>:
   141f0:	7179                	addi	sp,sp,-48
   141f2:	ec26                	sd	s1,24(sp)
   141f4:	6504                	ld	s1,8(a0)
   141f6:	e84a                	sd	s2,16(sp)
   141f8:	e44e                	sd	s3,8(sp)
   141fa:	00053903          	ld	s2,0(a0)
   141fe:	59fd                	li	s3,-1
   14200:	0019d793          	srli	a5,s3,0x1
   14204:	8cfd                	and	s1,s1,a5
   14206:	86a6                	mv	a3,s1
   14208:	85a6                	mv	a1,s1
   1420a:	864a                	mv	a2,s2
   1420c:	854a                	mv	a0,s2
   1420e:	f406                	sd	ra,40(sp)
   14210:	5e3040ef          	jal	18ff2 <__unordtf2>
   14214:	e921                	bnez	a0,14264 <_ldcheck+0x74>
   14216:	07fff6b7          	lui	a3,0x7fff
   1421a:	1692                	slli	a3,a3,0x24
   1421c:	96ce                	add	a3,a3,s3
   1421e:	864e                	mv	a2,s3
   14220:	854a                	mv	a0,s2
   14222:	85a6                	mv	a1,s1
   14224:	f022                	sd	s0,32(sp)
   14226:	4405                	li	s0,1
   14228:	5cb040ef          	jal	18ff2 <__unordtf2>
   1422c:	cd11                	beqz	a0,14248 <_ldcheck+0x58>
   1422e:	70a2                	ld	ra,40(sp)
   14230:	00144513          	xori	a0,s0,1
   14234:	7402                	ld	s0,32(sp)
   14236:	0ff57513          	zext.b	a0,a0
   1423a:	64e2                	ld	s1,24(sp)
   1423c:	6942                	ld	s2,16(sp)
   1423e:	69a2                	ld	s3,8(sp)
   14240:	0015151b          	slliw	a0,a0,0x1
   14244:	6145                	addi	sp,sp,48
   14246:	8082                	ret
   14248:	07fff7b7          	lui	a5,0x7fff
   1424c:	1792                	slli	a5,a5,0x24
   1424e:	864e                	mv	a2,s3
   14250:	013786b3          	add	a3,a5,s3
   14254:	854a                	mv	a0,s2
   14256:	85a6                	mv	a1,s1
   14258:	6d5030ef          	jal	1812c <__letf2>
   1425c:	fca059e3          	blez	a0,1422e <_ldcheck+0x3e>
   14260:	4401                	li	s0,0
   14262:	b7f1                	j	1422e <_ldcheck+0x3e>
   14264:	70a2                	ld	ra,40(sp)
   14266:	64e2                	ld	s1,24(sp)
   14268:	6942                	ld	s2,16(sp)
   1426a:	69a2                	ld	s3,8(sp)
   1426c:	4505                	li	a0,1
   1426e:	6145                	addi	sp,sp,48
   14270:	8082                	ret

0000000000014272 <__gdtoa>:
   14272:	00072303          	lw	t1,0(a4)
   14276:	7111                	addi	sp,sp,-256
   14278:	f9a2                	sd	s0,240(sp)
   1427a:	6412                	ld	s0,256(sp)
   1427c:	edce                	sd	s3,216(sp)
   1427e:	fcf37e13          	andi	t3,t1,-49
   14282:	fd86                	sd	ra,248(sp)
   14284:	01c72023          	sw	t3,0(a4)
   14288:	4e8d                	li	t4,3
   1428a:	00f37e13          	andi	t3,t1,15
   1428e:	89a2                	mv	s3,s0
   14290:	27de0763          	beq	t3,t4,144fe <__gdtoa+0x28c>
   14294:	fd5e                	sd	s7,184(sp)
   14296:	00c37413          	andi	s0,t1,12
   1429a:	8ba2                	mv	s7,s0
   1429c:	1c041163          	bnez	s0,1445e <__gdtoa+0x1ec>
   142a0:	e9d2                	sd	s4,208(sp)
   142a2:	f962                	sd	s8,176(sp)
   142a4:	f566                	sd	s9,168(sp)
   142a6:	f16a                	sd	s10,160(sp)
   142a8:	ed6e                	sd	s11,152(sp)
   142aa:	e03a                	sd	a4,0(sp)
   142ac:	8a2a                	mv	s4,a0
   142ae:	8cc6                	mv	s9,a7
   142b0:	8c36                	mv	s8,a3
   142b2:	8d32                	mv	s10,a2
   142b4:	8dae                	mv	s11,a1
   142b6:	200e0d63          	beqz	t3,144d0 <__gdtoa+0x25e>
   142ba:	4194                	lw	a3,0(a1)
   142bc:	e5d6                	sd	s5,200(sp)
   142be:	e1da                	sd	s6,192(sp)
   142c0:	8abe                	mv	s5,a5
   142c2:	02000793          	li	a5,32
   142c6:	8b42                	mv	s6,a6
   142c8:	4581                	li	a1,0
   142ca:	00d7d763          	bge	a5,a3,142d8 <__gdtoa+0x66>
   142ce:	0017979b          	slliw	a5,a5,0x1
   142d2:	2585                	addiw	a1,a1,1
   142d4:	fed7cde3          	blt	a5,a3,142ce <__gdtoa+0x5c>
   142d8:	8552                	mv	a0,s4
   142da:	e836                	sd	a3,16(sp)
   142dc:	e41a                	sd	t1,8(sp)
   142de:	3aa010ef          	jal	15688 <_Balloc>
   142e2:	6322                	ld	t1,8(sp)
   142e4:	66c2                	ld	a3,16(sp)
   142e6:	842a                	mv	s0,a0
   142e8:	1a050f63          	beqz	a0,144a6 <__gdtoa+0x234>
   142ec:	fff6871b          	addiw	a4,a3,-1 # 7ffefff <__BSS_END__+0x7fe33ef>
   142f0:	4057571b          	sraiw	a4,a4,0x5
   142f4:	070a                	slli	a4,a4,0x2
   142f6:	87e2                	mv	a5,s8
   142f8:	00ec0533          	add	a0,s8,a4
   142fc:	01840613          	addi	a2,s0,24
   14300:	438c                	lw	a1,0(a5)
   14302:	0791                	addi	a5,a5,4 # 7fff004 <__BSS_END__+0x7fe33f4>
   14304:	0611                	addi	a2,a2,4
   14306:	feb62e23          	sw	a1,-4(a2)
   1430a:	fef57be3          	bgeu	a0,a5,14300 <__gdtoa+0x8e>
   1430e:	001c0793          	addi	a5,s8,1
   14312:	0505                	addi	a0,a0,1
   14314:	00f53533          	sltu	a0,a0,a5
   14318:	157d                	addi	a0,a0,-1
   1431a:	8f69                	and	a4,a4,a0
   1431c:	0711                	addi	a4,a4,4
   1431e:	40275793          	srai	a5,a4,0x2
   14322:	9722                	add	a4,a4,s0
   14324:	a021                	j	1432c <__gdtoa+0xba>
   14326:	1771                	addi	a4,a4,-4
   14328:	1e078963          	beqz	a5,1451a <__gdtoa+0x2a8>
   1432c:	4b50                	lw	a2,20(a4)
   1432e:	85be                	mv	a1,a5
   14330:	37fd                	addiw	a5,a5,-1
   14332:	da75                	beqz	a2,14326 <__gdtoa+0xb4>
   14334:	078a                	slli	a5,a5,0x2
   14336:	97a2                	add	a5,a5,s0
   14338:	4f88                	lw	a0,24(a5)
   1433a:	c84c                	sw	a1,20(s0)
   1433c:	ec1a                	sd	t1,24(sp)
   1433e:	e836                	sd	a3,16(sp)
   14340:	e42e                	sd	a1,8(sp)
   14342:	598010ef          	jal	158da <__hi0bits>
   14346:	65a2                	ld	a1,8(sp)
   14348:	6362                	ld	t1,24(sp)
   1434a:	66c2                	ld	a3,16(sp)
   1434c:	0055959b          	slliw	a1,a1,0x5
   14350:	40a587bb          	subw	a5,a1,a0
   14354:	8522                	mv	a0,s0
   14356:	ec3e                	sd	a5,24(sp)
   14358:	e836                	sd	a3,16(sp)
   1435a:	e41a                	sd	t1,8(sp)
   1435c:	2ec010ef          	jal	15648 <__trailz_D2A>
   14360:	c72a                	sw	a0,140(sp)
   14362:	6322                	ld	t1,8(sp)
   14364:	66c2                	ld	a3,16(sp)
   14366:	67e2                	ld	a5,24(sp)
   14368:	866a                	mv	a2,s10
   1436a:	3a051963          	bnez	a0,1471c <__gdtoa+0x4aa>
   1436e:	4858                	lw	a4,20(s0)
   14370:	14070a63          	beqz	a4,144c4 <__gdtoa+0x252>
   14374:	016c                	addi	a1,sp,140
   14376:	8522                	mv	a0,s0
   14378:	f03e                	sd	a5,32(sp)
   1437a:	ec36                	sd	a3,24(sp)
   1437c:	e832                	sd	a2,16(sp)
   1437e:	e41a                	sd	t1,8(sp)
   14380:	f5a6                	sd	s1,232(sp)
   14382:	505010ef          	jal	16086 <__b2d>
   14386:	e2050753          	fmv.x.d	a4,fa0
   1438a:	3ff00537          	lui	a0,0x3ff00
   1438e:	00c71593          	slli	a1,a4,0xc
   14392:	02071f13          	slli	t5,a4,0x20
   14396:	02c5d713          	srli	a4,a1,0x2c
   1439a:	00a765b3          	or	a1,a4,a0
   1439e:	02059713          	slli	a4,a1,0x20
   143a2:	020f5f13          	srli	t5,t5,0x20
   143a6:	00ef6f33          	or	t5,t5,a4
   143aa:	f20f07d3          	fmv.d.x	fa5,t5
   143ae:	1a81b707          	fld	fa4,424(gp) # 1b5b8 <__SDATA_BEGIN__>
   143b2:	1b01b687          	fld	fa3,432(gp) # 1b5c0 <__SDATA_BEGIN__+0x8>
   143b6:	0ae7f753          	fsub.d	fa4,fa5,fa4
   143ba:	1b81b787          	fld	fa5,440(gp) # 1b5c8 <__SDATA_BEGIN__+0x10>
   143be:	6642                	ld	a2,16(sp)
   143c0:	7782                	ld	a5,32(sp)
   143c2:	852e                	mv	a0,a1
   143c4:	7ad77743          	fmadd.d	fa4,fa4,fa3,fa5
   143c8:	00f608bb          	addw	a7,a2,a5
   143cc:	fff8859b          	addiw	a1,a7,-1
   143d0:	1c01b687          	fld	fa3,448(gp) # 1b5d0 <__SDATA_BEGIN__+0x18>
   143d4:	d20587d3          	fcvt.d.w	fa5,a1
   143d8:	6322                	ld	t1,8(sp)
   143da:	66e2                	ld	a3,24(sp)
   143dc:	72d7f7c3          	fmadd.d	fa5,fa5,fa3,fa4
   143e0:	872e                	mv	a4,a1
   143e2:	0005d563          	bgez	a1,143ec <__gdtoa+0x17a>
   143e6:	4705                	li	a4,1
   143e8:	4117073b          	subw	a4,a4,a7
   143ec:	bcb7071b          	addiw	a4,a4,-1077
   143f0:	00e05863          	blez	a4,14400 <__gdtoa+0x18e>
   143f4:	1c81b707          	fld	fa4,456(gp) # 1b5d8 <__SDATA_BEGIN__+0x20>
   143f8:	d20706d3          	fcvt.d.w	fa3,a4
   143fc:	7ae6f7c3          	fmadd.d	fa5,fa3,fa4,fa5
   14400:	f2000753          	fmv.d.x	fa4,zero
   14404:	c2079853          	fcvt.w.d	a6,fa5,rtz
   14408:	a2e79753          	flt.d	a4,fa5,fa4
   1440c:	42071763          	bnez	a4,1483a <__gdtoa+0x5c8>
   14410:	0145971b          	slliw	a4,a1,0x14
   14414:	1f02                	slli	t5,t5,0x20
   14416:	9f29                	addw	a4,a4,a0
   14418:	1702                	slli	a4,a4,0x20
   1441a:	020f5f13          	srli	t5,t5,0x20
   1441e:	40b785bb          	subw	a1,a5,a1
   14422:	00ef6f33          	or	t5,t5,a4
   14426:	fff58e9b          	addiw	t4,a1,-1
   1442a:	4759                	li	a4,22
   1442c:	8e76                	mv	t3,t4
   1442e:	0f076963          	bltu	a4,a6,14520 <__gdtoa+0x2ae>
   14432:	6565                	lui	a0,0x19
   14434:	61850513          	addi	a0,a0,1560 # 19618 <__mprec_tens>
   14438:	00381713          	slli	a4,a6,0x3
   1443c:	972a                	add	a4,a4,a0
   1443e:	231c                	fld	fa5,0(a4)
   14440:	f20f0753          	fmv.d.x	fa4,t5
   14444:	a2f71753          	flt.d	a4,fa4,fa5
   14448:	30071263          	bnez	a4,1474c <__gdtoa+0x4da>
   1444c:	0cb051e3          	blez	a1,14d0e <__gdtoa+0xa9c>
   14450:	01d80ebb          	addw	t4,a6,t4
   14454:	f082                	sd	zero,96(sp)
   14456:	e8c2                	sd	a6,80(sp)
   14458:	e802                	sd	zero,16(sp)
   1445a:	e482                	sd	zero,72(sp)
   1445c:	a0cd                	j	1453e <__gdtoa+0x2cc>
   1445e:	4791                	li	a5,4
   14460:	04fe1a63          	bne	t3,a5,144b4 <__gdtoa+0x242>
   14464:	744e                	ld	s0,240(sp)
   14466:	7bea                	ld	s7,184(sp)
   14468:	70ee                	ld	ra,248(sp)
   1446a:	77e1                	lui	a5,0xffff8
   1446c:	864e                	mv	a2,s3
   1446e:	69ee                	ld	s3,216(sp)
   14470:	65e5                	lui	a1,0x19
   14472:	00f8a023          	sw	a5,0(a7)
   14476:	86f6                	mv	a3,t4
   14478:	2a858593          	addi	a1,a1,680 # 192a8 <__clzdi2+0xae>
   1447c:	6111                	addi	sp,sp,256
   1447e:	72b0006f          	j	153a8 <__nrv_alloc_D2A>
   14482:	85fa                	mv	a1,t5
   14484:	8552                	mv	a0,s4
   14486:	fc3a                	sd	a4,56(sp)
   14488:	f872                	sd	t3,48(sp)
   1448a:	f442                	sd	a6,40(sp)
   1448c:	f03e                	sd	a5,32(sp)
   1448e:	ec46                	sd	a7,24(sp)
   14490:	09b010ef          	jal	15d2a <__lshift>
   14494:	68e2                	ld	a7,24(sp)
   14496:	7782                	ld	a5,32(sp)
   14498:	7822                	ld	a6,40(sp)
   1449a:	7e42                	ld	t3,48(sp)
   1449c:	7762                	ld	a4,56(sp)
   1449e:	8f2a                	mv	t5,a0
   144a0:	4e051063          	bnez	a0,14980 <__gdtoa+0x70e>
   144a4:	74ae                	ld	s1,232(sp)
   144a6:	6a4e                	ld	s4,208(sp)
   144a8:	6aae                	ld	s5,200(sp)
   144aa:	6b0e                	ld	s6,192(sp)
   144ac:	7c4a                	ld	s8,176(sp)
   144ae:	7caa                	ld	s9,168(sp)
   144b0:	7d0a                	ld	s10,160(sp)
   144b2:	6dea                	ld	s11,152(sp)
   144b4:	4701                	li	a4,0
   144b6:	70ee                	ld	ra,248(sp)
   144b8:	744e                	ld	s0,240(sp)
   144ba:	7bea                	ld	s7,184(sp)
   144bc:	69ee                	ld	s3,216(sp)
   144be:	853a                	mv	a0,a4
   144c0:	6111                	addi	sp,sp,256
   144c2:	8082                	ret
   144c4:	85a2                	mv	a1,s0
   144c6:	8552                	mv	a0,s4
   144c8:	224010ef          	jal	156ec <_Bfree>
   144cc:	6aae                	ld	s5,200(sp)
   144ce:	6b0e                	ld	s6,192(sp)
   144d0:	4685                	li	a3,1
   144d2:	65e5                	lui	a1,0x19
   144d4:	864e                	mv	a2,s3
   144d6:	8552                	mv	a0,s4
   144d8:	00dca023          	sw	a3,0(s9)
   144dc:	29058593          	addi	a1,a1,656 # 19290 <__clzdi2+0x96>
   144e0:	6c9000ef          	jal	153a8 <__nrv_alloc_D2A>
   144e4:	70ee                	ld	ra,248(sp)
   144e6:	744e                	ld	s0,240(sp)
   144e8:	872a                	mv	a4,a0
   144ea:	6a4e                	ld	s4,208(sp)
   144ec:	7c4a                	ld	s8,176(sp)
   144ee:	7caa                	ld	s9,168(sp)
   144f0:	7d0a                	ld	s10,160(sp)
   144f2:	6dea                	ld	s11,152(sp)
   144f4:	7bea                	ld	s7,184(sp)
   144f6:	69ee                	ld	s3,216(sp)
   144f8:	853a                	mv	a0,a4
   144fa:	6111                	addi	sp,sp,256
   144fc:	8082                	ret
   144fe:	8622                	mv	a2,s0
   14500:	744e                	ld	s0,240(sp)
   14502:	70ee                	ld	ra,248(sp)
   14504:	69ee                	ld	s3,216(sp)
   14506:	77e1                	lui	a5,0xffff8
   14508:	65e5                	lui	a1,0x19
   1450a:	00f8a023          	sw	a5,0(a7)
   1450e:	29858593          	addi	a1,a1,664 # 19298 <__clzdi2+0x9e>
   14512:	46a1                	li	a3,8
   14514:	6111                	addi	sp,sp,256
   14516:	6930006f          	j	153a8 <__nrv_alloc_D2A>
   1451a:	00042a23          	sw	zero,20(s0)
   1451e:	bd1d                	j	14354 <__gdtoa+0xe2>
   14520:	4705                	li	a4,1
   14522:	f0ba                	sd	a4,96(sp)
   14524:	e802                	sd	zero,16(sp)
   14526:	200e4c63          	bltz	t3,1473e <__gdtoa+0x4cc>
   1452a:	20085563          	bgez	a6,14734 <__gdtoa+0x4c2>
   1452e:	6742                	ld	a4,16(sp)
   14530:	e882                	sd	zero,80(sp)
   14532:	4107073b          	subw	a4,a4,a6
   14536:	e83a                	sd	a4,16(sp)
   14538:	4100073b          	negw	a4,a6
   1453c:	e4ba                	sd	a4,72(sp)
   1453e:	4725                	li	a4,9
   14540:	2d576763          	bltu	a4,s5,1480e <__gdtoa+0x59c>
   14544:	4715                	li	a4,5
   14546:	55575063          	bge	a4,s5,14a86 <__gdtoa+0x814>
   1454a:	ffca851b          	addiw	a0,s5,-4
   1454e:	4591                	li	a1,4
   14550:	8aaa                	mv	s5,a0
   14552:	2eb50c63          	beq	a0,a1,1484a <__gdtoa+0x5d8>
   14556:	6ee50163          	beq	a0,a4,14c38 <__gdtoa+0x9c6>
   1455a:	4709                	li	a4,2
   1455c:	f482                	sd	zero,104(sp)
   1455e:	4481                	li	s1,0
   14560:	2ee50863          	beq	a0,a4,14850 <__gdtoa+0x5de>
   14564:	4a8d                	li	s5,3
   14566:	010b073b          	addw	a4,s6,a6
   1456a:	f8ba                	sd	a4,112(sp)
   1456c:	0017089b          	addiw	a7,a4,1
   14570:	6d105163          	blez	a7,14c32 <__gdtoa+0x9c0>
   14574:	8746                	mv	a4,a7
   14576:	85c6                	mv	a1,a7
   14578:	8552                	mv	a0,s4
   1457a:	c73a                	sw	a4,140(sp)
   1457c:	e0fa                	sd	t5,64(sp)
   1457e:	fc76                	sd	t4,56(sp)
   14580:	f83e                	sd	a5,48(sp)
   14582:	f436                	sd	a3,40(sp)
   14584:	f042                	sd	a6,32(sp)
   14586:	ec32                	sd	a2,24(sp)
   14588:	e446                	sd	a7,8(sp)
   1458a:	ec9a                	sd	t1,88(sp)
   1458c:	5d9000ef          	jal	15364 <__rv_alloc_D2A>
   14590:	872a                	mv	a4,a0
   14592:	f00509e3          	beqz	a0,144a4 <__gdtoa+0x232>
   14596:	00cdae03          	lw	t3,12(s11)
   1459a:	68a2                	ld	a7,8(sp)
   1459c:	6662                	ld	a2,24(sp)
   1459e:	3e7d                	addiw	t3,t3,-1
   145a0:	7802                	ld	a6,32(sp)
   145a2:	76a2                	ld	a3,40(sp)
   145a4:	77c2                	ld	a5,48(sp)
   145a6:	7ee2                	ld	t4,56(sp)
   145a8:	6f06                	ld	t5,64(sp)
   145aa:	000e0d63          	beqz	t3,145c4 <__gdtoa+0x352>
   145ae:	6366                	ld	t1,88(sp)
   145b0:	000e5363          	bgez	t3,145b6 <__gdtoa+0x344>
   145b4:	4e09                	li	t3,2
   145b6:	10037313          	andi	t1,t1,256
   145ba:	1e030463          	beqz	t1,147a2 <__gdtoa+0x530>
   145be:	458d                	li	a1,3
   145c0:	41c58e3b          	subw	t3,a1,t3
   145c4:	00f8b593          	sltiu	a1,a7,15
   145c8:	1c058d63          	beqz	a1,147a2 <__gdtoa+0x530>
   145cc:	1c048b63          	beqz	s1,147a2 <__gdtoa+0x530>
   145d0:	010e65b3          	or	a1,t3,a6
   145d4:	1c059763          	bnez	a1,147a2 <__gdtoa+0x530>
   145d8:	7586                	ld	a1,96(sp)
   145da:	c702                	sw	zero,140(sp)
   145dc:	f20f06d3          	fmv.d.x	fa3,t5
   145e0:	c599                	beqz	a1,145ee <__gdtoa+0x37c>
   145e2:	1d81b787          	fld	fa5,472(gp) # 1b5e8 <__SDATA_BEGIN__+0x30>
   145e6:	a2f695d3          	flt.d	a1,fa3,fa5
   145ea:	16059463          	bnez	a1,14752 <__gdtoa+0x4e0>
   145ee:	1e01b787          	fld	fa5,480(gp) # 1b5f0 <__SDATA_BEGIN__+0x38>
   145f2:	fcc00537          	lui	a0,0xfcc00
   145f6:	a43e                	fsd	fa5,8(sp)
   145f8:	2722                	fld	fa4,8(sp)
   145fa:	1e81b787          	fld	fa5,488(gp) # 1b5f8 <__SDATA_BEGIN__+0x40>
   145fe:	7ae6f7c3          	fmadd.d	fa5,fa3,fa4,fa5
   14602:	e20785d3          	fmv.x.d	a1,fa5
   14606:	02059e13          	slli	t3,a1,0x20
   1460a:	9181                	srli	a1,a1,0x20
   1460c:	9da9                	addw	a1,a1,a0
   1460e:	020e5e13          	srli	t3,t3,0x20
   14612:	1582                	slli	a1,a1,0x20
   14614:	00be6e33          	or	t3,t3,a1
   14618:	16088463          	beqz	a7,14780 <__gdtoa+0x50e>
   1461c:	22d687d3          	fmv.d	fa5,fa3
   14620:	4581                	li	a1,0
   14622:	8fc6                	mv	t6,a7
   14624:	6565                	lui	a0,0x19
   14626:	ffff831b          	addiw	t1,t6,-1
   1462a:	74a6                	ld	s1,104(sp)
   1462c:	61850513          	addi	a0,a0,1560 # 19618 <__mprec_tens>
   14630:	030e                	slli	t1,t1,0x3
   14632:	932a                	add	t1,t1,a0
   14634:	00033607          	fld	fa2,0(t1)
   14638:	120486e3          	beqz	s1,14f64 <__gdtoa+0xcf2>
   1463c:	2081b707          	fld	fa4,520(gp) # 1b618 <__SDATA_BEGIN__+0x60>
   14640:	c20792d3          	fcvt.w.d	t0,fa5,rtz
   14644:	00170313          	addi	t1,a4,1
   14648:	1ac77753          	fdiv.d	fa4,fa4,fa2
   1464c:	d20286d3          	fcvt.d.w	fa3,t0
   14650:	0302829b          	addiw	t0,t0,48 # 10978 <__call_exitprocs+0x16>
   14654:	00570023          	sb	t0,0(a4)
   14658:	0ad7f7d3          	fsub.d	fa5,fa5,fa3
   1465c:	f20e06d3          	fmv.d.x	fa3,t3
   14660:	0ad77753          	fsub.d	fa4,fa4,fa3
   14664:	a2e79e53          	flt.d	t3,fa5,fa4
   14668:	2c0e16e3          	bnez	t3,15134 <__gdtoa+0xec2>
   1466c:	1d81b587          	fld	fa1,472(gp) # 1b5e8 <__SDATA_BEGIN__+0x30>
   14670:	1f01b607          	fld	fa2,496(gp) # 1b600 <__SDATA_BEGIN__+0x48>
   14674:	a80d                	j	146a6 <__gdtoa+0x434>
   14676:	4e3a                	lw	t3,140(sp)
   14678:	0305                	addi	t1,t1,1
   1467a:	2e05                	addiw	t3,t3,1
   1467c:	c772                	sw	t3,140(sp)
   1467e:	39fe59e3          	bge	t3,t6,15210 <__gdtoa+0xf9e>
   14682:	12c7f7d3          	fmul.d	fa5,fa5,fa2
   14686:	12c77753          	fmul.d	fa4,fa4,fa2
   1468a:	c2079e53          	fcvt.w.d	t3,fa5,rtz
   1468e:	d20e06d3          	fcvt.d.w	fa3,t3
   14692:	030e0e1b          	addiw	t3,t3,48
   14696:	ffc30fa3          	sb	t3,-1(t1)
   1469a:	0ad7f7d3          	fsub.d	fa5,fa5,fa3
   1469e:	a2e79e53          	flt.d	t3,fa5,fa4
   146a2:	280e19e3          	bnez	t3,15134 <__gdtoa+0xec2>
   146a6:	0af5f6d3          	fsub.d	fa3,fa1,fa5
   146aa:	a2e69e53          	flt.d	t3,fa3,fa4
   146ae:	fc0e04e3          	beqz	t3,14676 <__gdtoa+0x404>
   146b2:	fff34683          	lbu	a3,-1(t1)
   146b6:	03900613          	li	a2,57
   146ba:	a031                	j	146c6 <__gdtoa+0x454>
   146bc:	18f70ae3          	beq	a4,a5,15050 <__gdtoa+0xdde>
   146c0:	fff7c683          	lbu	a3,-1(a5) # ffffffffffff7fff <__BSS_END__+0xfffffffffffdc3ef>
   146c4:	833e                	mv	t1,a5
   146c6:	fff30793          	addi	a5,t1,-1
   146ca:	fec689e3          	beq	a3,a2,146bc <__gdtoa+0x44a>
   146ce:	0685                	addi	a3,a3,1
   146d0:	00d78023          	sb	a3,0(a5)
   146d4:	0015861b          	addiw	a2,a1,1
   146d8:	02000b93          	li	s7,32
   146dc:	85a2                	mv	a1,s0
   146de:	8552                	mv	a0,s4
   146e0:	ec3a                	sd	a4,24(sp)
   146e2:	e832                	sd	a2,16(sp)
   146e4:	e41a                	sd	t1,8(sp)
   146e6:	006010ef          	jal	156ec <_Bfree>
   146ea:	6322                	ld	t1,8(sp)
   146ec:	6642                	ld	a2,16(sp)
   146ee:	6762                	ld	a4,24(sp)
   146f0:	00030023          	sb	zero,0(t1)
   146f4:	00cca023          	sw	a2,0(s9)
   146f8:	00098463          	beqz	s3,14700 <__gdtoa+0x48e>
   146fc:	0069b023          	sd	t1,0(s3)
   14700:	6682                	ld	a3,0(sp)
   14702:	74ae                	ld	s1,232(sp)
   14704:	6a4e                	ld	s4,208(sp)
   14706:	429c                	lw	a5,0(a3)
   14708:	6aae                	ld	s5,200(sp)
   1470a:	6b0e                	ld	s6,192(sp)
   1470c:	00fbe7b3          	or	a5,s7,a5
   14710:	7c4a                	ld	s8,176(sp)
   14712:	7caa                	ld	s9,168(sp)
   14714:	7d0a                	ld	s10,160(sp)
   14716:	6dea                	ld	s11,152(sp)
   14718:	c29c                	sw	a5,0(a3)
   1471a:	bb71                	j	144b6 <__gdtoa+0x244>
   1471c:	85aa                	mv	a1,a0
   1471e:	8522                	mv	a0,s0
   14720:	685000ef          	jal	155a4 <__rshift_D2A>
   14724:	463a                	lw	a2,140(sp)
   14726:	67e2                	ld	a5,24(sp)
   14728:	66c2                	ld	a3,16(sp)
   1472a:	6322                	ld	t1,8(sp)
   1472c:	9f91                	subw	a5,a5,a2
   1472e:	01a6063b          	addw	a2,a2,s10
   14732:	b935                	j	1436e <__gdtoa+0xfc>
   14734:	01d80ebb          	addw	t4,a6,t4
   14738:	e8c2                	sd	a6,80(sp)
   1473a:	e482                	sd	zero,72(sp)
   1473c:	b509                	j	1453e <__gdtoa+0x2cc>
   1473e:	4705                	li	a4,1
   14740:	9f0d                	subw	a4,a4,a1
   14742:	e83a                	sd	a4,16(sp)
   14744:	4e81                	li	t4,0
   14746:	de0844e3          	bltz	a6,1452e <__gdtoa+0x2bc>
   1474a:	b7ed                	j	14734 <__gdtoa+0x4c2>
   1474c:	387d                	addiw	a6,a6,-1
   1474e:	f082                	sd	zero,96(sp)
   14750:	bbd1                	j	14524 <__gdtoa+0x2b2>
   14752:	180896e3          	bnez	a7,150de <__gdtoa+0xe6c>
   14756:	1e01b787          	fld	fa5,480(gp) # 1b5f0 <__SDATA_BEGIN__+0x38>
   1475a:	fcc00537          	lui	a0,0xfcc00
   1475e:	a43e                	fsd	fa5,8(sp)
   14760:	2722                	fld	fa4,8(sp)
   14762:	1e81b787          	fld	fa5,488(gp) # 1b5f8 <__SDATA_BEGIN__+0x40>
   14766:	7ad777c3          	fmadd.d	fa5,fa4,fa3,fa5
   1476a:	e20785d3          	fmv.x.d	a1,fa5
   1476e:	02059e13          	slli	t3,a1,0x20
   14772:	9181                	srli	a1,a1,0x20
   14774:	9da9                	addw	a1,a1,a0
   14776:	020e5e13          	srli	t3,t3,0x20
   1477a:	1582                	slli	a1,a1,0x20
   1477c:	00be6e33          	or	t3,t3,a1
   14780:	2001b787          	fld	fa5,512(gp) # 1b610 <__SDATA_BEGIN__+0x58>
   14784:	0af6f6d3          	fsub.d	fa3,fa3,fa5
   14788:	f20e07d3          	fmv.d.x	fa5,t3
   1478c:	a2d795d3          	flt.d	a1,fa5,fa3
   14790:	08059de3          	bnez	a1,1502a <__gdtoa+0xdb8>
   14794:	22f797d3          	fneg.d	fa5,fa5
   14798:	a2f695d3          	flt.d	a1,fa3,fa5
   1479c:	48059063          	bnez	a1,14c1c <__gdtoa+0x9aa>
   147a0:	4e01                	li	t3,0
   147a2:	fff64593          	not	a1,a2
   147a6:	01f5d59b          	srliw	a1,a1,0x1f
   147aa:	cdcd                	beqz	a1,14864 <__gdtoa+0x5f2>
   147ac:	00f82593          	slti	a1,a6,15
   147b0:	c9d5                	beqz	a1,14864 <__gdtoa+0x5f2>
   147b2:	6565                	lui	a0,0x19
   147b4:	61850513          	addi	a0,a0,1560 # 19618 <__mprec_tens>
   147b8:	00381693          	slli	a3,a6,0x3
   147bc:	96aa                	add	a3,a3,a0
   147be:	01fb579b          	srliw	a5,s6,0x1f
   147c2:	2298                	fld	fa4,0(a3)
   147c4:	30078863          	beqz	a5,14ad4 <__gdtoa+0x862>
   147c8:	31104663          	bgtz	a7,14ad4 <__gdtoa+0x862>
   147cc:	44089863          	bnez	a7,14c1c <__gdtoa+0x9aa>
   147d0:	2001b787          	fld	fa5,512(gp) # 1b610 <__SDATA_BEGIN__+0x58>
   147d4:	12f77753          	fmul.d	fa4,fa4,fa5
   147d8:	f20f07d3          	fmv.d.x	fa5,t5
   147dc:	a2e787d3          	fle.d	a5,fa5,fa4
   147e0:	42079e63          	bnez	a5,14c1c <__gdtoa+0x9aa>
   147e4:	03100793          	li	a5,49
   147e8:	00170313          	addi	t1,a4,1
   147ec:	00f70023          	sb	a5,0(a4)
   147f0:	4581                	li	a1,0
   147f2:	8552                	mv	a0,s4
   147f4:	ec42                	sd	a6,24(sp)
   147f6:	e83a                	sd	a4,16(sp)
   147f8:	e41a                	sd	t1,8(sp)
   147fa:	6f3000ef          	jal	156ec <_Bfree>
   147fe:	6862                	ld	a6,24(sp)
   14800:	6322                	ld	t1,8(sp)
   14802:	6742                	ld	a4,16(sp)
   14804:	0028061b          	addiw	a2,a6,2
   14808:	02000b93          	li	s7,32
   1480c:	bdc1                	j	146dc <__gdtoa+0x46a>
   1480e:	3fd8889b          	addiw	a7,a7,1021
   14812:	7f88b493          	sltiu	s1,a7,2040
   14816:	4a81                	li	s5,0
   14818:	1d01b707          	fld	fa4,464(gp) # 1b5e0 <__SDATA_BEGIN__+0x28>
   1481c:	d20687d3          	fcvt.d.w	fa5,a3
   14820:	577d                	li	a4,-1
   14822:	f8ba                	sd	a4,112(sp)
   14824:	12e7f7d3          	fmul.d	fa5,fa5,fa4
   14828:	88ba                	mv	a7,a4
   1482a:	4705                	li	a4,1
   1482c:	f4ba                	sd	a4,104(sp)
   1482e:	4b01                	li	s6,0
   14830:	c20795d3          	fcvt.w.d	a1,fa5,rtz
   14834:	258d                	addiw	a1,a1,3
   14836:	872e                	mv	a4,a1
   14838:	b381                	j	14578 <__gdtoa+0x306>
   1483a:	d2080753          	fcvt.d.w	fa4,a6
   1483e:	a2f72753          	feq.d	a4,fa4,fa5
   14842:	bc0717e3          	bnez	a4,14410 <__gdtoa+0x19e>
   14846:	387d                	addiw	a6,a6,-1
   14848:	b6e1                	j	14410 <__gdtoa+0x19e>
   1484a:	4705                	li	a4,1
   1484c:	4481                	li	s1,0
   1484e:	f4ba                	sd	a4,104(sp)
   14850:	000b059b          	sext.w	a1,s6
   14854:	01604363          	bgtz	s6,1485a <__gdtoa+0x5e8>
   14858:	4585                	li	a1,1
   1485a:	872e                	mv	a4,a1
   1485c:	f8ae                	sd	a1,112(sp)
   1485e:	88ae                	mv	a7,a1
   14860:	8b2e                	mv	s6,a1
   14862:	bb19                	j	14578 <__gdtoa+0x306>
   14864:	75a6                	ld	a1,104(sp)
   14866:	24058163          	beqz	a1,14aa8 <__gdtoa+0x836>
   1486a:	9e9d                	subw	a3,a3,a5
   1486c:	004da503          	lw	a0,4(s11)
   14870:	0016859b          	addiw	a1,a3,1
   14874:	c72e                	sw	a1,140(sp)
   14876:	40d606bb          	subw	a3,a2,a3
   1487a:	4ea6d063          	bge	a3,a0,14d5a <__gdtoa+0xae8>
   1487e:	ffda869b          	addiw	a3,s5,-3
   14882:	9af5                	andi	a3,a3,-3
   14884:	3e068c63          	beqz	a3,14c7c <__gdtoa+0xa0a>
   14888:	40a606bb          	subw	a3,a2,a0
   1488c:	4605                	li	a2,1
   1488e:	2685                	addiw	a3,a3,1
   14890:	01562633          	slt	a2,a2,s5
   14894:	011025b3          	sgtz	a1,a7
   14898:	c736                	sw	a3,140(sp)
   1489a:	8e6d                	and	a2,a2,a1
   1489c:	c219                	beqz	a2,148a2 <__gdtoa+0x630>
   1489e:	20d8cfe3          	blt	a7,a3,152bc <__gdtoa+0x104a>
   148a2:	6642                	ld	a2,16(sp)
   148a4:	64a6                	ld	s1,72(sp)
   148a6:	01d68ebb          	addw	t4,a3,t4
   148aa:	9eb1                	addw	a3,a3,a2
   148ac:	ec36                	sd	a3,24(sp)
   148ae:	4585                	li	a1,1
   148b0:	8552                	mv	a0,s4
   148b2:	ecba                	sd	a4,88(sp)
   148b4:	e0f6                	sd	t4,64(sp)
   148b6:	fc3e                	sd	a5,56(sp)
   148b8:	f872                	sd	t3,48(sp)
   148ba:	f442                	sd	a6,40(sp)
   148bc:	f046                	sd	a7,32(sp)
   148be:	140010ef          	jal	159fe <__i2b>
   148c2:	e42a                	sd	a0,8(sp)
   148c4:	be0500e3          	beqz	a0,144a4 <__gdtoa+0x232>
   148c8:	66c2                	ld	a3,16(sp)
   148ca:	7882                	ld	a7,32(sp)
   148cc:	7822                	ld	a6,40(sp)
   148ce:	7e42                	ld	t3,48(sp)
   148d0:	77e2                	ld	a5,56(sp)
   148d2:	6e86                	ld	t4,64(sp)
   148d4:	6766                	ld	a4,88(sp)
   148d6:	c28d                	beqz	a3,148f8 <__gdtoa+0x686>
   148d8:	03d05063          	blez	t4,148f8 <__gdtoa+0x686>
   148dc:	6642                	ld	a2,16(sp)
   148de:	86b2                	mv	a3,a2
   148e0:	00ced363          	bge	t4,a2,148e6 <__gdtoa+0x674>
   148e4:	86f6                	mv	a3,t4
   148e6:	6662                	ld	a2,24(sp)
   148e8:	c736                	sw	a3,140(sp)
   148ea:	40de8ebb          	subw	t4,t4,a3
   148ee:	9e15                	subw	a2,a2,a3
   148f0:	ec32                	sd	a2,24(sp)
   148f2:	6642                	ld	a2,16(sp)
   148f4:	9e15                	subw	a2,a2,a3
   148f6:	e832                	sd	a2,16(sp)
   148f8:	66a6                	ld	a3,72(sp)
   148fa:	c69d                	beqz	a3,14928 <__gdtoa+0x6b6>
   148fc:	60049a63          	bnez	s1,14f10 <__gdtoa+0xc9e>
   14900:	6626                	ld	a2,72(sp)
   14902:	85a2                	mv	a1,s0
   14904:	8552                	mv	a0,s4
   14906:	ecba                	sd	a4,88(sp)
   14908:	e0f6                	sd	t4,64(sp)
   1490a:	fc3e                	sd	a5,56(sp)
   1490c:	f872                	sd	t3,48(sp)
   1490e:	f442                	sd	a6,40(sp)
   14910:	f046                	sd	a7,32(sp)
   14912:	330010ef          	jal	15c42 <__pow5mult>
   14916:	7882                	ld	a7,32(sp)
   14918:	7822                	ld	a6,40(sp)
   1491a:	7e42                	ld	t3,48(sp)
   1491c:	77e2                	ld	a5,56(sp)
   1491e:	6e86                	ld	t4,64(sp)
   14920:	6766                	ld	a4,88(sp)
   14922:	842a                	mv	s0,a0
   14924:	b80500e3          	beqz	a0,144a4 <__gdtoa+0x232>
   14928:	4585                	li	a1,1
   1492a:	8552                	mv	a0,s4
   1492c:	e4ba                	sd	a4,72(sp)
   1492e:	e0f6                	sd	t4,64(sp)
   14930:	fc3e                	sd	a5,56(sp)
   14932:	f872                	sd	t3,48(sp)
   14934:	f442                	sd	a6,40(sp)
   14936:	f046                	sd	a7,32(sp)
   14938:	0c6010ef          	jal	159fe <__i2b>
   1493c:	8f2a                	mv	t5,a0
   1493e:	b60503e3          	beqz	a0,144a4 <__gdtoa+0x232>
   14942:	66c6                	ld	a3,80(sp)
   14944:	7882                	ld	a7,32(sp)
   14946:	7822                	ld	a6,40(sp)
   14948:	7e42                	ld	t3,48(sp)
   1494a:	77e2                	ld	a5,56(sp)
   1494c:	6e86                	ld	t4,64(sp)
   1494e:	6726                	ld	a4,72(sp)
   14950:	34069763          	bnez	a3,14c9e <__gdtoa+0xa2c>
   14954:	002aa693          	slti	a3,s5,2
   14958:	c681                	beqz	a3,14960 <__gdtoa+0x6ee>
   1495a:	17fd                	addi	a5,a5,-1
   1495c:	10078963          	beqz	a5,14a6e <__gdtoa+0x7fc>
   14960:	457d                	li	a0,31
   14962:	66e2                	ld	a3,24(sp)
   14964:	41d507bb          	subw	a5,a0,t4
   14968:	37f1                	addiw	a5,a5,-4
   1496a:	8bfd                	andi	a5,a5,31
   1496c:	00d7863b          	addw	a2,a5,a3
   14970:	c73e                	sw	a5,140(sp)
   14972:	86be                	mv	a3,a5
   14974:	2cc04763          	bgtz	a2,14c42 <__gdtoa+0x9d0>
   14978:	00de863b          	addw	a2,t4,a3
   1497c:	b0c043e3          	bgtz	a2,14482 <__gdtoa+0x210>
   14980:	7686                	ld	a3,96(sp)
   14982:	e6d1                	bnez	a3,14a0e <__gdtoa+0x79c>
   14984:	1d104863          	bgtz	a7,14b54 <__gdtoa+0x8e2>
   14988:	4689                	li	a3,2
   1498a:	1d56d563          	bge	a3,s5,14b54 <__gdtoa+0x8e2>
   1498e:	85fa                	mv	a1,t5
   14990:	4681                	li	a3,0
   14992:	4615                	li	a2,5
   14994:	8552                	mv	a0,s4
   14996:	f03a                	sd	a4,32(sp)
   14998:	ec42                	sd	a6,24(sp)
   1499a:	e846                	sd	a7,16(sp)
   1499c:	563000ef          	jal	156fe <__multadd>
   149a0:	85aa                	mv	a1,a0
   149a2:	b00501e3          	beqz	a0,144a4 <__gdtoa+0x232>
   149a6:	68c2                	ld	a7,16(sp)
   149a8:	6862                	ld	a6,24(sp)
   149aa:	7702                	ld	a4,32(sp)
   149ac:	52089863          	bnez	a7,14edc <__gdtoa+0xc6a>
   149b0:	e82a                	sd	a0,16(sp)
   149b2:	8522                	mv	a0,s0
   149b4:	f03a                	sd	a4,32(sp)
   149b6:	ec42                	sd	a6,24(sp)
   149b8:	484010ef          	jal	15e3c <__mcmp>
   149bc:	65c2                	ld	a1,16(sp)
   149be:	6862                	ld	a6,24(sp)
   149c0:	7702                	ld	a4,32(sp)
   149c2:	50a05d63          	blez	a0,14edc <__gdtoa+0xc6a>
   149c6:	03100793          	li	a5,49
   149ca:	00f70023          	sb	a5,0(a4)
   149ce:	2805                	addiw	a6,a6,1
   149d0:	00170313          	addi	t1,a4,1
   149d4:	02000b93          	li	s7,32
   149d8:	8552                	mv	a0,s4
   149da:	f03a                	sd	a4,32(sp)
   149dc:	ec1a                	sd	t1,24(sp)
   149de:	e842                	sd	a6,16(sp)
   149e0:	50d000ef          	jal	156ec <_Bfree>
   149e4:	6842                	ld	a6,16(sp)
   149e6:	67a2                	ld	a5,8(sp)
   149e8:	6362                	ld	t1,24(sp)
   149ea:	7702                	ld	a4,32(sp)
   149ec:	0018061b          	addiw	a2,a6,1
   149f0:	ce0786e3          	beqz	a5,146dc <__gdtoa+0x46a>
   149f4:	65a2                	ld	a1,8(sp)
   149f6:	8552                	mv	a0,s4
   149f8:	f03a                	sd	a4,32(sp)
   149fa:	ec1a                	sd	t1,24(sp)
   149fc:	e842                	sd	a6,16(sp)
   149fe:	4ef000ef          	jal	156ec <_Bfree>
   14a02:	6842                	ld	a6,16(sp)
   14a04:	6362                	ld	t1,24(sp)
   14a06:	7702                	ld	a4,32(sp)
   14a08:	0018061b          	addiw	a2,a6,1
   14a0c:	b9c1                	j	146dc <__gdtoa+0x46a>
   14a0e:	85fa                	mv	a1,t5
   14a10:	8522                	mv	a0,s0
   14a12:	e0ba                	sd	a4,64(sp)
   14a14:	fc72                	sd	t3,56(sp)
   14a16:	f842                	sd	a6,48(sp)
   14a18:	f43e                	sd	a5,40(sp)
   14a1a:	f046                	sd	a7,32(sp)
   14a1c:	ec7a                	sd	t5,24(sp)
   14a1e:	41e010ef          	jal	15e3c <__mcmp>
   14a22:	6f62                	ld	t5,24(sp)
   14a24:	7882                	ld	a7,32(sp)
   14a26:	77a2                	ld	a5,40(sp)
   14a28:	7842                	ld	a6,48(sp)
   14a2a:	7e62                	ld	t3,56(sp)
   14a2c:	6706                	ld	a4,64(sp)
   14a2e:	f4055be3          	bgez	a0,14984 <__gdtoa+0x712>
   14a32:	85a2                	mv	a1,s0
   14a34:	4681                	li	a3,0
   14a36:	4629                	li	a2,10
   14a38:	8552                	mv	a0,s4
   14a3a:	fc3a                	sd	a4,56(sp)
   14a3c:	f87a                	sd	t5,48(sp)
   14a3e:	f472                	sd	t3,40(sp)
   14a40:	f042                	sd	a6,32(sp)
   14a42:	ec3e                	sd	a5,24(sp)
   14a44:	4bb000ef          	jal	156fe <__multadd>
   14a48:	842a                	mv	s0,a0
   14a4a:	a4050de3          	beqz	a0,144a4 <__gdtoa+0x232>
   14a4e:	7802                	ld	a6,32(sp)
   14a50:	76a6                	ld	a3,104(sp)
   14a52:	7e22                	ld	t3,40(sp)
   14a54:	7f42                	ld	t5,48(sp)
   14a56:	7762                	ld	a4,56(sp)
   14a58:	387d                	addiw	a6,a6,-1
   14a5a:	30069a63          	bnez	a3,14d6e <__gdtoa+0xafc>
   14a5e:	77c6                	ld	a5,112(sp)
   14a60:	00f041e3          	bgtz	a5,15262 <__gdtoa+0xff0>
   14a64:	4789                	li	a5,2
   14a66:	7f57de63          	bge	a5,s5,15262 <__gdtoa+0xff0>
   14a6a:	78c6                	ld	a7,112(sp)
   14a6c:	b70d                	j	1498e <__gdtoa+0x71c>
   14a6e:	004da783          	lw	a5,4(s11)
   14a72:	2785                	addiw	a5,a5,1
   14a74:	efa7d6e3          	bge	a5,s10,14960 <__gdtoa+0x6ee>
   14a78:	67e2                	ld	a5,24(sp)
   14a7a:	2e85                	addiw	t4,t4,1
   14a7c:	2785                	addiw	a5,a5,1
   14a7e:	ec3e                	sd	a5,24(sp)
   14a80:	4785                	li	a5,1
   14a82:	e8be                	sd	a5,80(sp)
   14a84:	bdf1                	j	14960 <__gdtoa+0x6ee>
   14a86:	3fd8889b          	addiw	a7,a7,1021
   14a8a:	4591                	li	a1,4
   14a8c:	7f88b493          	sltiu	s1,a7,2040
   14a90:	44ba8b63          	beq	s5,a1,14ee6 <__gdtoa+0xc74>
   14a94:	1aea8363          	beq	s5,a4,14c3a <__gdtoa+0x9c8>
   14a98:	4709                	li	a4,2
   14a9a:	44ea8963          	beq	s5,a4,14eec <__gdtoa+0xc7a>
   14a9e:	470d                	li	a4,3
   14aa0:	f482                	sd	zero,104(sp)
   14aa2:	acea82e3          	beq	s5,a4,14566 <__gdtoa+0x2f4>
   14aa6:	bb8d                	j	14818 <__gdtoa+0x5a6>
   14aa8:	66c2                	ld	a3,16(sp)
   14aaa:	26068b63          	beqz	a3,14d20 <__gdtoa+0xaae>
   14aae:	260e8963          	beqz	t4,14d20 <__gdtoa+0xaae>
   14ab2:	6642                	ld	a2,16(sp)
   14ab4:	86b2                	mv	a3,a2
   14ab6:	00ced363          	bge	t4,a2,14abc <__gdtoa+0x84a>
   14aba:	86f6                	mv	a3,t4
   14abc:	6642                	ld	a2,16(sp)
   14abe:	c736                	sw	a3,140(sp)
   14ac0:	40de8ebb          	subw	t4,t4,a3
   14ac4:	9e15                	subw	a2,a2,a3
   14ac6:	66a6                	ld	a3,72(sp)
   14ac8:	ec32                	sd	a2,24(sp)
   14aca:	26069063          	bnez	a3,14d2a <__gdtoa+0xab8>
   14ace:	e832                	sd	a2,16(sp)
   14ad0:	e402                	sd	zero,8(sp)
   14ad2:	bd99                	j	14928 <__gdtoa+0x6b6>
   14ad4:	f20f06d3          	fmv.d.x	fa3,t5
   14ad8:	1ae6f7d3          	fdiv.d	fa5,fa3,fa4
   14adc:	4785                	li	a5,1
   14ade:	c73e                	sw	a5,140(sp)
   14ae0:	00f70333          	add	t1,a4,a5
   14ae4:	f2000653          	fmv.d.x	fa2,zero
   14ae8:	0018061b          	addiw	a2,a6,1
   14aec:	c20797d3          	fcvt.w.d	a5,fa5,rtz
   14af0:	d20787d3          	fcvt.d.w	fa5,a5
   14af4:	0307869b          	addiw	a3,a5,48
   14af8:	00d70023          	sb	a3,0(a4)
   14afc:	6ae7f7cb          	fnmsub.d	fa5,fa5,fa4,fa3
   14b00:	a2c7a6d3          	feq.d	a3,fa5,fa2
   14b04:	bc069ce3          	bnez	a3,146dc <__gdtoa+0x46a>
   14b08:	1f01b587          	fld	fa1,496(gp) # 1b600 <__SDATA_BEGIN__+0x48>
   14b0c:	a02d                	j	14b36 <__gdtoa+0x8c4>
   14b0e:	12b7f7d3          	fmul.d	fa5,fa5,fa1
   14b12:	c72e                	sw	a1,140(sp)
   14b14:	0305                	addi	t1,t1,1
   14b16:	1ae7f6d3          	fdiv.d	fa3,fa5,fa4
   14b1a:	c20697d3          	fcvt.w.d	a5,fa3,rtz
   14b1e:	d20786d3          	fcvt.d.w	fa3,a5
   14b22:	0307869b          	addiw	a3,a5,48
   14b26:	fed30fa3          	sb	a3,-1(t1)
   14b2a:	7ae6f7cb          	fnmsub.d	fa5,fa3,fa4,fa5
   14b2e:	a2c7a6d3          	feq.d	a3,fa5,fa2
   14b32:	ba0695e3          	bnez	a3,146dc <__gdtoa+0x46a>
   14b36:	46ba                	lw	a3,140(sp)
   14b38:	0016859b          	addiw	a1,a3,1
   14b3c:	fd1699e3          	bne	a3,a7,14b0e <__gdtoa+0x89c>
   14b40:	500e0d63          	beqz	t3,1505a <__gdtoa+0xde8>
   14b44:	4785                	li	a5,1
   14b46:	4bc1                	li	s7,16
   14b48:	b8fe1ae3          	bne	t3,a5,146dc <__gdtoa+0x46a>
   14b4c:	fff34683          	lbu	a3,-1(t1)
   14b50:	85c2                	mv	a1,a6
   14b52:	b695                	j	146b6 <__gdtoa+0x444>
   14b54:	76a6                	ld	a3,104(sp)
   14b56:	24069263          	bnez	a3,14d9a <__gdtoa+0xb28>
   14b5a:	f1ca                	sd	s2,224(sp)
   14b5c:	4685                	li	a3,1
   14b5e:	8ac6                	mv	s5,a7
   14b60:	8b42                	mv	s6,a6
   14b62:	8bf2                	mv	s7,t3
   14b64:	84ba                	mv	s1,a4
   14b66:	897a                	mv	s2,t5
   14b68:	8c3a                	mv	s8,a4
   14b6a:	a811                	j	14b7e <__gdtoa+0x90c>
   14b6c:	85a2                	mv	a1,s0
   14b6e:	8552                	mv	a0,s4
   14b70:	38f000ef          	jal	156fe <__multadd>
   14b74:	842a                	mv	s0,a0
   14b76:	0e050f63          	beqz	a0,14c74 <__gdtoa+0xa02>
   14b7a:	46ba                	lw	a3,140(sp)
   14b7c:	2685                	addiw	a3,a3,1
   14b7e:	85ca                	mv	a1,s2
   14b80:	8522                	mv	a0,s0
   14b82:	c736                	sw	a3,140(sp)
   14b84:	0a5000ef          	jal	15428 <__quorem_D2A>
   14b88:	00148793          	addi	a5,s1,1
   14b8c:	03050e9b          	addiw	t4,a0,48
   14b90:	ffd78fa3          	sb	t4,-1(a5)
   14b94:	84be                	mv	s1,a5
   14b96:	47ba                	lw	a5,140(sp)
   14b98:	4681                	li	a3,0
   14b9a:	4629                	li	a2,10
   14b9c:	fd57c8e3          	blt	a5,s5,14b6c <__gdtoa+0x8fa>
   14ba0:	885a                	mv	a6,s6
   14ba2:	8e5e                	mv	t3,s7
   14ba4:	87a6                	mv	a5,s1
   14ba6:	8f4a                	mv	t5,s2
   14ba8:	8762                	mv	a4,s8
   14baa:	4881                	li	a7,0
   14bac:	5a0e0063          	beqz	t3,1514c <__gdtoa+0xeda>
   14bb0:	4689                	li	a3,2
   14bb2:	5cde0b63          	beq	t3,a3,15188 <__gdtoa+0xf16>
   14bb6:	4850                	lw	a2,20(s0)
   14bb8:	4685                	li	a3,1
   14bba:	42c6c163          	blt	a3,a2,14fdc <__gdtoa+0xd6a>
   14bbe:	4c14                	lw	a3,24(s0)
   14bc0:	40069e63          	bnez	a3,14fdc <__gdtoa+0xd6a>
   14bc4:	00d036b3          	snez	a3,a3
   14bc8:	00469b9b          	slliw	s7,a3,0x4
   14bcc:	03000613          	li	a2,48
   14bd0:	833e                	mv	t1,a5
   14bd2:	fff7c683          	lbu	a3,-1(a5)
   14bd6:	17fd                	addi	a5,a5,-1
   14bd8:	fec68ce3          	beq	a3,a2,14bd0 <__gdtoa+0x95e>
   14bdc:	85fa                	mv	a1,t5
   14bde:	8552                	mv	a0,s4
   14be0:	f43a                	sd	a4,40(sp)
   14be2:	f01a                	sd	t1,32(sp)
   14be4:	ec46                	sd	a7,24(sp)
   14be6:	e842                	sd	a6,16(sp)
   14be8:	305000ef          	jal	156ec <_Bfree>
   14bec:	67a2                	ld	a5,8(sp)
   14bee:	6842                	ld	a6,16(sp)
   14bf0:	68e2                	ld	a7,24(sp)
   14bf2:	7302                	ld	t1,32(sp)
   14bf4:	7722                	ld	a4,40(sp)
   14bf6:	72078a63          	beqz	a5,1532a <__gdtoa+0x10b8>
   14bfa:	06088b63          	beqz	a7,14c70 <__gdtoa+0x9fe>
   14bfe:	67a2                	ld	a5,8(sp)
   14c00:	06f88863          	beq	a7,a5,14c70 <__gdtoa+0x9fe>
   14c04:	85c6                	mv	a1,a7
   14c06:	8552                	mv	a0,s4
   14c08:	f03a                	sd	a4,32(sp)
   14c0a:	ec1a                	sd	t1,24(sp)
   14c0c:	e842                	sd	a6,16(sp)
   14c0e:	2df000ef          	jal	156ec <_Bfree>
   14c12:	7702                	ld	a4,32(sp)
   14c14:	6362                	ld	t1,24(sp)
   14c16:	6842                	ld	a6,16(sp)
   14c18:	790e                	ld	s2,224(sp)
   14c1a:	bbe9                	j	149f4 <__gdtoa+0x782>
   14c1c:	4581                	li	a1,0
   14c1e:	8552                	mv	a0,s4
   14c20:	e43a                	sd	a4,8(sp)
   14c22:	2cb000ef          	jal	156ec <_Bfree>
   14c26:	6722                	ld	a4,8(sp)
   14c28:	4160063b          	negw	a2,s6
   14c2c:	4bc1                	li	s7,16
   14c2e:	833a                	mv	t1,a4
   14c30:	b475                	j	146dc <__gdtoa+0x46a>
   14c32:	4705                	li	a4,1
   14c34:	85ba                	mv	a1,a4
   14c36:	b289                	j	14578 <__gdtoa+0x306>
   14c38:	4481                	li	s1,0
   14c3a:	4705                	li	a4,1
   14c3c:	4a95                	li	s5,5
   14c3e:	f4ba                	sd	a4,104(sp)
   14c40:	b21d                	j	14566 <__gdtoa+0x2f4>
   14c42:	85a2                	mv	a1,s0
   14c44:	8552                	mv	a0,s4
   14c46:	e4ba                	sd	a4,72(sp)
   14c48:	e0f6                	sd	t4,64(sp)
   14c4a:	fc7a                	sd	t5,56(sp)
   14c4c:	f872                	sd	t3,48(sp)
   14c4e:	f442                	sd	a6,40(sp)
   14c50:	f03e                	sd	a5,32(sp)
   14c52:	ec46                	sd	a7,24(sp)
   14c54:	0d6010ef          	jal	15d2a <__lshift>
   14c58:	842a                	mv	s0,a0
   14c5a:	840505e3          	beqz	a0,144a4 <__gdtoa+0x232>
   14c5e:	46ba                	lw	a3,140(sp)
   14c60:	6726                	ld	a4,72(sp)
   14c62:	6e86                	ld	t4,64(sp)
   14c64:	7f62                	ld	t5,56(sp)
   14c66:	7e42                	ld	t3,48(sp)
   14c68:	7822                	ld	a6,40(sp)
   14c6a:	7782                	ld	a5,32(sp)
   14c6c:	68e2                	ld	a7,24(sp)
   14c6e:	b329                	j	14978 <__gdtoa+0x706>
   14c70:	790e                	ld	s2,224(sp)
   14c72:	b349                	j	149f4 <__gdtoa+0x782>
   14c74:	74ae                	ld	s1,232(sp)
   14c76:	790e                	ld	s2,224(sp)
   14c78:	82fff06f          	j	144a6 <__gdtoa+0x234>
   14c7c:	65a6                	ld	a1,72(sp)
   14c7e:	fff8869b          	addiw	a3,a7,-1
   14c82:	8636                	mv	a2,a3
   14c84:	26d5c663          	blt	a1,a3,14ef0 <__gdtoa+0xc7e>
   14c88:	40d584bb          	subw	s1,a1,a3
   14c8c:	6408d963          	bgez	a7,152de <__gdtoa+0x106c>
   14c90:	66c2                	ld	a3,16(sp)
   14c92:	c702                	sw	zero,140(sp)
   14c94:	ec36                	sd	a3,24(sp)
   14c96:	411686bb          	subw	a3,a3,a7
   14c9a:	e836                	sd	a3,16(sp)
   14c9c:	b909                	j	148ae <__gdtoa+0x63c>
   14c9e:	85aa                	mv	a1,a0
   14ca0:	8636                	mv	a2,a3
   14ca2:	8552                	mv	a0,s4
   14ca4:	e0ba                	sd	a4,64(sp)
   14ca6:	fc76                	sd	t4,56(sp)
   14ca8:	e4be                	sd	a5,72(sp)
   14caa:	799000ef          	jal	15c42 <__pow5mult>
   14cae:	8f2a                	mv	t5,a0
   14cb0:	fe050a63          	beqz	a0,144a4 <__gdtoa+0x232>
   14cb4:	002aa693          	slti	a3,s5,2
   14cb8:	7882                	ld	a7,32(sp)
   14cba:	7822                	ld	a6,40(sp)
   14cbc:	7e42                	ld	t3,48(sp)
   14cbe:	7ee2                	ld	t4,56(sp)
   14cc0:	6706                	ld	a4,64(sp)
   14cc2:	c681                	beqz	a3,14cca <__gdtoa+0xa58>
   14cc4:	67a6                	ld	a5,72(sp)
   14cc6:	17fd                	addi	a5,a5,-1
   14cc8:	c79d                	beqz	a5,14cf6 <__gdtoa+0xa84>
   14cca:	e882                	sd	zero,80(sp)
   14ccc:	014f2783          	lw	a5,20(t5)
   14cd0:	e4ba                	sd	a4,72(sp)
   14cd2:	e0f6                	sd	t4,64(sp)
   14cd4:	37fd                	addiw	a5,a5,-1
   14cd6:	078a                	slli	a5,a5,0x2
   14cd8:	97fa                	add	a5,a5,t5
   14cda:	4f88                	lw	a0,24(a5)
   14cdc:	fc72                	sd	t3,56(sp)
   14cde:	f842                	sd	a6,48(sp)
   14ce0:	f446                	sd	a7,40(sp)
   14ce2:	f07a                	sd	t5,32(sp)
   14ce4:	3f7000ef          	jal	158da <__hi0bits>
   14ce8:	6726                	ld	a4,72(sp)
   14cea:	6e86                	ld	t4,64(sp)
   14cec:	7e62                	ld	t3,56(sp)
   14cee:	7842                	ld	a6,48(sp)
   14cf0:	78a2                	ld	a7,40(sp)
   14cf2:	7f02                	ld	t5,32(sp)
   14cf4:	b1bd                	j	14962 <__gdtoa+0x6f0>
   14cf6:	004da783          	lw	a5,4(s11)
   14cfa:	2785                	addiw	a5,a5,1
   14cfc:	fda7d7e3          	bge	a5,s10,14cca <__gdtoa+0xa58>
   14d00:	67e2                	ld	a5,24(sp)
   14d02:	2e85                	addiw	t4,t4,1
   14d04:	2785                	addiw	a5,a5,1
   14d06:	ec3e                	sd	a5,24(sp)
   14d08:	4785                	li	a5,1
   14d0a:	e8be                	sd	a5,80(sp)
   14d0c:	b7c1                	j	14ccc <__gdtoa+0xa5a>
   14d0e:	4705                	li	a4,1
   14d10:	9f0d                	subw	a4,a4,a1
   14d12:	e83a                	sd	a4,16(sp)
   14d14:	8ec2                	mv	t4,a6
   14d16:	f082                	sd	zero,96(sp)
   14d18:	e8c2                	sd	a6,80(sp)
   14d1a:	e482                	sd	zero,72(sp)
   14d1c:	823ff06f          	j	1453e <__gdtoa+0x2cc>
   14d20:	66c2                	ld	a3,16(sp)
   14d22:	ec36                	sd	a3,24(sp)
   14d24:	66a6                	ld	a3,72(sp)
   14d26:	da0685e3          	beqz	a3,14ad0 <__gdtoa+0x85e>
   14d2a:	6626                	ld	a2,72(sp)
   14d2c:	85a2                	mv	a1,s0
   14d2e:	8552                	mv	a0,s4
   14d30:	ecba                	sd	a4,88(sp)
   14d32:	e0f6                	sd	t4,64(sp)
   14d34:	fc3e                	sd	a5,56(sp)
   14d36:	f872                	sd	t3,48(sp)
   14d38:	f442                	sd	a6,40(sp)
   14d3a:	f046                	sd	a7,32(sp)
   14d3c:	707000ef          	jal	15c42 <__pow5mult>
   14d40:	842a                	mv	s0,a0
   14d42:	f6050163          	beqz	a0,144a4 <__gdtoa+0x232>
   14d46:	67e2                	ld	a5,24(sp)
   14d48:	6766                	ld	a4,88(sp)
   14d4a:	6e86                	ld	t4,64(sp)
   14d4c:	e83e                	sd	a5,16(sp)
   14d4e:	7e42                	ld	t3,48(sp)
   14d50:	77e2                	ld	a5,56(sp)
   14d52:	7822                	ld	a6,40(sp)
   14d54:	7882                	ld	a7,32(sp)
   14d56:	e402                	sd	zero,8(sp)
   14d58:	bec1                	j	14928 <__gdtoa+0x6b6>
   14d5a:	4685                	li	a3,1
   14d5c:	f356c0e3          	blt	a3,s5,14c7c <__gdtoa+0xa0a>
   14d60:	66c2                	ld	a3,16(sp)
   14d62:	64a6                	ld	s1,72(sp)
   14d64:	01d58ebb          	addw	t4,a1,t4
   14d68:	9ead                	addw	a3,a3,a1
   14d6a:	ec36                	sd	a3,24(sp)
   14d6c:	b689                	j	148ae <__gdtoa+0x63c>
   14d6e:	65a2                	ld	a1,8(sp)
   14d70:	4681                	li	a3,0
   14d72:	4629                	li	a2,10
   14d74:	8552                	mv	a0,s4
   14d76:	f042                	sd	a6,32(sp)
   14d78:	187000ef          	jal	156fe <__multadd>
   14d7c:	e42a                	sd	a0,8(sp)
   14d7e:	f2050363          	beqz	a0,144a4 <__gdtoa+0x232>
   14d82:	76c6                	ld	a3,112(sp)
   14d84:	67e2                	ld	a5,24(sp)
   14d86:	7802                	ld	a6,32(sp)
   14d88:	7e22                	ld	t3,40(sp)
   14d8a:	7f42                	ld	t5,48(sp)
   14d8c:	7762                	ld	a4,56(sp)
   14d8e:	78c6                	ld	a7,112(sp)
   14d90:	00d04563          	bgtz	a3,14d9a <__gdtoa+0xb28>
   14d94:	4689                	li	a3,2
   14d96:	bf56cce3          	blt	a3,s5,1498e <__gdtoa+0x71c>
   14d9a:	66c2                	ld	a3,16(sp)
   14d9c:	00d7863b          	addw	a2,a5,a3
   14da0:	26c04163          	bgtz	a2,15002 <__gdtoa+0xd90>
   14da4:	67c6                	ld	a5,80(sp)
   14da6:	6b22                	ld	s6,8(sp)
   14da8:	2e079463          	bnez	a5,15090 <__gdtoa+0xe1e>
   14dac:	ffee0793          	addi	a5,t3,-2
   14db0:	e0be                	sd	a5,64(sp)
   14db2:	f1ca                	sd	s2,224(sp)
   14db4:	4785                	li	a5,1
   14db6:	f446                	sd	a7,40(sp)
   14db8:	e4c2                	sd	a6,72(sp)
   14dba:	f872                	sd	t3,48(sp)
   14dbc:	8d3a                	mv	s10,a4
   14dbe:	f07a                	sd	t5,32(sp)
   14dc0:	e8ba                	sd	a4,80(sp)
   14dc2:	a051                	j	14e46 <__gdtoa+0xbd4>
   14dc4:	8552                	mv	a0,s4
   14dc6:	ec76                	sd	t4,24(sp)
   14dc8:	125000ef          	jal	156ec <_Bfree>
   14dcc:	6ee2                	ld	t4,24(sp)
   14dce:	4685                	li	a3,1
   14dd0:	67c2                	ld	a5,16(sp)
   14dd2:	3c07c263          	bltz	a5,15196 <__gdtoa+0xf24>
   14dd6:	0157e7b3          	or	a5,a5,s5
   14dda:	2781                	sext.w	a5,a5
   14ddc:	e791                	bnez	a5,14de8 <__gdtoa+0xb76>
   14dde:	000c2783          	lw	a5,0(s8)
   14de2:	8b85                	andi	a5,a5,1
   14de4:	3a078963          	beqz	a5,15196 <__gdtoa+0xf24>
   14de8:	001d0793          	addi	a5,s10,1
   14dec:	893e                	mv	s2,a5
   14dee:	00d05563          	blez	a3,14df8 <__gdtoa+0xb86>
   14df2:	6706                	ld	a4,64(sp)
   14df4:	42071d63          	bnez	a4,1522e <__gdtoa+0xfbc>
   14df8:	ffb90fa3          	sb	s11,-1(s2)
   14dfc:	473a                	lw	a4,140(sp)
   14dfe:	76a2                	ld	a3,40(sp)
   14e00:	44d70a63          	beq	a4,a3,15254 <__gdtoa+0xfe2>
   14e04:	85a2                	mv	a1,s0
   14e06:	4681                	li	a3,0
   14e08:	4629                	li	a2,10
   14e0a:	8552                	mv	a0,s4
   14e0c:	0f3000ef          	jal	156fe <__multadd>
   14e10:	842a                	mv	s0,a0
   14e12:	e60501e3          	beqz	a0,14c74 <__gdtoa+0xa02>
   14e16:	67a2                	ld	a5,8(sp)
   14e18:	65a2                	ld	a1,8(sp)
   14e1a:	4681                	li	a3,0
   14e1c:	4629                	li	a2,10
   14e1e:	8552                	mv	a0,s4
   14e20:	0b678763          	beq	a5,s6,14ece <__gdtoa+0xc5c>
   14e24:	0db000ef          	jal	156fe <__multadd>
   14e28:	e42a                	sd	a0,8(sp)
   14e2a:	e40505e3          	beqz	a0,14c74 <__gdtoa+0xa02>
   14e2e:	85da                	mv	a1,s6
   14e30:	4681                	li	a3,0
   14e32:	4629                	li	a2,10
   14e34:	8552                	mv	a0,s4
   14e36:	0c9000ef          	jal	156fe <__multadd>
   14e3a:	8b2a                	mv	s6,a0
   14e3c:	e2050ce3          	beqz	a0,14c74 <__gdtoa+0xa02>
   14e40:	47ba                	lw	a5,140(sp)
   14e42:	8d4a                	mv	s10,s2
   14e44:	2785                	addiw	a5,a5,1
   14e46:	7482                	ld	s1,32(sp)
   14e48:	8522                	mv	a0,s0
   14e4a:	c73e                	sw	a5,140(sp)
   14e4c:	85a6                	mv	a1,s1
   14e4e:	5da000ef          	jal	15428 <__quorem_D2A>
   14e52:	65a2                	ld	a1,8(sp)
   14e54:	892a                	mv	s2,a0
   14e56:	8522                	mv	a0,s0
   14e58:	7e5000ef          	jal	15e3c <__mcmp>
   14e5c:	e82a                	sd	a0,16(sp)
   14e5e:	85a6                	mv	a1,s1
   14e60:	865a                	mv	a2,s6
   14e62:	8552                	mv	a0,s4
   14e64:	00e010ef          	jal	15e72 <__mdiff>
   14e68:	85aa                	mv	a1,a0
   14e6a:	e00505e3          	beqz	a0,14c74 <__gdtoa+0xa02>
   14e6e:	491c                	lw	a5,16(a0)
   14e70:	03090e9b          	addiw	t4,s2,48
   14e74:	8df6                	mv	s11,t4
   14e76:	f7b9                	bnez	a5,14dc4 <__gdtoa+0xb52>
   14e78:	ec2a                	sd	a0,24(sp)
   14e7a:	8522                	mv	a0,s0
   14e7c:	fc76                	sd	t4,56(sp)
   14e7e:	7bf000ef          	jal	15e3c <__mcmp>
   14e82:	65e2                	ld	a1,24(sp)
   14e84:	84aa                	mv	s1,a0
   14e86:	8552                	mv	a0,s4
   14e88:	065000ef          	jal	156ec <_Bfree>
   14e8c:	0154e6b3          	or	a3,s1,s5
   14e90:	2681                	sext.w	a3,a3
   14e92:	7ee2                	ld	t4,56(sp)
   14e94:	16069563          	bnez	a3,14ffe <__gdtoa+0xd8c>
   14e98:	000c2783          	lw	a5,0(s8)
   14e9c:	7742                	ld	a4,48(sp)
   14e9e:	8b85                	andi	a5,a5,1
   14ea0:	8fd9                	or	a5,a5,a4
   14ea2:	f79d                	bnez	a5,14dd0 <__gdtoa+0xb5e>
   14ea4:	03900793          	li	a5,57
   14ea8:	6826                	ld	a6,72(sp)
   14eaa:	7f02                	ld	t5,32(sp)
   14eac:	6746                	ld	a4,80(sp)
   14eae:	6542                	ld	a0,16(sp)
   14eb0:	836a                	mv	t1,s10
   14eb2:	10fe8c63          	beq	t4,a5,14fca <__gdtoa+0xd58>
   14eb6:	46a05f63          	blez	a0,15334 <__gdtoa+0x10c2>
   14eba:	03190e9b          	addiw	t4,s2,49
   14ebe:	02000b93          	li	s7,32
   14ec2:	68a2                	ld	a7,8(sp)
   14ec4:	01d30023          	sb	t4,0(t1)
   14ec8:	e45a                	sd	s6,8(sp)
   14eca:	0305                	addi	t1,t1,1
   14ecc:	bb01                	j	14bdc <__gdtoa+0x96a>
   14ece:	031000ef          	jal	156fe <__multadd>
   14ed2:	e42a                	sd	a0,8(sp)
   14ed4:	da0500e3          	beqz	a0,14c74 <__gdtoa+0xa02>
   14ed8:	8b2a                	mv	s6,a0
   14eda:	b79d                	j	14e40 <__gdtoa+0xbce>
   14edc:	fffb4813          	not	a6,s6
   14ee0:	833a                	mv	t1,a4
   14ee2:	4bc1                	li	s7,16
   14ee4:	bcd5                	j	149d8 <__gdtoa+0x766>
   14ee6:	4705                	li	a4,1
   14ee8:	f4ba                	sd	a4,104(sp)
   14eea:	b29d                	j	14850 <__gdtoa+0x5de>
   14eec:	f482                	sd	zero,104(sp)
   14eee:	b28d                	j	14850 <__gdtoa+0x5de>
   14ef0:	66a6                	ld	a3,72(sp)
   14ef2:	65c6                	ld	a1,80(sp)
   14ef4:	c746                	sw	a7,140(sp)
   14ef6:	40d606bb          	subw	a3,a2,a3
   14efa:	9ead                	addw	a3,a3,a1
   14efc:	e8b6                	sd	a3,80(sp)
   14efe:	66c2                	ld	a3,16(sp)
   14f00:	01d88ebb          	addw	t4,a7,t4
   14f04:	e4b2                	sd	a2,72(sp)
   14f06:	011686bb          	addw	a3,a3,a7
   14f0a:	ec36                	sd	a3,24(sp)
   14f0c:	4481                	li	s1,0
   14f0e:	b245                	j	148ae <__gdtoa+0x63c>
   14f10:	65a2                	ld	a1,8(sp)
   14f12:	8626                	mv	a2,s1
   14f14:	8552                	mv	a0,s4
   14f16:	f1ca                	sd	s2,224(sp)
   14f18:	ecba                	sd	a4,88(sp)
   14f1a:	e0f6                	sd	t4,64(sp)
   14f1c:	fc3e                	sd	a5,56(sp)
   14f1e:	f872                	sd	t3,48(sp)
   14f20:	f442                	sd	a6,40(sp)
   14f22:	f046                	sd	a7,32(sp)
   14f24:	51f000ef          	jal	15c42 <__pow5mult>
   14f28:	e42a                	sd	a0,8(sp)
   14f2a:	d40505e3          	beqz	a0,14c74 <__gdtoa+0xa02>
   14f2e:	85aa                	mv	a1,a0
   14f30:	8622                	mv	a2,s0
   14f32:	8552                	mv	a0,s4
   14f34:	343000ef          	jal	15a76 <__multiply>
   14f38:	d2050ee3          	beqz	a0,14c74 <__gdtoa+0xa02>
   14f3c:	85a2                	mv	a1,s0
   14f3e:	fcaa                	sd	a0,120(sp)
   14f40:	8552                	mv	a0,s4
   14f42:	7aa000ef          	jal	156ec <_Bfree>
   14f46:	67a6                	ld	a5,72(sp)
   14f48:	7466                	ld	s0,120(sp)
   14f4a:	7882                	ld	a7,32(sp)
   14f4c:	9f85                	subw	a5,a5,s1
   14f4e:	e4be                	sd	a5,72(sp)
   14f50:	86be                	mv	a3,a5
   14f52:	7822                	ld	a6,40(sp)
   14f54:	7e42                	ld	t3,48(sp)
   14f56:	77e2                	ld	a5,56(sp)
   14f58:	6e86                	ld	t4,64(sp)
   14f5a:	6766                	ld	a4,88(sp)
   14f5c:	790e                	ld	s2,224(sp)
   14f5e:	9c0685e3          	beqz	a3,14928 <__gdtoa+0x6b6>
   14f62:	ba79                	j	14900 <__gdtoa+0x68e>
   14f64:	f20e0753          	fmv.d.x	fa4,t3
   14f68:	833a                	mv	t1,a4
   14f6a:	12e675d3          	fmul.d	fa1,fa2,fa4
   14f6e:	4e05                	li	t3,1
   14f70:	1f01b707          	fld	fa4,496(gp) # 1b600 <__SDATA_BEGIN__+0x48>
   14f74:	a021                	j	14f7c <__gdtoa+0xd0a>
   14f76:	12e7f7d3          	fmul.d	fa5,fa5,fa4
   14f7a:	2e05                	addiw	t3,t3,1
   14f7c:	c772                	sw	t3,140(sp)
   14f7e:	c2079e53          	fcvt.w.d	t3,fa5,rtz
   14f82:	0305                	addi	t1,t1,1
   14f84:	030e069b          	addiw	a3,t3,48
   14f88:	0ff6f693          	zext.b	a3,a3
   14f8c:	000e0663          	beqz	t3,14f98 <__gdtoa+0xd26>
   14f90:	d20e0653          	fcvt.d.w	fa2,t3
   14f94:	0ac7f7d3          	fsub.d	fa5,fa5,fa2
   14f98:	fed30fa3          	sb	a3,-1(t1)
   14f9c:	4e3a                	lw	t3,140(sp)
   14f9e:	fdfe1ce3          	bne	t3,t6,14f76 <__gdtoa+0xd04>
   14fa2:	2081b707          	fld	fa4,520(gp) # 1b618 <__SDATA_BEGIN__+0x60>
   14fa6:	02e5f653          	fadd.d	fa2,fa1,fa4
   14faa:	a2f61e53          	flt.d	t3,fa2,fa5
   14fae:	f00e1463          	bnez	t3,146b6 <__gdtoa+0x444>
   14fb2:	0ab77753          	fsub.d	fa4,fa4,fa1
   14fb6:	a2e796d3          	flt.d	a3,fa5,fa4
   14fba:	26069063          	bnez	a3,1521a <__gdtoa+0xfa8>
   14fbe:	4e01                	li	t3,0
   14fc0:	ae0644e3          	bltz	a2,14aa8 <__gdtoa+0x836>
   14fc4:	2118                	fld	fa4,0(a0)
   14fc6:	4e01                	li	t3,0
   14fc8:	be01                	j	14ad8 <__gdtoa+0x866>
   14fca:	00130613          	addi	a2,t1,1
   14fce:	03900693          	li	a3,57
   14fd2:	68a2                	ld	a7,8(sp)
   14fd4:	87b2                	mv	a5,a2
   14fd6:	e45a                	sd	s6,8(sp)
   14fd8:	00d30023          	sb	a3,0(t1)
   14fdc:	03900613          	li	a2,57
   14fe0:	a019                	j	14fe6 <__gdtoa+0xd74>
   14fe2:	14f70163          	beq	a4,a5,15124 <__gdtoa+0xeb2>
   14fe6:	fff7c683          	lbu	a3,-1(a5)
   14fea:	833e                	mv	t1,a5
   14fec:	17fd                	addi	a5,a5,-1
   14fee:	fec68ae3          	beq	a3,a2,14fe2 <__gdtoa+0xd70>
   14ff2:	2685                	addiw	a3,a3,1
   14ff4:	00d78023          	sb	a3,0(a5)
   14ff8:	02000b93          	li	s7,32
   14ffc:	b6c5                	j	14bdc <__gdtoa+0x96a>
   14ffe:	86a6                	mv	a3,s1
   15000:	bbc1                	j	14dd0 <__gdtoa+0xb5e>
   15002:	65a2                	ld	a1,8(sp)
   15004:	8552                	mv	a0,s4
   15006:	f83a                	sd	a4,48(sp)
   15008:	f47a                	sd	t5,40(sp)
   1500a:	f072                	sd	t3,32(sp)
   1500c:	ec42                	sd	a6,24(sp)
   1500e:	e846                	sd	a7,16(sp)
   15010:	51b000ef          	jal	15d2a <__lshift>
   15014:	e42a                	sd	a0,8(sp)
   15016:	68c2                	ld	a7,16(sp)
   15018:	6862                	ld	a6,24(sp)
   1501a:	7e02                	ld	t3,32(sp)
   1501c:	7f22                	ld	t5,40(sp)
   1501e:	7742                	ld	a4,48(sp)
   15020:	d80512e3          	bnez	a0,14da4 <__gdtoa+0xb32>
   15024:	74ae                	ld	s1,232(sp)
   15026:	c80ff06f          	j	144a6 <__gdtoa+0x234>
   1502a:	03100793          	li	a5,49
   1502e:	00170313          	addi	t1,a4,1
   15032:	00f70023          	sb	a5,0(a4)
   15036:	4581                	li	a1,0
   15038:	8552                	mv	a0,s4
   1503a:	e83a                	sd	a4,16(sp)
   1503c:	e41a                	sd	t1,8(sp)
   1503e:	6ae000ef          	jal	156ec <_Bfree>
   15042:	6322                	ld	t1,8(sp)
   15044:	6742                	ld	a4,16(sp)
   15046:	4609                	li	a2,2
   15048:	02000b93          	li	s7,32
   1504c:	e90ff06f          	j	146dc <__gdtoa+0x46a>
   15050:	2585                	addiw	a1,a1,1
   15052:	03100693          	li	a3,49
   15056:	e7aff06f          	j	146d0 <__gdtoa+0x45e>
   1505a:	02f7f7d3          	fadd.d	fa5,fa5,fa5
   1505e:	fff34683          	lbu	a3,-1(t1)
   15062:	a2f71653          	flt.d	a2,fa4,fa5
   15066:	ee45                	bnez	a2,1511e <__gdtoa+0xeac>
   15068:	a2e7a653          	feq.d	a2,fa5,fa4
   1506c:	c219                	beqz	a2,15072 <__gdtoa+0xe00>
   1506e:	8b85                	andi	a5,a5,1
   15070:	e7dd                	bnez	a5,1511e <__gdtoa+0xeac>
   15072:	879a                	mv	a5,t1
   15074:	85c2                	mv	a1,a6
   15076:	4bc1                	li	s7,16
   15078:	03000613          	li	a2,48
   1507c:	fff7c683          	lbu	a3,-1(a5)
   15080:	833e                	mv	t1,a5
   15082:	17fd                	addi	a5,a5,-1
   15084:	fec68ce3          	beq	a3,a2,1507c <__gdtoa+0xe0a>
   15088:	0015861b          	addiw	a2,a1,1
   1508c:	e50ff06f          	j	146dc <__gdtoa+0x46a>
   15090:	008b2583          	lw	a1,8(s6)
   15094:	8552                	mv	a0,s4
   15096:	fc3a                	sd	a4,56(sp)
   15098:	f87a                	sd	t5,48(sp)
   1509a:	f472                	sd	t3,40(sp)
   1509c:	f042                	sd	a6,32(sp)
   1509e:	ec46                	sd	a7,24(sp)
   150a0:	5e8000ef          	jal	15688 <_Balloc>
   150a4:	87aa                	mv	a5,a0
   150a6:	be050f63          	beqz	a0,144a4 <__gdtoa+0x232>
   150aa:	014b2603          	lw	a2,20(s6)
   150ae:	010b0593          	addi	a1,s6,16
   150b2:	0541                	addi	a0,a0,16
   150b4:	060a                	slli	a2,a2,0x2
   150b6:	0621                	addi	a2,a2,8
   150b8:	e83e                	sd	a5,16(sp)
   150ba:	d49fe0ef          	jal	13e02 <memcpy>
   150be:	65c2                	ld	a1,16(sp)
   150c0:	8552                	mv	a0,s4
   150c2:	4605                	li	a2,1
   150c4:	467000ef          	jal	15d2a <__lshift>
   150c8:	68e2                	ld	a7,24(sp)
   150ca:	7802                	ld	a6,32(sp)
   150cc:	7e22                	ld	t3,40(sp)
   150ce:	7f42                	ld	t5,48(sp)
   150d0:	7762                	ld	a4,56(sp)
   150d2:	8b2a                	mv	s6,a0
   150d4:	cc051ce3          	bnez	a0,14dac <__gdtoa+0xb3a>
   150d8:	74ae                	ld	s1,232(sp)
   150da:	bccff06f          	j	144a6 <__gdtoa+0x234>
   150de:	7fc6                	ld	t6,112(sp)
   150e0:	edf05063          	blez	t6,147a0 <__gdtoa+0x52e>
   150e4:	1f01b787          	fld	fa5,496(gp) # 1b600 <__SDATA_BEGIN__+0x48>
   150e8:	1f81b707          	fld	fa4,504(gp) # 1b608 <__SDATA_BEGIN__+0x50>
   150ec:	12f6f7d3          	fmul.d	fa5,fa3,fa5
   150f0:	a43a                	fsd	fa4,8(sp)
   150f2:	2622                	fld	fa2,8(sp)
   150f4:	1e81b707          	fld	fa4,488(gp) # 1b5f8 <__SDATA_BEGIN__+0x40>
   150f8:	fcc00337          	lui	t1,0xfcc00
   150fc:	55fd                	li	a1,-1
   150fe:	72c7f743          	fmadd.d	fa4,fa5,fa2,fa4
   15102:	e2070553          	fmv.x.d	a0,fa4
   15106:	02051e13          	slli	t3,a0,0x20
   1510a:	9101                	srli	a0,a0,0x20
   1510c:	0065053b          	addw	a0,a0,t1
   15110:	020e5e13          	srli	t3,t3,0x20
   15114:	1502                	slli	a0,a0,0x20
   15116:	00ae6e33          	or	t3,t3,a0
   1511a:	d0aff06f          	j	14624 <__gdtoa+0x3b2>
   1511e:	85c2                	mv	a1,a6
   15120:	d96ff06f          	j	146b6 <__gdtoa+0x444>
   15124:	03100793          	li	a5,49
   15128:	2805                	addiw	a6,a6,1
   1512a:	00f70023          	sb	a5,0(a4)
   1512e:	02000b93          	li	s7,32
   15132:	b46d                	j	14bdc <__gdtoa+0x96a>
   15134:	f2000753          	fmv.d.x	fa4,zero
   15138:	0015861b          	addiw	a2,a1,1
   1513c:	a2e7a7d3          	feq.d	a5,fa5,fa4
   15140:	0017b793          	seqz	a5,a5
   15144:	00479b9b          	slliw	s7,a5,0x4
   15148:	d94ff06f          	j	146dc <__gdtoa+0x46a>
   1514c:	85a2                	mv	a1,s0
   1514e:	4605                	li	a2,1
   15150:	8552                	mv	a0,s4
   15152:	fc3a                	sd	a4,56(sp)
   15154:	e87a                	sd	t5,16(sp)
   15156:	f83e                	sd	a5,48(sp)
   15158:	f446                	sd	a7,40(sp)
   1515a:	f042                	sd	a6,32(sp)
   1515c:	ec76                	sd	t4,24(sp)
   1515e:	3cd000ef          	jal	15d2a <__lshift>
   15162:	842a                	mv	s0,a0
   15164:	b00508e3          	beqz	a0,14c74 <__gdtoa+0xa02>
   15168:	65c2                	ld	a1,16(sp)
   1516a:	4d3000ef          	jal	15e3c <__mcmp>
   1516e:	6f42                	ld	t5,16(sp)
   15170:	7802                	ld	a6,32(sp)
   15172:	78a2                	ld	a7,40(sp)
   15174:	77c2                	ld	a5,48(sp)
   15176:	7762                	ld	a4,56(sp)
   15178:	e6a042e3          	bgtz	a0,14fdc <__gdtoa+0xd6a>
   1517c:	e511                	bnez	a0,15188 <__gdtoa+0xf16>
   1517e:	6ee2                	ld	t4,24(sp)
   15180:	001efe93          	andi	t4,t4,1
   15184:	e40e9ce3          	bnez	t4,14fdc <__gdtoa+0xd6a>
   15188:	4850                	lw	a2,20(s0)
   1518a:	4685                	li	a3,1
   1518c:	4bc1                	li	s7,16
   1518e:	a2c6cfe3          	blt	a3,a2,14bcc <__gdtoa+0x95a>
   15192:	4c14                	lw	a3,24(s0)
   15194:	bc05                	j	14bc4 <__gdtoa+0x952>
   15196:	7e42                	ld	t3,48(sp)
   15198:	6826                	ld	a6,72(sp)
   1519a:	7f02                	ld	t5,32(sp)
   1519c:	6746                	ld	a4,80(sp)
   1519e:	836a                	mv	t1,s10
   151a0:	0c0e0463          	beqz	t3,15268 <__gdtoa+0xff6>
   151a4:	4850                	lw	a2,20(s0)
   151a6:	4785                	li	a5,1
   151a8:	14c7d463          	bge	a5,a2,152f0 <__gdtoa+0x107e>
   151ac:	4789                	li	a5,2
   151ae:	14fe0763          	beq	t3,a5,152fc <__gdtoa+0x108a>
   151b2:	8aa2                	mv	s5,s0
   151b4:	8c42                	mv	s8,a6
   151b6:	841a                	mv	s0,t1
   151b8:	8bfa                	mv	s7,t5
   151ba:	8d3a                	mv	s10,a4
   151bc:	a821                	j	151d4 <__gdtoa+0xf62>
   151be:	540000ef          	jal	156fe <__multadd>
   151c2:	85de                	mv	a1,s7
   151c4:	8aaa                	mv	s5,a0
   151c6:	0405                	addi	s0,s0,1
   151c8:	aa0506e3          	beqz	a0,14c74 <__gdtoa+0xa02>
   151cc:	25c000ef          	jal	15428 <__quorem_D2A>
   151d0:	03050e9b          	addiw	t4,a0,48
   151d4:	85da                	mv	a1,s6
   151d6:	855e                	mv	a0,s7
   151d8:	e876                	sd	t4,16(sp)
   151da:	463000ef          	jal	15e3c <__mcmp>
   151de:	6ec2                	ld	t4,16(sp)
   151e0:	4681                	li	a3,0
   151e2:	4629                	li	a2,10
   151e4:	10a05e63          	blez	a0,15300 <__gdtoa+0x108e>
   151e8:	85da                	mv	a1,s6
   151ea:	01d40023          	sb	t4,0(s0)
   151ee:	8552                	mv	a0,s4
   151f0:	50e000ef          	jal	156fe <__multadd>
   151f4:	87aa                	mv	a5,a0
   151f6:	84da                	mv	s1,s6
   151f8:	4681                	li	a3,0
   151fa:	8b2a                	mv	s6,a0
   151fc:	4629                	li	a2,10
   151fe:	85d6                	mv	a1,s5
   15200:	8552                	mv	a0,s4
   15202:	a60789e3          	beqz	a5,14c74 <__gdtoa+0xa02>
   15206:	67a2                	ld	a5,8(sp)
   15208:	fa979be3          	bne	a5,s1,151be <__gdtoa+0xf4c>
   1520c:	e45a                	sd	s6,8(sp)
   1520e:	bf45                	j	151be <__gdtoa+0xf4c>
   15210:	4e01                	li	t3,0
   15212:	da065363          	bgez	a2,147b8 <__gdtoa+0x546>
   15216:	e54ff06f          	j	1486a <__gdtoa+0x5f8>
   1521a:	f2000753          	fmv.d.x	fa4,zero
   1521e:	879a                	mv	a5,t1
   15220:	a2e7a6d3          	feq.d	a3,fa5,fa4
   15224:	0016b693          	seqz	a3,a3
   15228:	00469b9b          	slliw	s7,a3,0x4
   1522c:	b5b1                	j	15078 <__gdtoa+0xe06>
   1522e:	863e                	mv	a2,a5
   15230:	03900793          	li	a5,57
   15234:	6826                	ld	a6,72(sp)
   15236:	7f02                	ld	t5,32(sp)
   15238:	6746                	ld	a4,80(sp)
   1523a:	836a                	mv	t1,s10
   1523c:	d8fd89e3          	beq	s11,a5,14fce <__gdtoa+0xd5c>
   15240:	001d879b          	addiw	a5,s11,1
   15244:	68a2                	ld	a7,8(sp)
   15246:	00fd0023          	sb	a5,0(s10)
   1524a:	834a                	mv	t1,s2
   1524c:	e45a                	sd	s6,8(sp)
   1524e:	02000b93          	li	s7,32
   15252:	b269                	j	14bdc <__gdtoa+0x96a>
   15254:	68a2                	ld	a7,8(sp)
   15256:	6826                	ld	a6,72(sp)
   15258:	7e42                	ld	t3,48(sp)
   1525a:	7f02                	ld	t5,32(sp)
   1525c:	6746                	ld	a4,80(sp)
   1525e:	e45a                	sd	s6,8(sp)
   15260:	b2b1                	j	14bac <__gdtoa+0x93a>
   15262:	78c6                	ld	a7,112(sp)
   15264:	f1ca                	sd	s2,224(sp)
   15266:	b8dd                	j	14b5c <__gdtoa+0x8ea>
   15268:	04d05063          	blez	a3,152a8 <__gdtoa+0x1036>
   1526c:	85a2                	mv	a1,s0
   1526e:	4605                	li	a2,1
   15270:	8552                	mv	a0,s4
   15272:	f83a                	sd	a4,48(sp)
   15274:	e87a                	sd	t5,16(sp)
   15276:	f41a                	sd	t1,40(sp)
   15278:	f042                	sd	a6,32(sp)
   1527a:	ec76                	sd	t4,24(sp)
   1527c:	2af000ef          	jal	15d2a <__lshift>
   15280:	842a                	mv	s0,a0
   15282:	9e0509e3          	beqz	a0,14c74 <__gdtoa+0xa02>
   15286:	65c2                	ld	a1,16(sp)
   15288:	3b5000ef          	jal	15e3c <__mcmp>
   1528c:	6f42                	ld	t5,16(sp)
   1528e:	7802                	ld	a6,32(sp)
   15290:	7322                	ld	t1,40(sp)
   15292:	7742                	ld	a4,48(sp)
   15294:	08a05363          	blez	a0,1531a <__gdtoa+0x10a8>
   15298:	03900793          	li	a5,57
   1529c:	d2fd87e3          	beq	s11,a5,14fca <__gdtoa+0xd58>
   152a0:	03190e9b          	addiw	t4,s2,49
   152a4:	02000e13          	li	t3,32
   152a8:	4854                	lw	a3,20(s0)
   152aa:	4785                	li	a5,1
   152ac:	4bc1                	li	s7,16
   152ae:	c0d7cae3          	blt	a5,a3,14ec2 <__gdtoa+0xc50>
   152b2:	4c1c                	lw	a5,24(s0)
   152b4:	c00797e3          	bnez	a5,14ec2 <__gdtoa+0xc50>
   152b8:	8bf2                	mv	s7,t3
   152ba:	b121                	j	14ec2 <__gdtoa+0xc50>
   152bc:	65a6                	ld	a1,72(sp)
   152be:	fff8869b          	addiw	a3,a7,-1
   152c2:	8636                	mv	a2,a3
   152c4:	c2d5c6e3          	blt	a1,a3,14ef0 <__gdtoa+0xc7e>
   152c8:	40d584bb          	subw	s1,a1,a3
   152cc:	66c2                	ld	a3,16(sp)
   152ce:	01d88ebb          	addw	t4,a7,t4
   152d2:	c746                	sw	a7,140(sp)
   152d4:	011686bb          	addw	a3,a3,a7
   152d8:	ec36                	sd	a3,24(sp)
   152da:	dd4ff06f          	j	148ae <__gdtoa+0x63c>
   152de:	66c2                	ld	a3,16(sp)
   152e0:	c746                	sw	a7,140(sp)
   152e2:	01d88ebb          	addw	t4,a7,t4
   152e6:	011686bb          	addw	a3,a3,a7
   152ea:	ec36                	sd	a3,24(sp)
   152ec:	dc2ff06f          	j	148ae <__gdtoa+0x63c>
   152f0:	4c1c                	lw	a5,24(s0)
   152f2:	ea079de3          	bnez	a5,151ac <__gdtoa+0xf3a>
   152f6:	f6d04be3          	bgtz	a3,1526c <__gdtoa+0xffa>
   152fa:	b6e1                	j	14ec2 <__gdtoa+0xc50>
   152fc:	4bc1                	li	s7,16
   152fe:	b6d1                	j	14ec2 <__gdtoa+0xc50>
   15300:	03900793          	li	a5,57
   15304:	8322                	mv	t1,s0
   15306:	8862                	mv	a6,s8
   15308:	8456                	mv	s0,s5
   1530a:	8f5e                	mv	t5,s7
   1530c:	876a                	mv	a4,s10
   1530e:	cafe8ee3          	beq	t4,a5,14fca <__gdtoa+0xd58>
   15312:	2e85                	addiw	t4,t4,1
   15314:	02000b93          	li	s7,32
   15318:	b66d                	j	14ec2 <__gdtoa+0xc50>
   1531a:	6ee2                	ld	t4,24(sp)
   1531c:	e501                	bnez	a0,15324 <__gdtoa+0x10b2>
   1531e:	001df793          	andi	a5,s11,1
   15322:	fbbd                	bnez	a5,15298 <__gdtoa+0x1026>
   15324:	02000e13          	li	t3,32
   15328:	b741                	j	152a8 <__gdtoa+0x1036>
   1532a:	790e                	ld	s2,224(sp)
   1532c:	0018061b          	addiw	a2,a6,1
   15330:	bacff06f          	j	146dc <__gdtoa+0x46a>
   15334:	4854                	lw	a3,20(s0)
   15336:	4785                	li	a5,1
   15338:	4bc1                	li	s7,16
   1533a:	b8d7c4e3          	blt	a5,a3,14ec2 <__gdtoa+0xc50>
   1533e:	4c1c                	lw	a5,24(s0)
   15340:	00f037b3          	snez	a5,a5
   15344:	00479b9b          	slliw	s7,a5,0x4
   15348:	bead                	j	14ec2 <__gdtoa+0xc50>

000000000001534a <__rv_alloc_D2A.part.0>:
   1534a:	66e5                	lui	a3,0x19
   1534c:	6565                	lui	a0,0x19
   1534e:	1141                	addi	sp,sp,-16
   15350:	2b068693          	addi	a3,a3,688 # 192b0 <__clzdi2+0xb6>
   15354:	2c850513          	addi	a0,a0,712 # 192c8 <__clzdi2+0xce>
   15358:	4601                	li	a2,0
   1535a:	03900593          	li	a1,57
   1535e:	e406                	sd	ra,8(sp)
   15360:	031010ef          	jal	16b90 <__assert_func>

0000000000015364 <__rv_alloc_D2A>:
   15364:	1141                	addi	sp,sp,-16
   15366:	e022                	sd	s0,0(sp)
   15368:	e406                	sd	ra,8(sp)
   1536a:	46fd                	li	a3,31
   1536c:	842a                	mv	s0,a0
   1536e:	4705                	li	a4,1
   15370:	4791                	li	a5,4
   15372:	02b6f563          	bgeu	a3,a1,1539c <__rv_alloc_D2A+0x38>
   15376:	0017979b          	slliw	a5,a5,0x1
   1537a:	01c78693          	addi	a3,a5,28
   1537e:	863a                	mv	a2,a4
   15380:	2705                	addiw	a4,a4,1
   15382:	fed5fae3          	bgeu	a1,a3,15376 <__rv_alloc_D2A+0x12>
   15386:	85b2                	mv	a1,a2
   15388:	cc30                	sw	a2,88(s0)
   1538a:	8522                	mv	a0,s0
   1538c:	2fc000ef          	jal	15688 <_Balloc>
   15390:	c911                	beqz	a0,153a4 <__rv_alloc_D2A+0x40>
   15392:	60a2                	ld	ra,8(sp)
   15394:	e828                	sd	a0,80(s0)
   15396:	6402                	ld	s0,0(sp)
   15398:	0141                	addi	sp,sp,16
   1539a:	8082                	ret
   1539c:	04052c23          	sw	zero,88(a0)
   153a0:	4581                	li	a1,0
   153a2:	b7e5                	j	1538a <__rv_alloc_D2A+0x26>
   153a4:	fa7ff0ef          	jal	1534a <__rv_alloc_D2A.part.0>

00000000000153a8 <__nrv_alloc_D2A>:
   153a8:	7179                	addi	sp,sp,-48
   153aa:	f022                	sd	s0,32(sp)
   153ac:	ec26                	sd	s1,24(sp)
   153ae:	f406                	sd	ra,40(sp)
   153b0:	487d                	li	a6,31
   153b2:	84aa                	mv	s1,a0
   153b4:	842e                	mv	s0,a1
   153b6:	4705                	li	a4,1
   153b8:	4791                	li	a5,4
   153ba:	04d87863          	bgeu	a6,a3,1540a <__nrv_alloc_D2A+0x62>
   153be:	0017979b          	slliw	a5,a5,0x1
   153c2:	01c78513          	addi	a0,a5,28
   153c6:	85ba                	mv	a1,a4
   153c8:	2705                	addiw	a4,a4,1
   153ca:	fea6fae3          	bgeu	a3,a0,153be <__nrv_alloc_D2A+0x16>
   153ce:	ccac                	sw	a1,88(s1)
   153d0:	8526                	mv	a0,s1
   153d2:	e432                	sd	a2,8(sp)
   153d4:	2b4000ef          	jal	15688 <_Balloc>
   153d8:	6622                	ld	a2,8(sp)
   153da:	cd15                	beqz	a0,15416 <__nrv_alloc_D2A+0x6e>
   153dc:	e8a8                	sd	a0,80(s1)
   153de:	00044783          	lbu	a5,0(s0)
   153e2:	00f50023          	sb	a5,0(a0)
   153e6:	c795                	beqz	a5,15412 <__nrv_alloc_D2A+0x6a>
   153e8:	00140593          	addi	a1,s0,1
   153ec:	87aa                	mv	a5,a0
   153ee:	0005c703          	lbu	a4,0(a1)
   153f2:	0585                	addi	a1,a1,1
   153f4:	0785                	addi	a5,a5,1
   153f6:	00e78023          	sb	a4,0(a5)
   153fa:	fb75                	bnez	a4,153ee <__nrv_alloc_D2A+0x46>
   153fc:	c211                	beqz	a2,15400 <__nrv_alloc_D2A+0x58>
   153fe:	e21c                	sd	a5,0(a2)
   15400:	70a2                	ld	ra,40(sp)
   15402:	7402                	ld	s0,32(sp)
   15404:	64e2                	ld	s1,24(sp)
   15406:	6145                	addi	sp,sp,48
   15408:	8082                	ret
   1540a:	04052c23          	sw	zero,88(a0)
   1540e:	4581                	li	a1,0
   15410:	b7c1                	j	153d0 <__nrv_alloc_D2A+0x28>
   15412:	87aa                	mv	a5,a0
   15414:	b7e5                	j	153fc <__nrv_alloc_D2A+0x54>
   15416:	f35ff0ef          	jal	1534a <__rv_alloc_D2A.part.0>

000000000001541a <__freedtoa>:
   1541a:	4d38                	lw	a4,88(a0)
   1541c:	4785                	li	a5,1
   1541e:	00e797bb          	sllw	a5,a5,a4
   15422:	c5dc                	sw	a5,12(a1)
   15424:	c598                	sw	a4,8(a1)
   15426:	a4d9                	j	156ec <_Bfree>

0000000000015428 <__quorem_D2A>:
   15428:	0145a803          	lw	a6,20(a1)
   1542c:	495c                	lw	a5,20(a0)
   1542e:	1707c763          	blt	a5,a6,1559c <__quorem_D2A+0x174>
   15432:	387d                	addiw	a6,a6,-1
   15434:	00281393          	slli	t2,a6,0x2
   15438:	01858613          	addi	a2,a1,24
   1543c:	007608b3          	add	a7,a2,t2
   15440:	01850313          	addi	t1,a0,24
   15444:	0008a783          	lw	a5,0(a7)
   15448:	939a                	add	t2,t2,t1
   1544a:	0003a703          	lw	a4,0(t2)
   1544e:	2785                	addiw	a5,a5,1
   15450:	715d                	addi	sp,sp,-80
   15452:	02f752bb          	divuw	t0,a4,a5
   15456:	e486                	sd	ra,72(sp)
   15458:	e0a2                	sd	s0,64(sp)
   1545a:	8e16                	mv	t3,t0
   1545c:	0af76063          	bltu	a4,a5,154fc <__quorem_D2A+0xd4>
   15460:	fc26                	sd	s1,56(sp)
   15462:	8fb2                	mv	t6,a2
   15464:	8f1a                	mv	t5,t1
   15466:	4481                	li	s1,0
   15468:	4401                	li	s0,0
   1546a:	000fa703          	lw	a4,0(t6)
   1546e:	000f2683          	lw	a3,0(t5)
   15472:	0f11                	addi	t5,t5,4
   15474:	03071793          	slli	a5,a4,0x30
   15478:	93c1                	srli	a5,a5,0x30
   1547a:	025787bb          	mulw	a5,a5,t0
   1547e:	0107571b          	srliw	a4,a4,0x10
   15482:	0f91                	addi	t6,t6,4
   15484:	02570ebb          	mulw	t4,a4,t0
   15488:	9fa5                	addw	a5,a5,s1
   1548a:	03069713          	slli	a4,a3,0x30
   1548e:	03079493          	slli	s1,a5,0x30
   15492:	90c1                	srli	s1,s1,0x30
   15494:	9341                	srli	a4,a4,0x30
   15496:	9f05                	subw	a4,a4,s1
   15498:	0107d79b          	srliw	a5,a5,0x10
   1549c:	9f01                	subw	a4,a4,s0
   1549e:	02f71493          	slli	s1,a4,0x2f
   154a2:	01d787bb          	addw	a5,a5,t4
   154a6:	03079413          	slli	s0,a5,0x30
   154aa:	9041                	srli	s0,s0,0x30
   154ac:	03f4de93          	srli	t4,s1,0x3f
   154b0:	9ea2                	add	t4,t4,s0
   154b2:	0106d69b          	srliw	a3,a3,0x10
   154b6:	41d686bb          	subw	a3,a3,t4
   154ba:	1742                	slli	a4,a4,0x30
   154bc:	01069e9b          	slliw	t4,a3,0x10
   154c0:	9341                	srli	a4,a4,0x30
   154c2:	00eee733          	or	a4,t4,a4
   154c6:	0106d69b          	srliw	a3,a3,0x10
   154ca:	feef2e23          	sw	a4,-4(t5)
   154ce:	0107d49b          	srliw	s1,a5,0x10
   154d2:	0016f413          	andi	s0,a3,1
   154d6:	f9f8fae3          	bgeu	a7,t6,1546a <__quorem_D2A+0x42>
   154da:	0003a783          	lw	a5,0(t2)
   154de:	e3e9                	bnez	a5,155a0 <__quorem_D2A+0x178>
   154e0:	13f1                	addi	t2,t2,-4
   154e2:	00736663          	bltu	t1,t2,154ee <__quorem_D2A+0xc6>
   154e6:	a801                	j	154f6 <__quorem_D2A+0xce>
   154e8:	387d                	addiw	a6,a6,-1
   154ea:	00737663          	bgeu	t1,t2,154f6 <__quorem_D2A+0xce>
   154ee:	0003a783          	lw	a5,0(t2)
   154f2:	13f1                	addi	t2,t2,-4
   154f4:	dbf5                	beqz	a5,154e8 <__quorem_D2A+0xc0>
   154f6:	74e2                	ld	s1,56(sp)
   154f8:	01052a23          	sw	a6,20(a0)
   154fc:	e072                	sd	t3,0(sp)
   154fe:	f416                	sd	t0,40(sp)
   15500:	f01a                	sd	t1,32(sp)
   15502:	ec46                	sd	a7,24(sp)
   15504:	e832                	sd	a2,16(sp)
   15506:	e442                	sd	a6,8(sp)
   15508:	842a                	mv	s0,a0
   1550a:	133000ef          	jal	15e3c <__mcmp>
   1550e:	6e02                	ld	t3,0(sp)
   15510:	08054163          	bltz	a0,15592 <__quorem_D2A+0x16a>
   15514:	72a2                	ld	t0,40(sp)
   15516:	7302                	ld	t1,32(sp)
   15518:	68e2                	ld	a7,24(sp)
   1551a:	6642                	ld	a2,16(sp)
   1551c:	6822                	ld	a6,8(sp)
   1551e:	00128e1b          	addiw	t3,t0,1
   15522:	859a                	mv	a1,t1
   15524:	4501                	li	a0,0
   15526:	419c                	lw	a5,0(a1)
   15528:	4214                	lw	a3,0(a2)
   1552a:	0591                	addi	a1,a1,4
   1552c:	03079713          	slli	a4,a5,0x30
   15530:	03069e93          	slli	t4,a3,0x30
   15534:	030ede93          	srli	t4,t4,0x30
   15538:	9341                	srli	a4,a4,0x30
   1553a:	41d7073b          	subw	a4,a4,t4
   1553e:	9f09                	subw	a4,a4,a0
   15540:	02f71e93          	slli	t4,a4,0x2f
   15544:	03fed513          	srli	a0,t4,0x3f
   15548:	0106d69b          	srliw	a3,a3,0x10
   1554c:	96aa                	add	a3,a3,a0
   1554e:	0107d79b          	srliw	a5,a5,0x10
   15552:	9f95                	subw	a5,a5,a3
   15554:	1742                	slli	a4,a4,0x30
   15556:	0107969b          	slliw	a3,a5,0x10
   1555a:	9341                	srli	a4,a4,0x30
   1555c:	8f55                	or	a4,a4,a3
   1555e:	0611                	addi	a2,a2,4
   15560:	0107d79b          	srliw	a5,a5,0x10
   15564:	fee5ae23          	sw	a4,-4(a1)
   15568:	0017f513          	andi	a0,a5,1
   1556c:	fac8fde3          	bgeu	a7,a2,15526 <__quorem_D2A+0xfe>
   15570:	00281793          	slli	a5,a6,0x2
   15574:	979a                	add	a5,a5,t1
   15576:	4398                	lw	a4,0(a5)
   15578:	ef09                	bnez	a4,15592 <__quorem_D2A+0x16a>
   1557a:	17f1                	addi	a5,a5,-4
   1557c:	00f36663          	bltu	t1,a5,15588 <__quorem_D2A+0x160>
   15580:	a039                	j	1558e <__quorem_D2A+0x166>
   15582:	387d                	addiw	a6,a6,-1
   15584:	00f37563          	bgeu	t1,a5,1558e <__quorem_D2A+0x166>
   15588:	4398                	lw	a4,0(a5)
   1558a:	17f1                	addi	a5,a5,-4
   1558c:	db7d                	beqz	a4,15582 <__quorem_D2A+0x15a>
   1558e:	01042a23          	sw	a6,20(s0)
   15592:	60a6                	ld	ra,72(sp)
   15594:	6406                	ld	s0,64(sp)
   15596:	8572                	mv	a0,t3
   15598:	6161                	addi	sp,sp,80
   1559a:	8082                	ret
   1559c:	4501                	li	a0,0
   1559e:	8082                	ret
   155a0:	74e2                	ld	s1,56(sp)
   155a2:	bfa9                	j	154fc <__quorem_D2A+0xd4>

00000000000155a4 <__rshift_D2A>:
   155a4:	4954                	lw	a3,20(a0)
   155a6:	4055d31b          	sraiw	t1,a1,0x5
   155aa:	00d34763          	blt	t1,a3,155b8 <__rshift_D2A+0x14>
   155ae:	00052a23          	sw	zero,20(a0)
   155b2:	00052c23          	sw	zero,24(a0)
   155b6:	8082                	ret
   155b8:	01850e13          	addi	t3,a0,24
   155bc:	00269813          	slli	a6,a3,0x2
   155c0:	00231793          	slli	a5,t1,0x2
   155c4:	89fd                	andi	a1,a1,31
   155c6:	9872                	add	a6,a6,t3
   155c8:	97f2                	add	a5,a5,t3
   155ca:	c5a9                	beqz	a1,15614 <__rshift_D2A+0x70>
   155cc:	4390                	lw	a2,0(a5)
   155ce:	0791                	addi	a5,a5,4
   155d0:	00b6563b          	srlw	a2,a2,a1
   155d4:	0707f563          	bgeu	a5,a6,1563e <__rshift_D2A+0x9a>
   155d8:	02000e93          	li	t4,32
   155dc:	40be8ebb          	subw	t4,t4,a1
   155e0:	88f2                	mv	a7,t3
   155e2:	4398                	lw	a4,0(a5)
   155e4:	0891                	addi	a7,a7,4
   155e6:	0791                	addi	a5,a5,4
   155e8:	01d7173b          	sllw	a4,a4,t4
   155ec:	8f51                	or	a4,a4,a2
   155ee:	fee8ae23          	sw	a4,-4(a7)
   155f2:	ffc7a603          	lw	a2,-4(a5)
   155f6:	00b6563b          	srlw	a2,a2,a1
   155fa:	ff07e4e3          	bltu	a5,a6,155e2 <__rshift_D2A+0x3e>
   155fe:	406687b3          	sub	a5,a3,t1
   15602:	078a                	slli	a5,a5,0x2
   15604:	17e1                	addi	a5,a5,-8
   15606:	004e0713          	addi	a4,t3,4
   1560a:	97ba                	add	a5,a5,a4
   1560c:	c390                	sw	a2,0(a5)
   1560e:	c20d                	beqz	a2,15630 <__rshift_D2A+0x8c>
   15610:	0791                	addi	a5,a5,4
   15612:	a839                	j	15630 <__rshift_D2A+0x8c>
   15614:	8772                	mv	a4,t3
   15616:	f907fce3          	bgeu	a5,a6,155ae <__rshift_D2A+0xa>
   1561a:	4390                	lw	a2,0(a5)
   1561c:	0791                	addi	a5,a5,4
   1561e:	0711                	addi	a4,a4,4
   15620:	fec72e23          	sw	a2,-4(a4)
   15624:	ff07ebe3          	bltu	a5,a6,1561a <__rshift_D2A+0x76>
   15628:	406687b3          	sub	a5,a3,t1
   1562c:	078a                	slli	a5,a5,0x2
   1562e:	97f2                	add	a5,a5,t3
   15630:	41c787b3          	sub	a5,a5,t3
   15634:	8789                	srai	a5,a5,0x2
   15636:	2781                	sext.w	a5,a5
   15638:	c95c                	sw	a5,20(a0)
   1563a:	dfa5                	beqz	a5,155b2 <__rshift_D2A+0xe>
   1563c:	8082                	ret
   1563e:	cd10                	sw	a2,24(a0)
   15640:	87f2                	mv	a5,t3
   15642:	d635                	beqz	a2,155ae <__rshift_D2A+0xa>
   15644:	0791                	addi	a5,a5,4
   15646:	b7ed                	j	15630 <__rshift_D2A+0x8c>

0000000000015648 <__trailz_D2A>:
   15648:	4954                	lw	a3,20(a0)
   1564a:	0561                	addi	a0,a0,24
   1564c:	4781                	li	a5,0
   1564e:	068a                	slli	a3,a3,0x2
   15650:	96aa                	add	a3,a3,a0
   15652:	00d56863          	bltu	a0,a3,15662 <__trailz_D2A+0x1a>
   15656:	a03d                	j	15684 <__trailz_D2A+0x3c>
   15658:	0511                	addi	a0,a0,4
   1565a:	0207879b          	addiw	a5,a5,32
   1565e:	02d57363          	bgeu	a0,a3,15684 <__trailz_D2A+0x3c>
   15662:	4118                	lw	a4,0(a0)
   15664:	db75                	beqz	a4,15658 <__trailz_D2A+0x10>
   15666:	00d57f63          	bgeu	a0,a3,15684 <__trailz_D2A+0x3c>
   1566a:	7179                	addi	sp,sp,-48
   1566c:	0868                	addi	a0,sp,28
   1566e:	f406                	sd	ra,40(sp)
   15670:	e43e                	sd	a5,8(sp)
   15672:	ce3a                	sw	a4,28(sp)
   15674:	2ce000ef          	jal	15942 <__lo0bits>
   15678:	67a2                	ld	a5,8(sp)
   1567a:	70a2                	ld	ra,40(sp)
   1567c:	9fa9                	addw	a5,a5,a0
   1567e:	853e                	mv	a0,a5
   15680:	6145                	addi	sp,sp,48
   15682:	8082                	ret
   15684:	853e                	mv	a0,a5
   15686:	8082                	ret

0000000000015688 <_Balloc>:
   15688:	753c                	ld	a5,104(a0)
   1568a:	1101                	addi	sp,sp,-32
   1568c:	ec06                	sd	ra,24(sp)
   1568e:	872a                	mv	a4,a0
   15690:	86ae                	mv	a3,a1
   15692:	cf89                	beqz	a5,156ac <_Balloc+0x24>
   15694:	00369613          	slli	a2,a3,0x3
   15698:	97b2                	add	a5,a5,a2
   1569a:	6388                	ld	a0,0(a5)
   1569c:	c515                	beqz	a0,156c8 <_Balloc+0x40>
   1569e:	6118                	ld	a4,0(a0)
   156a0:	e398                	sd	a4,0(a5)
   156a2:	00053823          	sd	zero,16(a0)
   156a6:	60e2                	ld	ra,24(sp)
   156a8:	6105                	addi	sp,sp,32
   156aa:	8082                	ret
   156ac:	e42e                	sd	a1,8(sp)
   156ae:	04100613          	li	a2,65
   156b2:	45a1                	li	a1,8
   156b4:	e02a                	sd	a0,0(sp)
   156b6:	51c010ef          	jal	16bd2 <_calloc_r>
   156ba:	6702                	ld	a4,0(sp)
   156bc:	66a2                	ld	a3,8(sp)
   156be:	87aa                	mv	a5,a0
   156c0:	f728                	sd	a0,104(a4)
   156c2:	f969                	bnez	a0,15694 <_Balloc+0xc>
   156c4:	4501                	li	a0,0
   156c6:	b7c5                	j	156a6 <_Balloc+0x1e>
   156c8:	4785                	li	a5,1
   156ca:	00d797bb          	sllw	a5,a5,a3
   156ce:	00279613          	slli	a2,a5,0x2
   156d2:	853a                	mv	a0,a4
   156d4:	0671                	addi	a2,a2,28
   156d6:	4585                	li	a1,1
   156d8:	e436                	sd	a3,8(sp)
   156da:	e03e                	sd	a5,0(sp)
   156dc:	4f6010ef          	jal	16bd2 <_calloc_r>
   156e0:	d175                	beqz	a0,156c4 <_Balloc+0x3c>
   156e2:	66a2                	ld	a3,8(sp)
   156e4:	6782                	ld	a5,0(sp)
   156e6:	c514                	sw	a3,8(a0)
   156e8:	c55c                	sw	a5,12(a0)
   156ea:	bf65                	j	156a2 <_Balloc+0x1a>

00000000000156ec <_Bfree>:
   156ec:	c981                	beqz	a1,156fc <_Bfree+0x10>
   156ee:	4598                	lw	a4,8(a1)
   156f0:	753c                	ld	a5,104(a0)
   156f2:	070e                	slli	a4,a4,0x3
   156f4:	97ba                	add	a5,a5,a4
   156f6:	6398                	ld	a4,0(a5)
   156f8:	e198                	sd	a4,0(a1)
   156fa:	e38c                	sd	a1,0(a5)
   156fc:	8082                	ret

00000000000156fe <__multadd>:
   156fe:	0145a303          	lw	t1,20(a1)
   15702:	8e2e                	mv	t3,a1
   15704:	8736                	mv	a4,a3
   15706:	01858813          	addi	a6,a1,24
   1570a:	4881                	li	a7,0
   1570c:	00082783          	lw	a5,0(a6)
   15710:	0811                	addi	a6,a6,4
   15712:	2885                	addiw	a7,a7,1
   15714:	03079693          	slli	a3,a5,0x30
   15718:	92c1                	srli	a3,a3,0x30
   1571a:	02c686bb          	mulw	a3,a3,a2
   1571e:	0107d79b          	srliw	a5,a5,0x10
   15722:	02c787bb          	mulw	a5,a5,a2
   15726:	9eb9                	addw	a3,a3,a4
   15728:	0106d71b          	srliw	a4,a3,0x10
   1572c:	16c2                	slli	a3,a3,0x30
   1572e:	92c1                	srli	a3,a3,0x30
   15730:	9fb9                	addw	a5,a5,a4
   15732:	0107971b          	slliw	a4,a5,0x10
   15736:	9f35                	addw	a4,a4,a3
   15738:	fee82e23          	sw	a4,-4(a6)
   1573c:	0107d71b          	srliw	a4,a5,0x10
   15740:	fc68c6e3          	blt	a7,t1,1570c <__multadd+0xe>
   15744:	cf09                	beqz	a4,1575e <__multadd+0x60>
   15746:	00ce2783          	lw	a5,12(t3)
   1574a:	00f35c63          	bge	t1,a5,15762 <__multadd+0x64>
   1574e:	00231693          	slli	a3,t1,0x2
   15752:	96f2                	add	a3,a3,t3
   15754:	ce98                	sw	a4,24(a3)
   15756:	0013079b          	addiw	a5,t1,1 # fffffffffcc00001 <__BSS_END__+0xfffffffffcbe43f1>
   1575a:	00fe2a23          	sw	a5,20(t3)
   1575e:	8572                	mv	a0,t3
   15760:	8082                	ret
   15762:	008e2583          	lw	a1,8(t3)
   15766:	7179                	addi	sp,sp,-48
   15768:	f022                	sd	s0,32(sp)
   1576a:	2585                	addiw	a1,a1,1
   1576c:	e83a                	sd	a4,16(sp)
   1576e:	e41a                	sd	t1,8(sp)
   15770:	e072                	sd	t3,0(sp)
   15772:	f406                	sd	ra,40(sp)
   15774:	842a                	mv	s0,a0
   15776:	f13ff0ef          	jal	15688 <_Balloc>
   1577a:	6e02                	ld	t3,0(sp)
   1577c:	6322                	ld	t1,8(sp)
   1577e:	6742                	ld	a4,16(sp)
   15780:	86aa                	mv	a3,a0
   15782:	c929                	beqz	a0,157d4 <__multadd+0xd6>
   15784:	014e2603          	lw	a2,20(t3)
   15788:	010e0593          	addi	a1,t3,16
   1578c:	0541                	addi	a0,a0,16
   1578e:	060a                	slli	a2,a2,0x2
   15790:	0621                	addi	a2,a2,8
   15792:	ec3a                	sd	a4,24(sp)
   15794:	e81a                	sd	t1,16(sp)
   15796:	e472                	sd	t3,8(sp)
   15798:	e036                	sd	a3,0(sp)
   1579a:	e68fe0ef          	jal	13e02 <memcpy>
   1579e:	6e22                	ld	t3,8(sp)
   157a0:	743c                	ld	a5,104(s0)
   157a2:	6342                	ld	t1,16(sp)
   157a4:	008e2603          	lw	a2,8(t3)
   157a8:	6762                	ld	a4,24(sp)
   157aa:	00231693          	slli	a3,t1,0x2
   157ae:	060e                	slli	a2,a2,0x3
   157b0:	97b2                	add	a5,a5,a2
   157b2:	6390                	ld	a2,0(a5)
   157b4:	70a2                	ld	ra,40(sp)
   157b6:	7402                	ld	s0,32(sp)
   157b8:	00ce3023          	sd	a2,0(t3)
   157bc:	01c7b023          	sd	t3,0(a5)
   157c0:	6e02                	ld	t3,0(sp)
   157c2:	0013079b          	addiw	a5,t1,1
   157c6:	96f2                	add	a3,a3,t3
   157c8:	ce98                	sw	a4,24(a3)
   157ca:	00fe2a23          	sw	a5,20(t3)
   157ce:	8572                	mv	a0,t3
   157d0:	6145                	addi	sp,sp,48
   157d2:	8082                	ret
   157d4:	66e5                	lui	a3,0x19
   157d6:	6565                	lui	a0,0x19
   157d8:	2b068693          	addi	a3,a3,688 # 192b0 <__clzdi2+0xb6>
   157dc:	33050513          	addi	a0,a0,816 # 19330 <__clzdi2+0x136>
   157e0:	4601                	li	a2,0
   157e2:	0ba00593          	li	a1,186
   157e6:	3aa010ef          	jal	16b90 <__assert_func>

00000000000157ea <__s2b>:
   157ea:	7139                	addi	sp,sp,-64
   157ec:	f822                	sd	s0,48(sp)
   157ee:	f04a                	sd	s2,32(sp)
   157f0:	ec4e                	sd	s3,24(sp)
   157f2:	e852                	sd	s4,16(sp)
   157f4:	e456                	sd	s5,8(sp)
   157f6:	fc06                	sd	ra,56(sp)
   157f8:	47a5                	li	a5,9
   157fa:	89b6                	mv	s3,a3
   157fc:	8a32                	mv	s4,a2
   157fe:	892a                	mv	s2,a0
   15800:	8aae                	mv	s5,a1
   15802:	843a                	mv	s0,a4
   15804:	0ad7dd63          	bge	a5,a3,158be <__s2b+0xd4>
   15808:	26a1                	addiw	a3,a3,8
   1580a:	1682                	slli	a3,a3,0x20
   1580c:	38e397b7          	lui	a5,0x38e39
   15810:	e3978793          	addi	a5,a5,-455 # 38e38e39 <__BSS_END__+0x38e1d229>
   15814:	9281                	srli	a3,a3,0x20
   15816:	02f686b3          	mul	a3,a3,a5
   1581a:	4581                	li	a1,0
   1581c:	4785                	li	a5,1
   1581e:	9285                	srli	a3,a3,0x21
   15820:	0017979b          	slliw	a5,a5,0x1
   15824:	2585                	addiw	a1,a1,1
   15826:	fed7cde3          	blt	a5,a3,15820 <__s2b+0x36>
   1582a:	854a                	mv	a0,s2
   1582c:	e5dff0ef          	jal	15688 <_Balloc>
   15830:	f426                	sd	s1,40(sp)
   15832:	85aa                	mv	a1,a0
   15834:	c559                	beqz	a0,158c2 <__s2b+0xd8>
   15836:	4785                	li	a5,1
   15838:	c95c                	sw	a5,20(a0)
   1583a:	cd00                	sw	s0,24(a0)
   1583c:	47a5                	li	a5,9
   1583e:	0747dc63          	bge	a5,s4,158b6 <__s2b+0xcc>
   15842:	ff6a071b          	addiw	a4,s4,-10
   15846:	020a1793          	slli	a5,s4,0x20
   1584a:	009a8413          	addi	s0,s5,9
   1584e:	e05a                	sd	s6,0(sp)
   15850:	9381                	srli	a5,a5,0x20
   15852:	02071b13          	slli	s6,a4,0x20
   15856:	020b5b13          	srli	s6,s6,0x20
   1585a:	9abe                	add	s5,s5,a5
   1585c:	84a2                	mv	s1,s0
   1585e:	0004c683          	lbu	a3,0(s1)
   15862:	4629                	li	a2,10
   15864:	854a                	mv	a0,s2
   15866:	fd06869b          	addiw	a3,a3,-48
   1586a:	0485                	addi	s1,s1,1
   1586c:	e93ff0ef          	jal	156fe <__multadd>
   15870:	85aa                	mv	a1,a0
   15872:	ff5496e3          	bne	s1,s5,1585e <__s2b+0x74>
   15876:	945a                	add	s0,s0,s6
   15878:	6b02                	ld	s6,0(sp)
   1587a:	0409                	addi	s0,s0,2
   1587c:	033a5363          	bge	s4,s3,158a2 <__s2b+0xb8>
   15880:	414984bb          	subw	s1,s3,s4
   15884:	1482                	slli	s1,s1,0x20
   15886:	9081                	srli	s1,s1,0x20
   15888:	94a2                	add	s1,s1,s0
   1588a:	00044683          	lbu	a3,0(s0)
   1588e:	4629                	li	a2,10
   15890:	854a                	mv	a0,s2
   15892:	fd06869b          	addiw	a3,a3,-48
   15896:	0405                	addi	s0,s0,1
   15898:	e67ff0ef          	jal	156fe <__multadd>
   1589c:	85aa                	mv	a1,a0
   1589e:	fe9416e3          	bne	s0,s1,1588a <__s2b+0xa0>
   158a2:	70e2                	ld	ra,56(sp)
   158a4:	7442                	ld	s0,48(sp)
   158a6:	74a2                	ld	s1,40(sp)
   158a8:	7902                	ld	s2,32(sp)
   158aa:	69e2                	ld	s3,24(sp)
   158ac:	6a42                	ld	s4,16(sp)
   158ae:	6aa2                	ld	s5,8(sp)
   158b0:	852e                	mv	a0,a1
   158b2:	6121                	addi	sp,sp,64
   158b4:	8082                	ret
   158b6:	00aa8413          	addi	s0,s5,10
   158ba:	8a3e                	mv	s4,a5
   158bc:	b7c1                	j	1587c <__s2b+0x92>
   158be:	4581                	li	a1,0
   158c0:	b7ad                	j	1582a <__s2b+0x40>
   158c2:	66e5                	lui	a3,0x19
   158c4:	6565                	lui	a0,0x19
   158c6:	2b068693          	addi	a3,a3,688 # 192b0 <__clzdi2+0xb6>
   158ca:	33050513          	addi	a0,a0,816 # 19330 <__clzdi2+0x136>
   158ce:	4601                	li	a2,0
   158d0:	0d300593          	li	a1,211
   158d4:	e05a                	sd	s6,0(sp)
   158d6:	2ba010ef          	jal	16b90 <__assert_func>

00000000000158da <__hi0bits>:
   158da:	87aa                	mv	a5,a0
   158dc:	6741                	lui	a4,0x10
   158de:	4501                	li	a0,0
   158e0:	00e7f563          	bgeu	a5,a4,158ea <__hi0bits+0x10>
   158e4:	0107979b          	slliw	a5,a5,0x10
   158e8:	4541                	li	a0,16
   158ea:	01000737          	lui	a4,0x1000
   158ee:	00e7f563          	bgeu	a5,a4,158f8 <__hi0bits+0x1e>
   158f2:	2521                	addiw	a0,a0,8
   158f4:	0087979b          	slliw	a5,a5,0x8
   158f8:	10000737          	lui	a4,0x10000
   158fc:	00e7ec63          	bltu	a5,a4,15914 <__hi0bits+0x3a>
   15900:	40000737          	lui	a4,0x40000
   15904:	02e7f863          	bgeu	a5,a4,15934 <__hi0bits+0x5a>
   15908:	02279713          	slli	a4,a5,0x22
   1590c:	02074963          	bltz	a4,1593e <__hi0bits+0x64>
   15910:	250d                	addiw	a0,a0,3
   15912:	8082                	ret
   15914:	0047971b          	slliw	a4,a5,0x4
   15918:	400006b7          	lui	a3,0x40000
   1591c:	2511                	addiw	a0,a0,4
   1591e:	00d77c63          	bgeu	a4,a3,15936 <__hi0bits+0x5c>
   15922:	0067979b          	slliw	a5,a5,0x6
   15926:	0007cc63          	bltz	a5,1593e <__hi0bits+0x64>
   1592a:	8ff5                	and	a5,a5,a3
   1592c:	f3f5                	bnez	a5,15910 <__hi0bits+0x36>
   1592e:	02000513          	li	a0,32
   15932:	8082                	ret
   15934:	873e                	mv	a4,a5
   15936:	fe074ee3          	bltz	a4,15932 <__hi0bits+0x58>
   1593a:	2505                	addiw	a0,a0,1
   1593c:	8082                	ret
   1593e:	2509                	addiw	a0,a0,2
   15940:	8082                	ret

0000000000015942 <__lo0bits>:
   15942:	411c                	lw	a5,0(a0)
   15944:	0077f713          	andi	a4,a5,7
   15948:	86be                	mv	a3,a5
   1594a:	cf11                	beqz	a4,15966 <__lo0bits+0x24>
   1594c:	0017f693          	andi	a3,a5,1
   15950:	4701                	li	a4,0
   15952:	ea81                	bnez	a3,15962 <__lo0bits+0x20>
   15954:	0027f713          	andi	a4,a5,2
   15958:	cf3d                	beqz	a4,159d6 <__lo0bits+0x94>
   1595a:	0017d79b          	srliw	a5,a5,0x1
   1595e:	c11c                	sw	a5,0(a0)
   15960:	4705                	li	a4,1
   15962:	853a                	mv	a0,a4
   15964:	8082                	ret
   15966:	03079713          	slli	a4,a5,0x30
   1596a:	9341                	srli	a4,a4,0x30
   1596c:	eb0d                	bnez	a4,1599e <__lo0bits+0x5c>
   1596e:	0107d79b          	srliw	a5,a5,0x10
   15972:	0ff7f693          	zext.b	a3,a5
   15976:	4741                	li	a4,16
   15978:	e681                	bnez	a3,15980 <__lo0bits+0x3e>
   1597a:	4761                	li	a4,24
   1597c:	0087d79b          	srliw	a5,a5,0x8
   15980:	00f7f693          	andi	a3,a5,15
   15984:	c2a9                	beqz	a3,159c6 <__lo0bits+0x84>
   15986:	0037f693          	andi	a3,a5,3
   1598a:	c68d                	beqz	a3,159b4 <__lo0bits+0x72>
   1598c:	0017f693          	andi	a3,a5,1
   15990:	e681                	bnez	a3,15998 <__lo0bits+0x56>
   15992:	2705                	addiw	a4,a4,1 # 40000001 <__BSS_END__+0x3ffe43f1>
   15994:	0017d79b          	srliw	a5,a5,0x1
   15998:	c11c                	sw	a5,0(a0)
   1599a:	853a                	mv	a0,a4
   1599c:	8082                	ret
   1599e:	0ff7f713          	zext.b	a4,a5
   159a2:	c715                	beqz	a4,159ce <__lo0bits+0x8c>
   159a4:	8abd                	andi	a3,a3,15
   159a6:	e6a1                	bnez	a3,159ee <__lo0bits+0xac>
   159a8:	4711                	li	a4,4
   159aa:	0047d79b          	srliw	a5,a5,0x4
   159ae:	0037f693          	andi	a3,a5,3
   159b2:	fee9                	bnez	a3,1598c <__lo0bits+0x4a>
   159b4:	0027d69b          	srliw	a3,a5,0x2
   159b8:	0016f613          	andi	a2,a3,1
   159bc:	c21d                	beqz	a2,159e2 <__lo0bits+0xa0>
   159be:	87b6                	mv	a5,a3
   159c0:	2709                	addiw	a4,a4,2
   159c2:	c11c                	sw	a5,0(a0)
   159c4:	bfd9                	j	1599a <__lo0bits+0x58>
   159c6:	2711                	addiw	a4,a4,4
   159c8:	0047d79b          	srliw	a5,a5,0x4
   159cc:	b7cd                	j	159ae <__lo0bits+0x6c>
   159ce:	4721                	li	a4,8
   159d0:	0087d79b          	srliw	a5,a5,0x8
   159d4:	b775                	j	15980 <__lo0bits+0x3e>
   159d6:	0027d79b          	srliw	a5,a5,0x2
   159da:	4709                	li	a4,2
   159dc:	c11c                	sw	a5,0(a0)
   159de:	853a                	mv	a0,a4
   159e0:	8082                	ret
   159e2:	0037d79b          	srliw	a5,a5,0x3
   159e6:	eb89                	bnez	a5,159f8 <__lo0bits+0xb6>
   159e8:	02000713          	li	a4,32
   159ec:	bf9d                	j	15962 <__lo0bits+0x20>
   159ee:	0037d79b          	srliw	a5,a5,0x3
   159f2:	470d                	li	a4,3
   159f4:	c11c                	sw	a5,0(a0)
   159f6:	b755                	j	1599a <__lo0bits+0x58>
   159f8:	270d                	addiw	a4,a4,3
   159fa:	c11c                	sw	a5,0(a0)
   159fc:	bf79                	j	1599a <__lo0bits+0x58>

00000000000159fe <__i2b>:
   159fe:	753c                	ld	a5,104(a0)
   15a00:	1101                	addi	sp,sp,-32
   15a02:	ec06                	sd	ra,24(sp)
   15a04:	872a                	mv	a4,a0
   15a06:	86ae                	mv	a3,a1
   15a08:	cf81                	beqz	a5,15a20 <__i2b+0x22>
   15a0a:	6788                	ld	a0,8(a5)
   15a0c:	c129                	beqz	a0,15a4e <__i2b+0x50>
   15a0e:	6118                	ld	a4,0(a0)
   15a10:	60e2                	ld	ra,24(sp)
   15a12:	e798                	sd	a4,8(a5)
   15a14:	4785                	li	a5,1
   15a16:	1782                	slli	a5,a5,0x20
   15a18:	cd14                	sw	a3,24(a0)
   15a1a:	e91c                	sd	a5,16(a0)
   15a1c:	6105                	addi	sp,sp,32
   15a1e:	8082                	ret
   15a20:	e42e                	sd	a1,8(sp)
   15a22:	04100613          	li	a2,65
   15a26:	45a1                	li	a1,8
   15a28:	e02a                	sd	a0,0(sp)
   15a2a:	1a8010ef          	jal	16bd2 <_calloc_r>
   15a2e:	6702                	ld	a4,0(sp)
   15a30:	66a2                	ld	a3,8(sp)
   15a32:	87aa                	mv	a5,a0
   15a34:	f728                	sd	a0,104(a4)
   15a36:	f971                	bnez	a0,15a0a <__i2b+0xc>
   15a38:	66e5                	lui	a3,0x19
   15a3a:	6565                	lui	a0,0x19
   15a3c:	2b068693          	addi	a3,a3,688 # 192b0 <__clzdi2+0xb6>
   15a40:	33050513          	addi	a0,a0,816 # 19330 <__clzdi2+0x136>
   15a44:	4601                	li	a2,0
   15a46:	14500593          	li	a1,325
   15a4a:	146010ef          	jal	16b90 <__assert_func>
   15a4e:	853a                	mv	a0,a4
   15a50:	02400613          	li	a2,36
   15a54:	4585                	li	a1,1
   15a56:	e036                	sd	a3,0(sp)
   15a58:	17a010ef          	jal	16bd2 <_calloc_r>
   15a5c:	dd71                	beqz	a0,15a38 <__i2b+0x3a>
   15a5e:	4785                	li	a5,1
   15a60:	1786                	slli	a5,a5,0x21
   15a62:	6682                	ld	a3,0(sp)
   15a64:	0785                	addi	a5,a5,1
   15a66:	60e2                	ld	ra,24(sp)
   15a68:	e51c                	sd	a5,8(a0)
   15a6a:	4785                	li	a5,1
   15a6c:	1782                	slli	a5,a5,0x20
   15a6e:	cd14                	sw	a3,24(a0)
   15a70:	e91c                	sd	a5,16(a0)
   15a72:	6105                	addi	sp,sp,32
   15a74:	8082                	ret

0000000000015a76 <__multiply>:
   15a76:	7139                	addi	sp,sp,-64
   15a78:	ec4e                	sd	s3,24(sp)
   15a7a:	e852                	sd	s4,16(sp)
   15a7c:	0145a983          	lw	s3,20(a1)
   15a80:	01462a03          	lw	s4,20(a2)
   15a84:	f04a                	sd	s2,32(sp)
   15a86:	e456                	sd	s5,8(sp)
   15a88:	fc06                	sd	ra,56(sp)
   15a8a:	f822                	sd	s0,48(sp)
   15a8c:	f426                	sd	s1,40(sp)
   15a8e:	8aae                	mv	s5,a1
   15a90:	8932                	mv	s2,a2
   15a92:	0149c763          	blt	s3,s4,15aa0 <__multiply+0x2a>
   15a96:	8752                	mv	a4,s4
   15a98:	892e                	mv	s2,a1
   15a9a:	8a4e                	mv	s4,s3
   15a9c:	8ab2                	mv	s5,a2
   15a9e:	89ba                	mv	s3,a4
   15aa0:	00c92783          	lw	a5,12(s2)
   15aa4:	013a04bb          	addw	s1,s4,s3
   15aa8:	00892583          	lw	a1,8(s2)
   15aac:	8426                	mv	s0,s1
   15aae:	0097d363          	bge	a5,s1,15ab4 <__multiply+0x3e>
   15ab2:	2585                	addiw	a1,a1,1
   15ab4:	bd5ff0ef          	jal	15688 <_Balloc>
   15ab8:	16050a63          	beqz	a0,15c2c <__multiply+0x1b6>
   15abc:	01850893          	addi	a7,a0,24
   15ac0:	00249813          	slli	a6,s1,0x2
   15ac4:	9846                	add	a6,a6,a7
   15ac6:	87c6                	mv	a5,a7
   15ac8:	0108f763          	bgeu	a7,a6,15ad6 <__multiply+0x60>
   15acc:	0007a023          	sw	zero,0(a5)
   15ad0:	0791                	addi	a5,a5,4
   15ad2:	ff07ede3          	bltu	a5,a6,15acc <__multiply+0x56>
   15ad6:	018a8593          	addi	a1,s5,24
   15ada:	00299313          	slli	t1,s3,0x2
   15ade:	932e                	add	t1,t1,a1
   15ae0:	1265f363          	bgeu	a1,t1,15c06 <__multiply+0x190>
   15ae4:	002a1693          	slli	a3,s4,0x2
   15ae8:	01890e93          	addi	t4,s2,24
   15aec:	96f6                	add	a3,a3,t4
   15aee:	01990e13          	addi	t3,s2,25
   15af2:	01c6be33          	sltu	t3,a3,t3
   15af6:	41268633          	sub	a2,a3,s2
   15afa:	001e4e13          	xori	t3,t3,1
   15afe:	161d                	addi	a2,a2,-25
   15b00:	a809                	j	15b12 <__multiply+0x9c>
   15b02:	0102d29b          	srliw	t0,t0,0x10
   15b06:	08029863          	bnez	t0,15b96 <__multiply+0x120>
   15b0a:	0591                	addi	a1,a1,4
   15b0c:	0891                	addi	a7,a7,4
   15b0e:	0e65fc63          	bgeu	a1,t1,15c06 <__multiply+0x190>
   15b12:	0005a283          	lw	t0,0(a1)
   15b16:	03029913          	slli	s2,t0,0x30
   15b1a:	03095913          	srli	s2,s2,0x30
   15b1e:	fe0902e3          	beqz	s2,15b02 <__multiply+0x8c>
   15b22:	83c6                	mv	t2,a7
   15b24:	82f6                	mv	t0,t4
   15b26:	4701                	li	a4,0
   15b28:	0002af83          	lw	t6,0(t0)
   15b2c:	0003af03          	lw	t5,0(t2)
   15b30:	0391                	addi	t2,t2,4
   15b32:	030f9793          	slli	a5,t6,0x30
   15b36:	93c1                	srli	a5,a5,0x30
   15b38:	032787bb          	mulw	a5,a5,s2
   15b3c:	010fdf9b          	srliw	t6,t6,0x10
   15b40:	030f1993          	slli	s3,t5,0x30
   15b44:	0309d993          	srli	s3,s3,0x30
   15b48:	010f5f1b          	srliw	t5,t5,0x10
   15b4c:	0291                	addi	t0,t0,4
   15b4e:	032f8fbb          	mulw	t6,t6,s2
   15b52:	013787bb          	addw	a5,a5,s3
   15b56:	9fb9                	addw	a5,a5,a4
   15b58:	0107d71b          	srliw	a4,a5,0x10
   15b5c:	17c2                	slli	a5,a5,0x30
   15b5e:	93c1                	srli	a5,a5,0x30
   15b60:	01ff0f3b          	addw	t5,t5,t6
   15b64:	01e7073b          	addw	a4,a4,t5
   15b68:	01071f1b          	slliw	t5,a4,0x10
   15b6c:	00ff67b3          	or	a5,t5,a5
   15b70:	fef3ae23          	sw	a5,-4(t2)
   15b74:	0107571b          	srliw	a4,a4,0x10
   15b78:	fad2e8e3          	bltu	t0,a3,15b28 <__multiply+0xb2>
   15b7c:	4781                	li	a5,0
   15b7e:	000e0463          	beqz	t3,15b86 <__multiply+0x110>
   15b82:	ffc67793          	andi	a5,a2,-4
   15b86:	97c6                	add	a5,a5,a7
   15b88:	c3d8                	sw	a4,4(a5)
   15b8a:	0005a283          	lw	t0,0(a1)
   15b8e:	0102d29b          	srliw	t0,t0,0x10
   15b92:	f6028ce3          	beqz	t0,15b0a <__multiply+0x94>
   15b96:	0008a783          	lw	a5,0(a7)
   15b9a:	83c6                	mv	t2,a7
   15b9c:	8ff6                	mv	t6,t4
   15b9e:	893e                	mv	s2,a5
   15ba0:	4981                	li	s3,0
   15ba2:	000fdf03          	lhu	t5,0(t6)
   15ba6:	0109571b          	srliw	a4,s2,0x10
   15baa:	17c2                	slli	a5,a5,0x30
   15bac:	025f0f3b          	mulw	t5,t5,t0
   15bb0:	93c1                	srli	a5,a5,0x30
   15bb2:	0f91                	addi	t6,t6,4
   15bb4:	0043a903          	lw	s2,4(t2)
   15bb8:	0391                	addi	t2,t2,4
   15bba:	03091a13          	slli	s4,s2,0x30
   15bbe:	030a5a13          	srli	s4,s4,0x30
   15bc2:	013f0f3b          	addw	t5,t5,s3
   15bc6:	01e7073b          	addw	a4,a4,t5
   15bca:	01071f1b          	slliw	t5,a4,0x10
   15bce:	00ff67b3          	or	a5,t5,a5
   15bd2:	fef3ae23          	sw	a5,-4(t2)
   15bd6:	ffefd783          	lhu	a5,-2(t6)
   15bda:	0107571b          	srliw	a4,a4,0x10
   15bde:	025787bb          	mulw	a5,a5,t0
   15be2:	014787bb          	addw	a5,a5,s4
   15be6:	9fb9                	addw	a5,a5,a4
   15be8:	0107d99b          	srliw	s3,a5,0x10
   15bec:	fadfebe3          	bltu	t6,a3,15ba2 <__multiply+0x12c>
   15bf0:	4701                	li	a4,0
   15bf2:	000e0463          	beqz	t3,15bfa <__multiply+0x184>
   15bf6:	ffc67713          	andi	a4,a2,-4
   15bfa:	9746                	add	a4,a4,a7
   15bfc:	c35c                	sw	a5,4(a4)
   15bfe:	0591                	addi	a1,a1,4
   15c00:	0891                	addi	a7,a7,4
   15c02:	f065e8e3          	bltu	a1,t1,15b12 <__multiply+0x9c>
   15c06:	00904563          	bgtz	s1,15c10 <__multiply+0x19a>
   15c0a:	a039                	j	15c18 <__multiply+0x1a2>
   15c0c:	347d                	addiw	s0,s0,-1
   15c0e:	c409                	beqz	s0,15c18 <__multiply+0x1a2>
   15c10:	ffc82783          	lw	a5,-4(a6)
   15c14:	1871                	addi	a6,a6,-4
   15c16:	dbfd                	beqz	a5,15c0c <__multiply+0x196>
   15c18:	70e2                	ld	ra,56(sp)
   15c1a:	c940                	sw	s0,20(a0)
   15c1c:	7442                	ld	s0,48(sp)
   15c1e:	74a2                	ld	s1,40(sp)
   15c20:	7902                	ld	s2,32(sp)
   15c22:	69e2                	ld	s3,24(sp)
   15c24:	6a42                	ld	s4,16(sp)
   15c26:	6aa2                	ld	s5,8(sp)
   15c28:	6121                	addi	sp,sp,64
   15c2a:	8082                	ret
   15c2c:	66e5                	lui	a3,0x19
   15c2e:	6565                	lui	a0,0x19
   15c30:	2b068693          	addi	a3,a3,688 # 192b0 <__clzdi2+0xb6>
   15c34:	33050513          	addi	a0,a0,816 # 19330 <__clzdi2+0x136>
   15c38:	4601                	li	a2,0
   15c3a:	16200593          	li	a1,354
   15c3e:	753000ef          	jal	16b90 <__assert_func>

0000000000015c42 <__pow5mult>:
   15c42:	7179                	addi	sp,sp,-48
   15c44:	f022                	sd	s0,32(sp)
   15c46:	e84a                	sd	s2,16(sp)
   15c48:	e44e                	sd	s3,8(sp)
   15c4a:	f406                	sd	ra,40(sp)
   15c4c:	00367793          	andi	a5,a2,3
   15c50:	8432                	mv	s0,a2
   15c52:	89aa                	mv	s3,a0
   15c54:	892e                	mv	s2,a1
   15c56:	e3d9                	bnez	a5,15cdc <__pow5mult+0x9a>
   15c58:	4024541b          	sraiw	s0,s0,0x2
   15c5c:	c82d                	beqz	s0,15cce <__pow5mult+0x8c>
   15c5e:	ec26                	sd	s1,24(sp)
   15c60:	0609b483          	ld	s1,96(s3)
   15c64:	c8c1                	beqz	s1,15cf4 <__pow5mult+0xb2>
   15c66:	00147793          	andi	a5,s0,1
   15c6a:	4014541b          	sraiw	s0,s0,0x1
   15c6e:	eb89                	bnez	a5,15c80 <__pow5mult+0x3e>
   15c70:	6088                	ld	a0,0(s1)
   15c72:	cd0d                	beqz	a0,15cac <__pow5mult+0x6a>
   15c74:	84aa                	mv	s1,a0
   15c76:	00147793          	andi	a5,s0,1
   15c7a:	4014541b          	sraiw	s0,s0,0x1
   15c7e:	dbed                	beqz	a5,15c70 <__pow5mult+0x2e>
   15c80:	8626                	mv	a2,s1
   15c82:	85ca                	mv	a1,s2
   15c84:	854e                	mv	a0,s3
   15c86:	df1ff0ef          	jal	15a76 <__multiply>
   15c8a:	00090d63          	beqz	s2,15ca4 <__pow5mult+0x62>
   15c8e:	00892703          	lw	a4,8(s2)
   15c92:	0689b783          	ld	a5,104(s3)
   15c96:	070e                	slli	a4,a4,0x3
   15c98:	97ba                	add	a5,a5,a4
   15c9a:	6398                	ld	a4,0(a5)
   15c9c:	00e93023          	sd	a4,0(s2)
   15ca0:	0127b023          	sd	s2,0(a5)
   15ca4:	cc11                	beqz	s0,15cc0 <__pow5mult+0x7e>
   15ca6:	892a                	mv	s2,a0
   15ca8:	6088                	ld	a0,0(s1)
   15caa:	f569                	bnez	a0,15c74 <__pow5mult+0x32>
   15cac:	8626                	mv	a2,s1
   15cae:	85a6                	mv	a1,s1
   15cb0:	854e                	mv	a0,s3
   15cb2:	dc5ff0ef          	jal	15a76 <__multiply>
   15cb6:	e088                	sd	a0,0(s1)
   15cb8:	00053023          	sd	zero,0(a0)
   15cbc:	84aa                	mv	s1,a0
   15cbe:	bf65                	j	15c76 <__pow5mult+0x34>
   15cc0:	70a2                	ld	ra,40(sp)
   15cc2:	7402                	ld	s0,32(sp)
   15cc4:	64e2                	ld	s1,24(sp)
   15cc6:	6942                	ld	s2,16(sp)
   15cc8:	69a2                	ld	s3,8(sp)
   15cca:	6145                	addi	sp,sp,48
   15ccc:	8082                	ret
   15cce:	70a2                	ld	ra,40(sp)
   15cd0:	7402                	ld	s0,32(sp)
   15cd2:	69a2                	ld	s3,8(sp)
   15cd4:	854a                	mv	a0,s2
   15cd6:	6942                	ld	s2,16(sp)
   15cd8:	6145                	addi	sp,sp,48
   15cda:	8082                	ret
   15cdc:	37fd                	addiw	a5,a5,-1
   15cde:	6765                	lui	a4,0x19
   15ce0:	5b870713          	addi	a4,a4,1464 # 195b8 <p05.0>
   15ce4:	078a                	slli	a5,a5,0x2
   15ce6:	97ba                	add	a5,a5,a4
   15ce8:	4390                	lw	a2,0(a5)
   15cea:	4681                	li	a3,0
   15cec:	a13ff0ef          	jal	156fe <__multadd>
   15cf0:	892a                	mv	s2,a0
   15cf2:	b79d                	j	15c58 <__pow5mult+0x16>
   15cf4:	4585                	li	a1,1
   15cf6:	854e                	mv	a0,s3
   15cf8:	991ff0ef          	jal	15688 <_Balloc>
   15cfc:	84aa                	mv	s1,a0
   15cfe:	c919                	beqz	a0,15d14 <__pow5mult+0xd2>
   15d00:	27100713          	li	a4,625
   15d04:	4785                	li	a5,1
   15d06:	cd18                	sw	a4,24(a0)
   15d08:	c95c                	sw	a5,20(a0)
   15d0a:	06a9b023          	sd	a0,96(s3)
   15d0e:	00053023          	sd	zero,0(a0)
   15d12:	bf91                	j	15c66 <__pow5mult+0x24>
   15d14:	66e5                	lui	a3,0x19
   15d16:	6565                	lui	a0,0x19
   15d18:	2b068693          	addi	a3,a3,688 # 192b0 <__clzdi2+0xb6>
   15d1c:	33050513          	addi	a0,a0,816 # 19330 <__clzdi2+0x136>
   15d20:	4601                	li	a2,0
   15d22:	14500593          	li	a1,325
   15d26:	66b000ef          	jal	16b90 <__assert_func>

0000000000015d2a <__lshift>:
   15d2a:	7139                	addi	sp,sp,-64
   15d2c:	f426                	sd	s1,40(sp)
   15d2e:	49c4                	lw	s1,20(a1)
   15d30:	45dc                	lw	a5,12(a1)
   15d32:	e852                	sd	s4,16(sp)
   15d34:	40565a1b          	sraiw	s4,a2,0x5
   15d38:	014484bb          	addw	s1,s1,s4
   15d3c:	f822                	sd	s0,48(sp)
   15d3e:	f04a                	sd	s2,32(sp)
   15d40:	ec4e                	sd	s3,24(sp)
   15d42:	0014871b          	addiw	a4,s1,1
   15d46:	fc06                	sd	ra,56(sp)
   15d48:	842e                	mv	s0,a1
   15d4a:	892a                	mv	s2,a0
   15d4c:	458c                	lw	a1,8(a1)
   15d4e:	89ba                	mv	s3,a4
   15d50:	00e7d763          	bge	a5,a4,15d5e <__lshift+0x34>
   15d54:	0017979b          	slliw	a5,a5,0x1
   15d58:	2585                	addiw	a1,a1,1
   15d5a:	fee7cde3          	blt	a5,a4,15d54 <__lshift+0x2a>
   15d5e:	854a                	mv	a0,s2
   15d60:	e432                	sd	a2,8(sp)
   15d62:	927ff0ef          	jal	15688 <_Balloc>
   15d66:	6622                	ld	a2,8(sp)
   15d68:	cd5d                	beqz	a0,15e26 <__lshift+0xfc>
   15d6a:	01850593          	addi	a1,a0,24
   15d6e:	03405163          	blez	s4,15d90 <__lshift+0x66>
   15d72:	006a071b          	addiw	a4,s4,6
   15d76:	070a                	slli	a4,a4,0x2
   15d78:	972a                	add	a4,a4,a0
   15d7a:	87ae                	mv	a5,a1
   15d7c:	0791                	addi	a5,a5,4
   15d7e:	fe07ae23          	sw	zero,-4(a5)
   15d82:	fef71de3          	bne	a4,a5,15d7c <__lshift+0x52>
   15d86:	020a1793          	slli	a5,s4,0x20
   15d8a:	01e7da13          	srli	s4,a5,0x1e
   15d8e:	95d2                	add	a1,a1,s4
   15d90:	01442803          	lw	a6,20(s0)
   15d94:	01840793          	addi	a5,s0,24
   15d98:	8a7d                	andi	a2,a2,31
   15d9a:	080a                	slli	a6,a6,0x2
   15d9c:	983e                	add	a6,a6,a5
   15d9e:	c62d                	beqz	a2,15e08 <__lshift+0xde>
   15da0:	02000313          	li	t1,32
   15da4:	40c3033b          	subw	t1,t1,a2
   15da8:	88ae                	mv	a7,a1
   15daa:	4681                	li	a3,0
   15dac:	4398                	lw	a4,0(a5)
   15dae:	0891                	addi	a7,a7,4
   15db0:	0791                	addi	a5,a5,4
   15db2:	00c7173b          	sllw	a4,a4,a2
   15db6:	8f55                	or	a4,a4,a3
   15db8:	fee8ae23          	sw	a4,-4(a7)
   15dbc:	ffc7a683          	lw	a3,-4(a5)
   15dc0:	0066d6bb          	srlw	a3,a3,t1
   15dc4:	ff07e4e3          	bltu	a5,a6,15dac <__lshift+0x82>
   15dc8:	01940793          	addi	a5,s0,25
   15dcc:	4701                	li	a4,0
   15dce:	00f86763          	bltu	a6,a5,15ddc <__lshift+0xb2>
   15dd2:	40880833          	sub	a6,a6,s0
   15dd6:	181d                	addi	a6,a6,-25
   15dd8:	ffc87713          	andi	a4,a6,-4
   15ddc:	95ba                	add	a1,a1,a4
   15dde:	c1d4                	sw	a3,4(a1)
   15de0:	e291                	bnez	a3,15de4 <__lshift+0xba>
   15de2:	89a6                	mv	s3,s1
   15de4:	4418                	lw	a4,8(s0)
   15de6:	06893783          	ld	a5,104(s2)
   15dea:	01352a23          	sw	s3,20(a0)
   15dee:	070e                	slli	a4,a4,0x3
   15df0:	97ba                	add	a5,a5,a4
   15df2:	6398                	ld	a4,0(a5)
   15df4:	70e2                	ld	ra,56(sp)
   15df6:	74a2                	ld	s1,40(sp)
   15df8:	e018                	sd	a4,0(s0)
   15dfa:	e380                	sd	s0,0(a5)
   15dfc:	7442                	ld	s0,48(sp)
   15dfe:	7902                	ld	s2,32(sp)
   15e00:	69e2                	ld	s3,24(sp)
   15e02:	6a42                	ld	s4,16(sp)
   15e04:	6121                	addi	sp,sp,64
   15e06:	8082                	ret
   15e08:	4398                	lw	a4,0(a5)
   15e0a:	0791                	addi	a5,a5,4
   15e0c:	0591                	addi	a1,a1,4
   15e0e:	fee5ae23          	sw	a4,-4(a1)
   15e12:	fd07f8e3          	bgeu	a5,a6,15de2 <__lshift+0xb8>
   15e16:	4398                	lw	a4,0(a5)
   15e18:	0791                	addi	a5,a5,4
   15e1a:	0591                	addi	a1,a1,4
   15e1c:	fee5ae23          	sw	a4,-4(a1)
   15e20:	ff07e4e3          	bltu	a5,a6,15e08 <__lshift+0xde>
   15e24:	bf7d                	j	15de2 <__lshift+0xb8>
   15e26:	66e5                	lui	a3,0x19
   15e28:	6565                	lui	a0,0x19
   15e2a:	2b068693          	addi	a3,a3,688 # 192b0 <__clzdi2+0xb6>
   15e2e:	33050513          	addi	a0,a0,816 # 19330 <__clzdi2+0x136>
   15e32:	4601                	li	a2,0
   15e34:	1de00593          	li	a1,478
   15e38:	559000ef          	jal	16b90 <__assert_func>

0000000000015e3c <__mcmp>:
   15e3c:	49dc                	lw	a5,20(a1)
   15e3e:	862a                	mv	a2,a0
   15e40:	4948                	lw	a0,20(a0)
   15e42:	9d1d                	subw	a0,a0,a5
   15e44:	e515                	bnez	a0,15e70 <__mcmp+0x34>
   15e46:	078a                	slli	a5,a5,0x2
   15e48:	0661                	addi	a2,a2,24
   15e4a:	05e1                	addi	a1,a1,24
   15e4c:	95be                	add	a1,a1,a5
   15e4e:	97b2                	add	a5,a5,a2
   15e50:	a019                	j	15e56 <__mcmp+0x1a>
   15e52:	00f67f63          	bgeu	a2,a5,15e70 <__mcmp+0x34>
   15e56:	ffc7a683          	lw	a3,-4(a5)
   15e5a:	ffc5a703          	lw	a4,-4(a1)
   15e5e:	17f1                	addi	a5,a5,-4
   15e60:	15f1                	addi	a1,a1,-4
   15e62:	fee688e3          	beq	a3,a4,15e52 <__mcmp+0x16>
   15e66:	4505                	li	a0,1
   15e68:	00e6f463          	bgeu	a3,a4,15e70 <__mcmp+0x34>
   15e6c:	557d                	li	a0,-1
   15e6e:	8082                	ret
   15e70:	8082                	ret

0000000000015e72 <__mdiff>:
   15e72:	0145a883          	lw	a7,20(a1)
   15e76:	4a5c                	lw	a5,20(a2)
   15e78:	7179                	addi	sp,sp,-48
   15e7a:	f406                	sd	ra,40(sp)
   15e7c:	40f888bb          	subw	a7,a7,a5
   15e80:	8f2e                	mv	t5,a1
   15e82:	12089563          	bnez	a7,15fac <__mdiff+0x13a>
   15e86:	00279693          	slli	a3,a5,0x2
   15e8a:	01858813          	addi	a6,a1,24
   15e8e:	01860713          	addi	a4,a2,24
   15e92:	00d807b3          	add	a5,a6,a3
   15e96:	9736                	add	a4,a4,a3
   15e98:	a019                	j	15e9e <__mdiff+0x2c>
   15e9a:	12f87863          	bgeu	a6,a5,15fca <__mdiff+0x158>
   15e9e:	ffc7a583          	lw	a1,-4(a5)
   15ea2:	ffc72683          	lw	a3,-4(a4)
   15ea6:	17f1                	addi	a5,a5,-4
   15ea8:	1771                	addi	a4,a4,-4
   15eaa:	fed588e3          	beq	a1,a3,15e9a <__mdiff+0x28>
   15eae:	12d5f963          	bgeu	a1,a3,15fe0 <__mdiff+0x16e>
   15eb2:	4885                	li	a7,1
   15eb4:	460c                	lw	a1,8(a2)
   15eb6:	ec7a                	sd	t5,24(sp)
   15eb8:	e846                	sd	a7,16(sp)
   15eba:	e432                	sd	a2,8(sp)
   15ebc:	fccff0ef          	jal	15688 <_Balloc>
   15ec0:	6622                	ld	a2,8(sp)
   15ec2:	68c2                	ld	a7,16(sp)
   15ec4:	6f62                	ld	t5,24(sp)
   15ec6:	12050363          	beqz	a0,15fec <__mdiff+0x17a>
   15eca:	014f2f83          	lw	t6,20(t5)
   15ece:	01152823          	sw	a7,16(a0)
   15ed2:	01462883          	lw	a7,20(a2)
   15ed6:	01860293          	addi	t0,a2,24
   15eda:	0f8a                	slli	t6,t6,0x2
   15edc:	00289813          	slli	a6,a7,0x2
   15ee0:	018f0313          	addi	t1,t5,24
   15ee4:	01850393          	addi	t2,a0,24
   15ee8:	9816                	add	a6,a6,t0
   15eea:	9f9a                	add	t6,t6,t1
   15eec:	8e96                	mv	t4,t0
   15eee:	8e1e                	mv	t3,t2
   15ef0:	4781                	li	a5,0
   15ef2:	000ea683          	lw	a3,0(t4)
   15ef6:	00032603          	lw	a2,0(t1)
   15efa:	0e11                	addi	t3,t3,4
   15efc:	03069713          	slli	a4,a3,0x30
   15f00:	03061593          	slli	a1,a2,0x30
   15f04:	9341                	srli	a4,a4,0x30
   15f06:	91c1                	srli	a1,a1,0x30
   15f08:	9f0d                	subw	a4,a4,a1
   15f0a:	9f3d                	addw	a4,a4,a5
   15f0c:	0106d69b          	srliw	a3,a3,0x10
   15f10:	0106561b          	srliw	a2,a2,0x10
   15f14:	9e91                	subw	a3,a3,a2
   15f16:	4107579b          	sraiw	a5,a4,0x10
   15f1a:	9fb5                	addw	a5,a5,a3
   15f1c:	1742                	slli	a4,a4,0x30
   15f1e:	0107969b          	slliw	a3,a5,0x10
   15f22:	9341                	srli	a4,a4,0x30
   15f24:	8ed9                	or	a3,a3,a4
   15f26:	0311                	addi	t1,t1,4
   15f28:	fede2e23          	sw	a3,-4(t3)
   15f2c:	0e91                	addi	t4,t4,4
   15f2e:	4107d79b          	sraiw	a5,a5,0x10
   15f32:	fdf360e3          	bltu	t1,t6,15ef2 <__mdiff+0x80>
   15f36:	019f0613          	addi	a2,t5,25
   15f3a:	4701                	li	a4,0
   15f3c:	08cff163          	bgeu	t6,a2,15fbe <__mdiff+0x14c>
   15f40:	00e28eb3          	add	t4,t0,a4
   15f44:	0e91                	addi	t4,t4,4
   15f46:	971e                	add	a4,a4,t2
   15f48:	40538e33          	sub	t3,t2,t0
   15f4c:	8676                	mv	a2,t4
   15f4e:	00470f13          	addi	t5,a4,4
   15f52:	090efb63          	bgeu	t4,a6,15fe8 <__mdiff+0x176>
   15f56:	4218                	lw	a4,0(a2)
   15f58:	01c60333          	add	t1,a2,t3
   15f5c:	0611                	addi	a2,a2,4
   15f5e:	03071693          	slli	a3,a4,0x30
   15f62:	92c1                	srli	a3,a3,0x30
   15f64:	00f705bb          	addw	a1,a4,a5
   15f68:	9fb5                	addw	a5,a5,a3
   15f6a:	4107d79b          	sraiw	a5,a5,0x10
   15f6e:	0107571b          	srliw	a4,a4,0x10
   15f72:	9f3d                	addw	a4,a4,a5
   15f74:	15c2                	slli	a1,a1,0x30
   15f76:	91c1                	srli	a1,a1,0x30
   15f78:	0107169b          	slliw	a3,a4,0x10
   15f7c:	8ecd                	or	a3,a3,a1
   15f7e:	00d32023          	sw	a3,0(t1)
   15f82:	4107579b          	sraiw	a5,a4,0x10
   15f86:	fd0668e3          	bltu	a2,a6,15f56 <__mdiff+0xe4>
   15f8a:	fff80793          	addi	a5,a6,-1
   15f8e:	41d787b3          	sub	a5,a5,t4
   15f92:	9bf1                	andi	a5,a5,-4
   15f94:	97fa                	add	a5,a5,t5
   15f96:	e691                	bnez	a3,15fa2 <__mdiff+0x130>
   15f98:	ffc7a703          	lw	a4,-4(a5)
   15f9c:	17f1                	addi	a5,a5,-4
   15f9e:	38fd                	addiw	a7,a7,-1
   15fa0:	df65                	beqz	a4,15f98 <__mdiff+0x126>
   15fa2:	70a2                	ld	ra,40(sp)
   15fa4:	01152a23          	sw	a7,20(a0)
   15fa8:	6145                	addi	sp,sp,48
   15faa:	8082                	ret
   15fac:	8746                	mv	a4,a7
   15fae:	4885                	li	a7,1
   15fb0:	f00742e3          	bltz	a4,15eb4 <__mdiff+0x42>
   15fb4:	87b2                	mv	a5,a2
   15fb6:	4881                	li	a7,0
   15fb8:	862e                	mv	a2,a1
   15fba:	8f3e                	mv	t5,a5
   15fbc:	bde5                	j	15eb4 <__mdiff+0x42>
   15fbe:	41ef8fb3          	sub	t6,t6,t5
   15fc2:	1f9d                	addi	t6,t6,-25
   15fc4:	ffcff713          	andi	a4,t6,-4
   15fc8:	bfa5                	j	15f40 <__mdiff+0xce>
   15fca:	4581                	li	a1,0
   15fcc:	ebcff0ef          	jal	15688 <_Balloc>
   15fd0:	c90d                	beqz	a0,16002 <__mdiff+0x190>
   15fd2:	70a2                	ld	ra,40(sp)
   15fd4:	4785                	li	a5,1
   15fd6:	00052c23          	sw	zero,24(a0)
   15fda:	c95c                	sw	a5,20(a0)
   15fdc:	6145                	addi	sp,sp,48
   15fde:	8082                	ret
   15fe0:	87b2                	mv	a5,a2
   15fe2:	867a                	mv	a2,t5
   15fe4:	8f3e                	mv	t5,a5
   15fe6:	b5f9                	j	15eb4 <__mdiff+0x42>
   15fe8:	87ba                	mv	a5,a4
   15fea:	b775                	j	15f96 <__mdiff+0x124>
   15fec:	66e5                	lui	a3,0x19
   15fee:	6565                	lui	a0,0x19
   15ff0:	2b068693          	addi	a3,a3,688 # 192b0 <__clzdi2+0xb6>
   15ff4:	33050513          	addi	a0,a0,816 # 19330 <__clzdi2+0x136>
   15ff8:	4601                	li	a2,0
   15ffa:	24500593          	li	a1,581
   15ffe:	393000ef          	jal	16b90 <__assert_func>
   16002:	66e5                	lui	a3,0x19
   16004:	6565                	lui	a0,0x19
   16006:	2b068693          	addi	a3,a3,688 # 192b0 <__clzdi2+0xb6>
   1600a:	33050513          	addi	a0,a0,816 # 19330 <__clzdi2+0x136>
   1600e:	4601                	li	a2,0
   16010:	23700593          	li	a1,567
   16014:	37d000ef          	jal	16b90 <__assert_func>

0000000000016018 <__ulp>:
   16018:	e20507d3          	fmv.x.d	a5,fa0
   1601c:	7ff006b7          	lui	a3,0x7ff00
   16020:	fcc00737          	lui	a4,0xfcc00
   16024:	9381                	srli	a5,a5,0x20
   16026:	8ff5                	and	a5,a5,a3
   16028:	9fb9                	addw	a5,a5,a4
   1602a:	4701                	li	a4,0
   1602c:	00f05963          	blez	a5,1603e <__ulp+0x26>
   16030:	1702                	slli	a4,a4,0x20
   16032:	9301                	srli	a4,a4,0x20
   16034:	1782                	slli	a5,a5,0x20
   16036:	8fd9                	or	a5,a5,a4
   16038:	f2078553          	fmv.d.x	fa0,a5
   1603c:	8082                	ret
   1603e:	40f007bb          	negw	a5,a5
   16042:	4147d79b          	sraiw	a5,a5,0x14
   16046:	474d                	li	a4,19
   16048:	00f74e63          	blt	a4,a5,16064 <__ulp+0x4c>
   1604c:	00080737          	lui	a4,0x80
   16050:	40f757bb          	sraw	a5,a4,a5
   16054:	4701                	li	a4,0
   16056:	1702                	slli	a4,a4,0x20
   16058:	9301                	srli	a4,a4,0x20
   1605a:	1782                	slli	a5,a5,0x20
   1605c:	8fd9                	or	a5,a5,a4
   1605e:	f2078553          	fmv.d.x	fa0,a5
   16062:	8082                	ret
   16064:	37b1                	addiw	a5,a5,-20
   16066:	46f9                	li	a3,30
   16068:	4705                	li	a4,1
   1606a:	00f6c663          	blt	a3,a5,16076 <__ulp+0x5e>
   1606e:	80000737          	lui	a4,0x80000
   16072:	00f7573b          	srlw	a4,a4,a5
   16076:	4781                	li	a5,0
   16078:	1702                	slli	a4,a4,0x20
   1607a:	9301                	srli	a4,a4,0x20
   1607c:	1782                	slli	a5,a5,0x20
   1607e:	8fd9                	or	a5,a5,a4
   16080:	f2078553          	fmv.d.x	fa0,a5
   16084:	8082                	ret

0000000000016086 <__b2d>:
   16086:	7139                	addi	sp,sp,-64
   16088:	f822                	sd	s0,48(sp)
   1608a:	4940                	lw	s0,20(a0)
   1608c:	f04a                	sd	s2,32(sp)
   1608e:	01850913          	addi	s2,a0,24
   16092:	040a                	slli	s0,s0,0x2
   16094:	944a                	add	s0,s0,s2
   16096:	f426                	sd	s1,40(sp)
   16098:	ffc42483          	lw	s1,-4(s0)
   1609c:	ec4e                	sd	s3,24(sp)
   1609e:	e42e                	sd	a1,8(sp)
   160a0:	8526                	mv	a0,s1
   160a2:	fc06                	sd	ra,56(sp)
   160a4:	837ff0ef          	jal	158da <__hi0bits>
   160a8:	65a2                	ld	a1,8(sp)
   160aa:	02000793          	li	a5,32
   160ae:	40a7873b          	subw	a4,a5,a0
   160b2:	c198                	sw	a4,0(a1)
   160b4:	4729                	li	a4,10
   160b6:	ffc40993          	addi	s3,s0,-4
   160ba:	06a75863          	bge	a4,a0,1612a <__b2d+0xa4>
   160be:	ff55061b          	addiw	a2,a0,-11
   160c2:	03397d63          	bgeu	s2,s3,160fc <__b2d+0x76>
   160c6:	ff842703          	lw	a4,-8(s0)
   160ca:	ce0d                	beqz	a2,16104 <__b2d+0x7e>
   160cc:	40c786bb          	subw	a3,a5,a2
   160d0:	00d757bb          	srlw	a5,a4,a3
   160d4:	00c494bb          	sllw	s1,s1,a2
   160d8:	8cdd                	or	s1,s1,a5
   160da:	3ff007b7          	lui	a5,0x3ff00
   160de:	8cdd                	or	s1,s1,a5
   160e0:	00c7173b          	sllw	a4,a4,a2
   160e4:	ff840613          	addi	a2,s0,-8
   160e8:	02049793          	slli	a5,s1,0x20
   160ec:	02c97163          	bgeu	s2,a2,1610e <__b2d+0x88>
   160f0:	ff442603          	lw	a2,-12(s0)
   160f4:	00d656bb          	srlw	a3,a2,a3
   160f8:	8f55                	or	a4,a4,a3
   160fa:	a811                	j	1610e <__b2d+0x88>
   160fc:	47ad                	li	a5,11
   160fe:	4701                	li	a4,0
   16100:	04f51963          	bne	a0,a5,16152 <__b2d+0xcc>
   16104:	3ff007b7          	lui	a5,0x3ff00
   16108:	8cdd                	or	s1,s1,a5
   1610a:	02049793          	slli	a5,s1,0x20
   1610e:	70e2                	ld	ra,56(sp)
   16110:	7442                	ld	s0,48(sp)
   16112:	1702                	slli	a4,a4,0x20
   16114:	9381                	srli	a5,a5,0x20
   16116:	9301                	srli	a4,a4,0x20
   16118:	1782                	slli	a5,a5,0x20
   1611a:	8fd9                	or	a5,a5,a4
   1611c:	74a2                	ld	s1,40(sp)
   1611e:	7902                	ld	s2,32(sp)
   16120:	69e2                	ld	s3,24(sp)
   16122:	f2078553          	fmv.d.x	fa0,a5
   16126:	6121                	addi	sp,sp,64
   16128:	8082                	ret
   1612a:	46ad                	li	a3,11
   1612c:	9e89                	subw	a3,a3,a0
   1612e:	3ff00737          	lui	a4,0x3ff00
   16132:	00d4d7bb          	srlw	a5,s1,a3
   16136:	8fd9                	or	a5,a5,a4
   16138:	1782                	slli	a5,a5,0x20
   1613a:	4701                	li	a4,0
   1613c:	01397663          	bgeu	s2,s3,16148 <__b2d+0xc2>
   16140:	ff842703          	lw	a4,-8(s0)
   16144:	00d7573b          	srlw	a4,a4,a3
   16148:	2555                	addiw	a0,a0,21
   1614a:	00a494bb          	sllw	s1,s1,a0
   1614e:	8f45                	or	a4,a4,s1
   16150:	bf7d                	j	1610e <__b2d+0x88>
   16152:	3ff007b7          	lui	a5,0x3ff00
   16156:	00c494bb          	sllw	s1,s1,a2
   1615a:	8cdd                	or	s1,s1,a5
   1615c:	02049793          	slli	a5,s1,0x20
   16160:	4701                	li	a4,0
   16162:	b775                	j	1610e <__b2d+0x88>

0000000000016164 <__d2b>:
   16164:	715d                	addi	sp,sp,-80
   16166:	f44e                	sd	s3,40(sp)
   16168:	89ae                	mv	s3,a1
   1616a:	4585                	li	a1,1
   1616c:	f84a                	sd	s2,48(sp)
   1616e:	e486                	sd	ra,72(sp)
   16170:	e0a2                	sd	s0,64(sp)
   16172:	fc26                	sd	s1,56(sp)
   16174:	8932                	mv	s2,a2
   16176:	a42a                	fsd	fa0,8(sp)
   16178:	d10ff0ef          	jal	15688 <_Balloc>
   1617c:	6722                	ld	a4,8(sp)
   1617e:	c55d                	beqz	a0,1622c <__d2b+0xc8>
   16180:	02075793          	srli	a5,a4,0x20
   16184:	001006b7          	lui	a3,0x100
   16188:	0147d41b          	srliw	s0,a5,0x14
   1618c:	fff68613          	addi	a2,a3,-1 # fffff <__BSS_END__+0xe43ef>
   16190:	8ff1                	and	a5,a5,a2
   16192:	7ff47413          	andi	s0,s0,2047
   16196:	84aa                	mv	s1,a0
   16198:	2781                	sext.w	a5,a5
   1619a:	c011                	beqz	s0,1619e <__d2b+0x3a>
   1619c:	8fd5                	or	a5,a5,a3
   1619e:	2701                	sext.w	a4,a4
   161a0:	ce3e                	sw	a5,28(sp)
   161a2:	ef15                	bnez	a4,161de <__d2b+0x7a>
   161a4:	0868                	addi	a0,sp,28
   161a6:	f9cff0ef          	jal	15942 <__lo0bits>
   161aa:	4772                	lw	a4,28(sp)
   161ac:	4785                	li	a5,1
   161ae:	c8dc                	sw	a5,20(s1)
   161b0:	cc98                	sw	a4,24(s1)
   161b2:	0205051b          	addiw	a0,a0,32
   161b6:	c831                	beqz	s0,1620a <__d2b+0xa6>
   161b8:	bcd4041b          	addiw	s0,s0,-1075
   161bc:	9c29                	addw	s0,s0,a0
   161be:	03500793          	li	a5,53
   161c2:	0089a023          	sw	s0,0(s3)
   161c6:	40a7853b          	subw	a0,a5,a0
   161ca:	60a6                	ld	ra,72(sp)
   161cc:	6406                	ld	s0,64(sp)
   161ce:	00a92023          	sw	a0,0(s2)
   161d2:	79a2                	ld	s3,40(sp)
   161d4:	7942                	ld	s2,48(sp)
   161d6:	8526                	mv	a0,s1
   161d8:	74e2                	ld	s1,56(sp)
   161da:	6161                	addi	sp,sp,80
   161dc:	8082                	ret
   161de:	0828                	addi	a0,sp,24
   161e0:	cc3a                	sw	a4,24(sp)
   161e2:	f60ff0ef          	jal	15942 <__lo0bits>
   161e6:	4772                	lw	a4,28(sp)
   161e8:	46e2                	lw	a3,24(sp)
   161ea:	c909                	beqz	a0,161fc <__d2b+0x98>
   161ec:	02000793          	li	a5,32
   161f0:	9f89                	subw	a5,a5,a0
   161f2:	00f717bb          	sllw	a5,a4,a5
   161f6:	8edd                	or	a3,a3,a5
   161f8:	00a7573b          	srlw	a4,a4,a0
   161fc:	00e037b3          	snez	a5,a4
   16200:	0785                	addi	a5,a5,1 # 3ff00001 <__BSS_END__+0x3fee43f1>
   16202:	cc94                	sw	a3,24(s1)
   16204:	ccd8                	sw	a4,28(s1)
   16206:	c8dc                	sw	a5,20(s1)
   16208:	f845                	bnez	s0,161b8 <__d2b+0x54>
   1620a:	00279713          	slli	a4,a5,0x2
   1620e:	bce5051b          	addiw	a0,a0,-1074
   16212:	00a9a023          	sw	a0,0(s3)
   16216:	9726                	add	a4,a4,s1
   16218:	4b48                	lw	a0,20(a4)
   1621a:	e43e                	sd	a5,8(sp)
   1621c:	ebeff0ef          	jal	158da <__hi0bits>
   16220:	67a2                	ld	a5,8(sp)
   16222:	0057979b          	slliw	a5,a5,0x5
   16226:	40a7853b          	subw	a0,a5,a0
   1622a:	b745                	j	161ca <__d2b+0x66>
   1622c:	66e5                	lui	a3,0x19
   1622e:	6565                	lui	a0,0x19
   16230:	2b068693          	addi	a3,a3,688 # 192b0 <__clzdi2+0xb6>
   16234:	33050513          	addi	a0,a0,816 # 19330 <__clzdi2+0x136>
   16238:	4601                	li	a2,0
   1623a:	30f00593          	li	a1,783
   1623e:	153000ef          	jal	16b90 <__assert_func>

0000000000016242 <__ratio>:
   16242:	7139                	addi	sp,sp,-64
   16244:	f822                	sd	s0,48(sp)
   16246:	842e                	mv	s0,a1
   16248:	082c                	addi	a1,sp,24
   1624a:	fc06                	sd	ra,56(sp)
   1624c:	f426                	sd	s1,40(sp)
   1624e:	f04a                	sd	s2,32(sp)
   16250:	84aa                	mv	s1,a0
   16252:	e35ff0ef          	jal	16086 <__b2d>
   16256:	e2050753          	fmv.x.d	a4,fa0
   1625a:	086c                	addi	a1,sp,28
   1625c:	8522                	mv	a0,s0
   1625e:	893a                	mv	s2,a4
   16260:	a42a                	fsd	fa0,8(sp)
   16262:	e25ff0ef          	jal	16086 <__b2d>
   16266:	4854                	lw	a3,20(s0)
   16268:	48d0                	lw	a2,20(s1)
   1626a:	47e2                	lw	a5,24(sp)
   1626c:	45f2                	lw	a1,28(sp)
   1626e:	9e15                	subw	a2,a2,a3
   16270:	0056161b          	slliw	a2,a2,0x5
   16274:	9f8d                	subw	a5,a5,a1
   16276:	9fb1                	addw	a5,a5,a2
   16278:	e20506d3          	fmv.x.d	a3,fa0
   1627c:	6722                	ld	a4,8(sp)
   1627e:	02f05863          	blez	a5,162ae <__ratio+0x6c>
   16282:	9301                	srli	a4,a4,0x20
   16284:	0147979b          	slliw	a5,a5,0x14
   16288:	9fb9                	addw	a5,a5,a4
   1628a:	02091613          	slli	a2,s2,0x20
   1628e:	9201                	srli	a2,a2,0x20
   16290:	1782                	slli	a5,a5,0x20
   16292:	00f66733          	or	a4,a2,a5
   16296:	70e2                	ld	ra,56(sp)
   16298:	7442                	ld	s0,48(sp)
   1629a:	f20707d3          	fmv.d.x	fa5,a4
   1629e:	f2068753          	fmv.d.x	fa4,a3
   162a2:	74a2                	ld	s1,40(sp)
   162a4:	7902                	ld	s2,32(sp)
   162a6:	1ae7f553          	fdiv.d	fa0,fa5,fa4
   162aa:	6121                	addi	sp,sp,64
   162ac:	8082                	ret
   162ae:	40f007bb          	negw	a5,a5
   162b2:	02069613          	slli	a2,a3,0x20
   162b6:	0147979b          	slliw	a5,a5,0x14
   162ba:	9281                	srli	a3,a3,0x20
   162bc:	9fb5                	addw	a5,a5,a3
   162be:	9201                	srli	a2,a2,0x20
   162c0:	1782                	slli	a5,a5,0x20
   162c2:	00f666b3          	or	a3,a2,a5
   162c6:	bfc1                	j	16296 <__ratio+0x54>

00000000000162c8 <_mprec_log10>:
   162c8:	47dd                	li	a5,23
   162ca:	00a7db63          	bge	a5,a0,162e0 <_mprec_log10+0x18>
   162ce:	1d81b507          	fld	fa0,472(gp) # 1b5e8 <__SDATA_BEGIN__+0x30>
   162d2:	1f01b787          	fld	fa5,496(gp) # 1b600 <__SDATA_BEGIN__+0x48>
   162d6:	357d                	addiw	a0,a0,-1
   162d8:	12f57553          	fmul.d	fa0,fa0,fa5
   162dc:	fd6d                	bnez	a0,162d6 <_mprec_log10+0xe>
   162de:	8082                	ret
   162e0:	67e5                	lui	a5,0x19
   162e2:	050e                	slli	a0,a0,0x3
   162e4:	61878793          	addi	a5,a5,1560 # 19618 <__mprec_tens>
   162e8:	97aa                	add	a5,a5,a0
   162ea:	2388                	fld	fa0,0(a5)
   162ec:	8082                	ret

00000000000162ee <__copybits>:
   162ee:	4a54                	lw	a3,20(a2)
   162f0:	35fd                	addiw	a1,a1,-1
   162f2:	4055d59b          	sraiw	a1,a1,0x5
   162f6:	2585                	addiw	a1,a1,1
   162f8:	068a                	slli	a3,a3,0x2
   162fa:	01860793          	addi	a5,a2,24
   162fe:	058a                	slli	a1,a1,0x2
   16300:	96be                	add	a3,a3,a5
   16302:	95aa                	add	a1,a1,a0
   16304:	02d7f063          	bgeu	a5,a3,16324 <__copybits+0x36>
   16308:	872a                	mv	a4,a0
   1630a:	0007a803          	lw	a6,0(a5)
   1630e:	0791                	addi	a5,a5,4
   16310:	0711                	addi	a4,a4,4 # 3ff00004 <__BSS_END__+0x3fee43f4>
   16312:	ff072e23          	sw	a6,-4(a4)
   16316:	fed7eae3          	bltu	a5,a3,1630a <__copybits+0x1c>
   1631a:	8e91                	sub	a3,a3,a2
   1631c:	169d                	addi	a3,a3,-25
   1631e:	9af1                	andi	a3,a3,-4
   16320:	0511                	addi	a0,a0,4
   16322:	9536                	add	a0,a0,a3
   16324:	00b57763          	bgeu	a0,a1,16332 <__copybits+0x44>
   16328:	0511                	addi	a0,a0,4
   1632a:	fe052e23          	sw	zero,-4(a0)
   1632e:	feb56de3          	bltu	a0,a1,16328 <__copybits+0x3a>
   16332:	8082                	ret

0000000000016334 <__any_on>:
   16334:	4958                	lw	a4,20(a0)
   16336:	4055d61b          	sraiw	a2,a1,0x5
   1633a:	01850693          	addi	a3,a0,24
   1633e:	00c75d63          	bge	a4,a2,16358 <__any_on+0x24>
   16342:	070a                	slli	a4,a4,0x2
   16344:	00e687b3          	add	a5,a3,a4
   16348:	02f6f863          	bgeu	a3,a5,16378 <__any_on+0x44>
   1634c:	ffc7a703          	lw	a4,-4(a5)
   16350:	17f1                	addi	a5,a5,-4
   16352:	db7d                	beqz	a4,16348 <__any_on+0x14>
   16354:	4505                	li	a0,1
   16356:	8082                	ret
   16358:	00261793          	slli	a5,a2,0x2
   1635c:	97b6                	add	a5,a5,a3
   1635e:	fee655e3          	bge	a2,a4,16348 <__any_on+0x14>
   16362:	89fd                	andi	a1,a1,31
   16364:	d1f5                	beqz	a1,16348 <__any_on+0x14>
   16366:	4390                	lw	a2,0(a5)
   16368:	4505                	li	a0,1
   1636a:	00b6573b          	srlw	a4,a2,a1
   1636e:	00b7173b          	sllw	a4,a4,a1
   16372:	fcc70be3          	beq	a4,a2,16348 <__any_on+0x14>
   16376:	8082                	ret
   16378:	4501                	li	a0,0
   1637a:	8082                	ret

000000000001637c <_realloc_r>:
   1637c:	16058663          	beqz	a1,164e8 <_realloc_r+0x16c>
   16380:	7139                	addi	sp,sp,-64
   16382:	f822                	sd	s0,48(sp)
   16384:	f426                	sd	s1,40(sp)
   16386:	842e                	mv	s0,a1
   16388:	fc06                	sd	ra,56(sp)
   1638a:	84aa                	mv	s1,a0
   1638c:	e032                	sd	a2,0(sp)
   1638e:	828fb0ef          	jal	113b6 <__malloc_lock>
   16392:	6582                	ld	a1,0(sp)
   16394:	02e00713          	li	a4,46
   16398:	01758793          	addi	a5,a1,23
   1639c:	0ef77563          	bgeu	a4,a5,16486 <_realloc_r+0x10a>
   163a0:	4705                	li	a4,1
   163a2:	9bc1                	andi	a5,a5,-16
   163a4:	077e                	slli	a4,a4,0x1f
   163a6:	00e7b733          	sltu	a4,a5,a4
   163aa:	00174713          	xori	a4,a4,1
   163ae:	16b7e263          	bltu	a5,a1,16512 <_realloc_r+0x196>
   163b2:	16071063          	bnez	a4,16512 <_realloc_r+0x196>
   163b6:	ff843683          	ld	a3,-8(s0)
   163ba:	ff040613          	addi	a2,s0,-16
   163be:	ffc6f713          	andi	a4,a3,-4
   163c2:	0cf75d63          	bge	a4,a5,1649c <_realloc_r+0x120>
   163c6:	656d                	lui	a0,0x1b
   163c8:	c0050e93          	addi	t4,a0,-1024 # 1ac00 <__malloc_av_>
   163cc:	010eb883          	ld	a7,16(t4)
   163d0:	00e60833          	add	a6,a2,a4
   163d4:	00883503          	ld	a0,8(a6)
   163d8:	15088663          	beq	a7,a6,16524 <_realloc_r+0x1a8>
   163dc:	ffe57893          	andi	a7,a0,-2
   163e0:	98c2                	add	a7,a7,a6
   163e2:	0088b883          	ld	a7,8(a7)
   163e6:	0018f893          	andi	a7,a7,1
   163ea:	0e089463          	bnez	a7,164d2 <_realloc_r+0x156>
   163ee:	9971                	andi	a0,a0,-4
   163f0:	00a708b3          	add	a7,a4,a0
   163f4:	08f8dd63          	bge	a7,a5,1648e <_realloc_r+0x112>
   163f8:	8a85                	andi	a3,a3,1
   163fa:	e28d                	bnez	a3,1641c <_realloc_r+0xa0>
   163fc:	ff043303          	ld	t1,-16(s0)
   16400:	40660333          	sub	t1,a2,t1
   16404:	00833883          	ld	a7,8(t1)
   16408:	ffc8f893          	andi	a7,a7,-4
   1640c:	9546                	add	a0,a0,a7
   1640e:	00e506b3          	add	a3,a0,a4
   16412:	22f6dd63          	bge	a3,a5,1664c <_realloc_r+0x2d0>
   16416:	98ba                	add	a7,a7,a4
   16418:	1cf8da63          	bge	a7,a5,165ec <_realloc_r+0x270>
   1641c:	8526                	mv	a0,s1
   1641e:	e83a                	sd	a4,16(sp)
   16420:	e432                	sd	a2,8(sp)
   16422:	e03e                	sd	a5,0(sp)
   16424:	91dfa0ef          	jal	10d40 <_malloc_r>
   16428:	6782                	ld	a5,0(sp)
   1642a:	6622                	ld	a2,8(sp)
   1642c:	6742                	ld	a4,16(sp)
   1642e:	86aa                	mv	a3,a0
   16430:	30050363          	beqz	a0,16736 <_realloc_r+0x3ba>
   16434:	ff843583          	ld	a1,-8(s0)
   16438:	ff050813          	addi	a6,a0,-16
   1643c:	99f9                	andi	a1,a1,-2
   1643e:	95b2                	add	a1,a1,a2
   16440:	19058463          	beq	a1,a6,165c8 <_realloc_r+0x24c>
   16444:	ff870613          	addi	a2,a4,-8
   16448:	04800793          	li	a5,72
   1644c:	1ec7ea63          	bltu	a5,a2,16640 <_realloc_r+0x2c4>
   16450:	02700713          	li	a4,39
   16454:	16c76f63          	bltu	a4,a2,165d2 <_realloc_r+0x256>
   16458:	87aa                	mv	a5,a0
   1645a:	8722                	mv	a4,s0
   1645c:	6310                	ld	a2,0(a4)
   1645e:	e390                	sd	a2,0(a5)
   16460:	6710                	ld	a2,8(a4)
   16462:	e790                	sd	a2,8(a5)
   16464:	6b18                	ld	a4,16(a4)
   16466:	eb98                	sd	a4,16(a5)
   16468:	85a2                	mv	a1,s0
   1646a:	8526                	mv	a0,s1
   1646c:	e036                	sd	a3,0(sp)
   1646e:	e98fa0ef          	jal	10b06 <_free_r>
   16472:	8526                	mv	a0,s1
   16474:	f45fa0ef          	jal	113b8 <__malloc_unlock>
   16478:	6682                	ld	a3,0(sp)
   1647a:	70e2                	ld	ra,56(sp)
   1647c:	7442                	ld	s0,48(sp)
   1647e:	74a2                	ld	s1,40(sp)
   16480:	8536                	mv	a0,a3
   16482:	6121                	addi	sp,sp,64
   16484:	8082                	ret
   16486:	4701                	li	a4,0
   16488:	02000793          	li	a5,32
   1648c:	b70d                	j	163ae <_realloc_r+0x32>
   1648e:	01883683          	ld	a3,24(a6)
   16492:	01083583          	ld	a1,16(a6)
   16496:	8746                	mv	a4,a7
   16498:	ed94                	sd	a3,24(a1)
   1649a:	ea8c                	sd	a1,16(a3)
   1649c:	6614                	ld	a3,8(a2)
   1649e:	40f70533          	sub	a0,a4,a5
   164a2:	45fd                	li	a1,31
   164a4:	8a85                	andi	a3,a3,1
   164a6:	00e60833          	add	a6,a2,a4
   164aa:	04a5e263          	bltu	a1,a0,164ee <_realloc_r+0x172>
   164ae:	8ed9                	or	a3,a3,a4
   164b0:	e614                	sd	a3,8(a2)
   164b2:	00883783          	ld	a5,8(a6)
   164b6:	0017e793          	ori	a5,a5,1
   164ba:	00f83423          	sd	a5,8(a6)
   164be:	8526                	mv	a0,s1
   164c0:	ef9fa0ef          	jal	113b8 <__malloc_unlock>
   164c4:	86a2                	mv	a3,s0
   164c6:	70e2                	ld	ra,56(sp)
   164c8:	7442                	ld	s0,48(sp)
   164ca:	74a2                	ld	s1,40(sp)
   164cc:	8536                	mv	a0,a3
   164ce:	6121                	addi	sp,sp,64
   164d0:	8082                	ret
   164d2:	8a85                	andi	a3,a3,1
   164d4:	f6a1                	bnez	a3,1641c <_realloc_r+0xa0>
   164d6:	ff043303          	ld	t1,-16(s0)
   164da:	40660333          	sub	t1,a2,t1
   164de:	00833883          	ld	a7,8(t1)
   164e2:	ffc8f893          	andi	a7,a7,-4
   164e6:	bf05                	j	16416 <_realloc_r+0x9a>
   164e8:	85b2                	mv	a1,a2
   164ea:	857fa06f          	j	10d40 <_malloc_r>
   164ee:	8edd                	or	a3,a3,a5
   164f0:	e614                	sd	a3,8(a2)
   164f2:	00156513          	ori	a0,a0,1
   164f6:	963e                	add	a2,a2,a5
   164f8:	e608                	sd	a0,8(a2)
   164fa:	00883783          	ld	a5,8(a6)
   164fe:	01060593          	addi	a1,a2,16
   16502:	8526                	mv	a0,s1
   16504:	0017e793          	ori	a5,a5,1
   16508:	00f83423          	sd	a5,8(a6)
   1650c:	dfafa0ef          	jal	10b06 <_free_r>
   16510:	b77d                	j	164be <_realloc_r+0x142>
   16512:	47b1                	li	a5,12
   16514:	c09c                	sw	a5,0(s1)
   16516:	4681                	li	a3,0
   16518:	70e2                	ld	ra,56(sp)
   1651a:	7442                	ld	s0,48(sp)
   1651c:	74a2                	ld	s1,40(sp)
   1651e:	8536                	mv	a0,a3
   16520:	6121                	addi	sp,sp,64
   16522:	8082                	ret
   16524:	9971                	andi	a0,a0,-4
   16526:	00e50833          	add	a6,a0,a4
   1652a:	02078e13          	addi	t3,a5,32
   1652e:	1bc85763          	bge	a6,t3,166dc <_realloc_r+0x360>
   16532:	8a85                	andi	a3,a3,1
   16534:	ee0694e3          	bnez	a3,1641c <_realloc_r+0xa0>
   16538:	ff043303          	ld	t1,-16(s0)
   1653c:	40660333          	sub	t1,a2,t1
   16540:	00833883          	ld	a7,8(t1)
   16544:	ffc8f893          	andi	a7,a7,-4
   16548:	9546                	add	a0,a0,a7
   1654a:	00e50833          	add	a6,a0,a4
   1654e:	edc844e3          	blt	a6,t3,16416 <_realloc_r+0x9a>
   16552:	01833683          	ld	a3,24(t1)
   16556:	01033583          	ld	a1,16(t1)
   1655a:	ff870613          	addi	a2,a4,-8
   1655e:	04800713          	li	a4,72
   16562:	ed94                	sd	a3,24(a1)
   16564:	ea8c                	sd	a1,16(a3)
   16566:	01030693          	addi	a3,t1,16
   1656a:	20c76363          	bltu	a4,a2,16770 <_realloc_r+0x3f4>
   1656e:	02700593          	li	a1,39
   16572:	8736                	mv	a4,a3
   16574:	00c5ff63          	bgeu	a1,a2,16592 <_realloc_r+0x216>
   16578:	600c                	ld	a1,0(s0)
   1657a:	03700713          	li	a4,55
   1657e:	00b33823          	sd	a1,16(t1)
   16582:	640c                	ld	a1,8(s0)
   16584:	00b33c23          	sd	a1,24(t1)
   16588:	22c76063          	bltu	a4,a2,167a8 <_realloc_r+0x42c>
   1658c:	0441                	addi	s0,s0,16
   1658e:	02030713          	addi	a4,t1,32
   16592:	6010                	ld	a2,0(s0)
   16594:	e310                	sd	a2,0(a4)
   16596:	6410                	ld	a2,8(s0)
   16598:	e710                	sd	a2,8(a4)
   1659a:	6810                	ld	a2,16(s0)
   1659c:	eb10                	sd	a2,16(a4)
   1659e:	00f30633          	add	a2,t1,a5
   165a2:	40f80733          	sub	a4,a6,a5
   165a6:	00ceb823          	sd	a2,16(t4)
   165aa:	00176713          	ori	a4,a4,1
   165ae:	e618                	sd	a4,8(a2)
   165b0:	00833703          	ld	a4,8(t1)
   165b4:	8526                	mv	a0,s1
   165b6:	e036                	sd	a3,0(sp)
   165b8:	8b05                	andi	a4,a4,1
   165ba:	8fd9                	or	a5,a5,a4
   165bc:	00f33423          	sd	a5,8(t1)
   165c0:	df9fa0ef          	jal	113b8 <__malloc_unlock>
   165c4:	6682                	ld	a3,0(sp)
   165c6:	b701                	j	164c6 <_realloc_r+0x14a>
   165c8:	ff853683          	ld	a3,-8(a0)
   165cc:	9af1                	andi	a3,a3,-4
   165ce:	9736                	add	a4,a4,a3
   165d0:	b5f1                	j	1649c <_realloc_r+0x120>
   165d2:	600c                	ld	a1,0(s0)
   165d4:	03700713          	li	a4,55
   165d8:	e10c                	sd	a1,0(a0)
   165da:	640c                	ld	a1,8(s0)
   165dc:	e50c                	sd	a1,8(a0)
   165de:	0cc76763          	bltu	a4,a2,166ac <_realloc_r+0x330>
   165e2:	01040713          	addi	a4,s0,16
   165e6:	01050793          	addi	a5,a0,16
   165ea:	bd8d                	j	1645c <_realloc_r+0xe0>
   165ec:	01833683          	ld	a3,24(t1)
   165f0:	01033583          	ld	a1,16(t1)
   165f4:	ff870613          	addi	a2,a4,-8
   165f8:	04800513          	li	a0,72
   165fc:	ed94                	sd	a3,24(a1)
   165fe:	ea8c                	sd	a1,16(a3)
   16600:	01030693          	addi	a3,t1,16
   16604:	0ac56f63          	bltu	a0,a2,166c2 <_realloc_r+0x346>
   16608:	02700593          	li	a1,39
   1660c:	8736                	mv	a4,a3
   1660e:	00c5ff63          	bgeu	a1,a2,1662c <_realloc_r+0x2b0>
   16612:	600c                	ld	a1,0(s0)
   16614:	03700713          	li	a4,55
   16618:	00b33823          	sd	a1,16(t1)
   1661c:	640c                	ld	a1,8(s0)
   1661e:	00b33c23          	sd	a1,24(t1)
   16622:	0ec76d63          	bltu	a4,a2,1671c <_realloc_r+0x3a0>
   16626:	0441                	addi	s0,s0,16
   16628:	02030713          	addi	a4,t1,32
   1662c:	6010                	ld	a2,0(s0)
   1662e:	e310                	sd	a2,0(a4)
   16630:	6410                	ld	a2,8(s0)
   16632:	e710                	sd	a2,8(a4)
   16634:	6810                	ld	a2,16(s0)
   16636:	eb10                	sd	a2,16(a4)
   16638:	8436                	mv	s0,a3
   1663a:	8746                	mv	a4,a7
   1663c:	861a                	mv	a2,t1
   1663e:	bdb9                	j	1649c <_realloc_r+0x120>
   16640:	85a2                	mv	a1,s0
   16642:	e02a                	sd	a0,0(sp)
   16644:	edcfd0ef          	jal	13d20 <memmove>
   16648:	6682                	ld	a3,0(sp)
   1664a:	bd39                	j	16468 <_realloc_r+0xec>
   1664c:	01883583          	ld	a1,24(a6)
   16650:	01083503          	ld	a0,16(a6)
   16654:	ff870613          	addi	a2,a4,-8
   16658:	04800893          	li	a7,72
   1665c:	ed0c                	sd	a1,24(a0)
   1665e:	e988                	sd	a0,16(a1)
   16660:	01833703          	ld	a4,24(t1)
   16664:	01033583          	ld	a1,16(t1)
   16668:	01030813          	addi	a6,t1,16
   1666c:	ed98                	sd	a4,24(a1)
   1666e:	eb0c                	sd	a1,16(a4)
   16670:	08c8e963          	bltu	a7,a2,16702 <_realloc_r+0x386>
   16674:	02700593          	li	a1,39
   16678:	8742                	mv	a4,a6
   1667a:	00c5ff63          	bgeu	a1,a2,16698 <_realloc_r+0x31c>
   1667e:	600c                	ld	a1,0(s0)
   16680:	03700713          	li	a4,55
   16684:	00b33823          	sd	a1,16(t1)
   16688:	640c                	ld	a1,8(s0)
   1668a:	00b33c23          	sd	a1,24(t1)
   1668e:	0cc76263          	bltu	a4,a2,16752 <_realloc_r+0x3d6>
   16692:	0441                	addi	s0,s0,16
   16694:	02030713          	addi	a4,t1,32
   16698:	6010                	ld	a2,0(s0)
   1669a:	e310                	sd	a2,0(a4)
   1669c:	6410                	ld	a2,8(s0)
   1669e:	e710                	sd	a2,8(a4)
   166a0:	6810                	ld	a2,16(s0)
   166a2:	eb10                	sd	a2,16(a4)
   166a4:	8442                	mv	s0,a6
   166a6:	8736                	mv	a4,a3
   166a8:	861a                	mv	a2,t1
   166aa:	bbcd                	j	1649c <_realloc_r+0x120>
   166ac:	6818                	ld	a4,16(s0)
   166ae:	e918                	sd	a4,16(a0)
   166b0:	6c18                	ld	a4,24(s0)
   166b2:	ed18                	sd	a4,24(a0)
   166b4:	08f60663          	beq	a2,a5,16740 <_realloc_r+0x3c4>
   166b8:	02040713          	addi	a4,s0,32
   166bc:	02050793          	addi	a5,a0,32
   166c0:	bb71                	j	1645c <_realloc_r+0xe0>
   166c2:	8536                	mv	a0,a3
   166c4:	85a2                	mv	a1,s0
   166c6:	ec1a                	sd	t1,24(sp)
   166c8:	e83e                	sd	a5,16(sp)
   166ca:	e446                	sd	a7,8(sp)
   166cc:	e036                	sd	a3,0(sp)
   166ce:	e52fd0ef          	jal	13d20 <memmove>
   166d2:	6362                	ld	t1,24(sp)
   166d4:	67c2                	ld	a5,16(sp)
   166d6:	68a2                	ld	a7,8(sp)
   166d8:	6682                	ld	a3,0(sp)
   166da:	bfb9                	j	16638 <_realloc_r+0x2bc>
   166dc:	963e                	add	a2,a2,a5
   166de:	40f80733          	sub	a4,a6,a5
   166e2:	00ceb823          	sd	a2,16(t4)
   166e6:	00176713          	ori	a4,a4,1
   166ea:	e618                	sd	a4,8(a2)
   166ec:	ff843703          	ld	a4,-8(s0)
   166f0:	8526                	mv	a0,s1
   166f2:	8b05                	andi	a4,a4,1
   166f4:	8fd9                	or	a5,a5,a4
   166f6:	fef43c23          	sd	a5,-8(s0)
   166fa:	cbffa0ef          	jal	113b8 <__malloc_unlock>
   166fe:	86a2                	mv	a3,s0
   16700:	b3d9                	j	164c6 <_realloc_r+0x14a>
   16702:	8542                	mv	a0,a6
   16704:	85a2                	mv	a1,s0
   16706:	ec1a                	sd	t1,24(sp)
   16708:	e83e                	sd	a5,16(sp)
   1670a:	e436                	sd	a3,8(sp)
   1670c:	e042                	sd	a6,0(sp)
   1670e:	e12fd0ef          	jal	13d20 <memmove>
   16712:	6802                	ld	a6,0(sp)
   16714:	66a2                	ld	a3,8(sp)
   16716:	67c2                	ld	a5,16(sp)
   16718:	6362                	ld	t1,24(sp)
   1671a:	b769                	j	166a4 <_realloc_r+0x328>
   1671c:	6818                	ld	a4,16(s0)
   1671e:	02e33023          	sd	a4,32(t1)
   16722:	6c18                	ld	a4,24(s0)
   16724:	02e33423          	sd	a4,40(t1)
   16728:	06a60463          	beq	a2,a0,16790 <_realloc_r+0x414>
   1672c:	02040413          	addi	s0,s0,32
   16730:	03030713          	addi	a4,t1,48
   16734:	bde5                	j	1662c <_realloc_r+0x2b0>
   16736:	8526                	mv	a0,s1
   16738:	c81fa0ef          	jal	113b8 <__malloc_unlock>
   1673c:	4681                	li	a3,0
   1673e:	bbe9                	j	16518 <_realloc_r+0x19c>
   16740:	7010                	ld	a2,32(s0)
   16742:	03040713          	addi	a4,s0,48
   16746:	03050793          	addi	a5,a0,48
   1674a:	f110                	sd	a2,32(a0)
   1674c:	7410                	ld	a2,40(s0)
   1674e:	f510                	sd	a2,40(a0)
   16750:	b331                	j	1645c <_realloc_r+0xe0>
   16752:	680c                	ld	a1,16(s0)
   16754:	04800713          	li	a4,72
   16758:	02b33023          	sd	a1,32(t1)
   1675c:	6c0c                	ld	a1,24(s0)
   1675e:	02b33423          	sd	a1,40(t1)
   16762:	06e60263          	beq	a2,a4,167c6 <_realloc_r+0x44a>
   16766:	02040413          	addi	s0,s0,32
   1676a:	03030713          	addi	a4,t1,48
   1676e:	b72d                	j	16698 <_realloc_r+0x31c>
   16770:	8536                	mv	a0,a3
   16772:	85a2                	mv	a1,s0
   16774:	ec1a                	sd	t1,24(sp)
   16776:	e83e                	sd	a5,16(sp)
   16778:	e442                	sd	a6,8(sp)
   1677a:	e036                	sd	a3,0(sp)
   1677c:	da4fd0ef          	jal	13d20 <memmove>
   16780:	67ed                	lui	a5,0x1b
   16782:	c0078e93          	addi	t4,a5,-1024 # 1ac00 <__malloc_av_>
   16786:	6362                	ld	t1,24(sp)
   16788:	67c2                	ld	a5,16(sp)
   1678a:	6822                	ld	a6,8(sp)
   1678c:	6682                	ld	a3,0(sp)
   1678e:	bd01                	j	1659e <_realloc_r+0x222>
   16790:	7010                	ld	a2,32(s0)
   16792:	04030713          	addi	a4,t1,64
   16796:	03040413          	addi	s0,s0,48
   1679a:	02c33823          	sd	a2,48(t1)
   1679e:	ff843603          	ld	a2,-8(s0)
   167a2:	02c33c23          	sd	a2,56(t1)
   167a6:	b559                	j	1662c <_realloc_r+0x2b0>
   167a8:	680c                	ld	a1,16(s0)
   167aa:	04800713          	li	a4,72
   167ae:	02b33023          	sd	a1,32(t1)
   167b2:	6c0c                	ld	a1,24(s0)
   167b4:	02b33423          	sd	a1,40(t1)
   167b8:	02e60363          	beq	a2,a4,167de <_realloc_r+0x462>
   167bc:	02040413          	addi	s0,s0,32
   167c0:	03030713          	addi	a4,t1,48
   167c4:	b3f9                	j	16592 <_realloc_r+0x216>
   167c6:	7010                	ld	a2,32(s0)
   167c8:	04030713          	addi	a4,t1,64
   167cc:	03040413          	addi	s0,s0,48
   167d0:	02c33823          	sd	a2,48(t1)
   167d4:	ff843603          	ld	a2,-8(s0)
   167d8:	02c33c23          	sd	a2,56(t1)
   167dc:	bd75                	j	16698 <_realloc_r+0x31c>
   167de:	7010                	ld	a2,32(s0)
   167e0:	04030713          	addi	a4,t1,64
   167e4:	03040413          	addi	s0,s0,48
   167e8:	02c33823          	sd	a2,48(t1)
   167ec:	ff843603          	ld	a2,-8(s0)
   167f0:	02c33c23          	sd	a2,56(t1)
   167f4:	bb79                	j	16592 <_realloc_r+0x216>

00000000000167f6 <__smakebuf_r>:
   167f6:	01059703          	lh	a4,16(a1)
   167fa:	00277793          	andi	a5,a4,2
   167fe:	cb81                	beqz	a5,1680e <__smakebuf_r+0x18>
   16800:	07758793          	addi	a5,a1,119
   16804:	4705                	li	a4,1
   16806:	e19c                	sd	a5,0(a1)
   16808:	ed9c                	sd	a5,24(a1)
   1680a:	d198                	sw	a4,32(a1)
   1680c:	8082                	ret
   1680e:	87ae                	mv	a5,a1
   16810:	01259583          	lh	a1,18(a1)
   16814:	7135                	addi	sp,sp,-160
   16816:	e922                	sd	s0,144(sp)
   16818:	ed06                	sd	ra,152(sp)
   1681a:	842a                	mv	s0,a0
   1681c:	0605c863          	bltz	a1,1688c <__smakebuf_r+0x96>
   16820:	0830                	addi	a2,sp,24
   16822:	e03e                	sd	a5,0(sp)
   16824:	212000ef          	jal	16a36 <_fstat_r>
   16828:	6782                	ld	a5,0(sp)
   1682a:	04054f63          	bltz	a0,16888 <__smakebuf_r+0x92>
   1682e:	40000593          	li	a1,1024
   16832:	8522                	mv	a0,s0
   16834:	e526                	sd	s1,136(sp)
   16836:	e03e                	sd	a5,0(sp)
   16838:	44f2                	lw	s1,28(sp)
   1683a:	d06fa0ef          	jal	10d40 <_malloc_r>
   1683e:	6782                	ld	a5,0(sp)
   16840:	01079703          	lh	a4,16(a5)
   16844:	c159                	beqz	a0,168ca <__smakebuf_r+0xd4>
   16846:	40000693          	li	a3,1024
   1684a:	08076713          	ori	a4,a4,128
   1684e:	d394                	sw	a3,32(a5)
   16850:	40c4d693          	srai	a3,s1,0xc
   16854:	00e79823          	sh	a4,16(a5)
   16858:	e388                	sd	a0,0(a5)
   1685a:	ef88                	sd	a0,24(a5)
   1685c:	8abd                	andi	a3,a3,15
   1685e:	4609                	li	a2,2
   16860:	08c69563          	bne	a3,a2,168ea <__smakebuf_r+0xf4>
   16864:	01279583          	lh	a1,18(a5)
   16868:	8522                	mv	a0,s0
   1686a:	e03e                	sd	a5,0(sp)
   1686c:	204000ef          	jal	16a70 <_isatty_r>
   16870:	6782                	ld	a5,0(sp)
   16872:	01079703          	lh	a4,16(a5)
   16876:	c935                	beqz	a0,168ea <__smakebuf_r+0xf4>
   16878:	9b71                	andi	a4,a4,-4
   1687a:	6685                	lui	a3,0x1
   1687c:	64aa                	ld	s1,136(sp)
   1687e:	00176713          	ori	a4,a4,1
   16882:	80068693          	addi	a3,a3,-2048 # 800 <exit-0xf920>
   16886:	a805                	j	168b6 <__smakebuf_r+0xc0>
   16888:	01079703          	lh	a4,16(a5)
   1688c:	08077713          	andi	a4,a4,128
   16890:	40000593          	li	a1,1024
   16894:	eb05                	bnez	a4,168c4 <__smakebuf_r+0xce>
   16896:	8522                	mv	a0,s0
   16898:	e43e                	sd	a5,8(sp)
   1689a:	e02e                	sd	a1,0(sp)
   1689c:	ca4fa0ef          	jal	10d40 <_malloc_r>
   168a0:	67a2                	ld	a5,8(sp)
   168a2:	6582                	ld	a1,0(sp)
   168a4:	01079703          	lh	a4,16(a5)
   168a8:	c115                	beqz	a0,168cc <__smakebuf_r+0xd6>
   168aa:	08076713          	ori	a4,a4,128
   168ae:	e388                	sd	a0,0(a5)
   168b0:	ef88                	sd	a0,24(a5)
   168b2:	d38c                	sw	a1,32(a5)
   168b4:	4681                	li	a3,0
   168b6:	8f55                	or	a4,a4,a3
   168b8:	00e79823          	sh	a4,16(a5)
   168bc:	60ea                	ld	ra,152(sp)
   168be:	644a                	ld	s0,144(sp)
   168c0:	610d                	addi	sp,sp,160
   168c2:	8082                	ret
   168c4:	04000593          	li	a1,64
   168c8:	b7f9                	j	16896 <__smakebuf_r+0xa0>
   168ca:	64aa                	ld	s1,136(sp)
   168cc:	20077693          	andi	a3,a4,512
   168d0:	f6f5                	bnez	a3,168bc <__smakebuf_r+0xc6>
   168d2:	9b71                	andi	a4,a4,-4
   168d4:	07778693          	addi	a3,a5,119
   168d8:	00276713          	ori	a4,a4,2
   168dc:	4605                	li	a2,1
   168de:	00e79823          	sh	a4,16(a5)
   168e2:	e394                	sd	a3,0(a5)
   168e4:	ef94                	sd	a3,24(a5)
   168e6:	d390                	sw	a2,32(a5)
   168e8:	bfd1                	j	168bc <__smakebuf_r+0xc6>
   168ea:	6685                	lui	a3,0x1
   168ec:	64aa                	ld	s1,136(sp)
   168ee:	80068693          	addi	a3,a3,-2048 # 800 <exit-0xf920>
   168f2:	b7d1                	j	168b6 <__smakebuf_r+0xc0>

00000000000168f4 <__swhatbuf_r>:
   168f4:	87ae                	mv	a5,a1
   168f6:	01259583          	lh	a1,18(a1)
   168fa:	8732                	mv	a4,a2
   168fc:	0405ce63          	bltz	a1,16958 <__swhatbuf_r+0x64>
   16900:	7135                	addi	sp,sp,-160
   16902:	e832                	sd	a2,16(sp)
   16904:	1030                	addi	a2,sp,40
   16906:	ec36                	sd	a3,24(sp)
   16908:	e43e                	sd	a5,8(sp)
   1690a:	ed06                	sd	ra,152(sp)
   1690c:	12a000ef          	jal	16a36 <_fstat_r>
   16910:	67a2                	ld	a5,8(sp)
   16912:	6742                	ld	a4,16(sp)
   16914:	66e2                	ld	a3,24(sp)
   16916:	02054363          	bltz	a0,1693c <__swhatbuf_r+0x48>
   1691a:	57b2                	lw	a5,44(sp)
   1691c:	65bd                	lui	a1,0xf
   1691e:	6609                	lui	a2,0x2
   16920:	8fed                	and	a5,a5,a1
   16922:	8f91                	sub	a5,a5,a2
   16924:	60ea                	ld	ra,152(sp)
   16926:	0017b793          	seqz	a5,a5
   1692a:	c29c                	sw	a5,0(a3)
   1692c:	40000613          	li	a2,1024
   16930:	6505                	lui	a0,0x1
   16932:	e310                	sd	a2,0(a4)
   16934:	80050513          	addi	a0,a0,-2048 # 800 <exit-0xf920>
   16938:	610d                	addi	sp,sp,160
   1693a:	8082                	ret
   1693c:	0107d783          	lhu	a5,16(a5)
   16940:	0807f793          	andi	a5,a5,128
   16944:	c78d                	beqz	a5,1696e <__swhatbuf_r+0x7a>
   16946:	60ea                	ld	ra,152(sp)
   16948:	4781                	li	a5,0
   1694a:	c29c                	sw	a5,0(a3)
   1694c:	04000613          	li	a2,64
   16950:	e310                	sd	a2,0(a4)
   16952:	4501                	li	a0,0
   16954:	610d                	addi	sp,sp,160
   16956:	8082                	ret
   16958:	0107d783          	lhu	a5,16(a5)
   1695c:	0807f793          	andi	a5,a5,128
   16960:	ef99                	bnez	a5,1697e <__swhatbuf_r+0x8a>
   16962:	40000613          	li	a2,1024
   16966:	c29c                	sw	a5,0(a3)
   16968:	4501                	li	a0,0
   1696a:	e310                	sd	a2,0(a4)
   1696c:	8082                	ret
   1696e:	60ea                	ld	ra,152(sp)
   16970:	c29c                	sw	a5,0(a3)
   16972:	40000613          	li	a2,1024
   16976:	e310                	sd	a2,0(a4)
   16978:	4501                	li	a0,0
   1697a:	610d                	addi	sp,sp,160
   1697c:	8082                	ret
   1697e:	4781                	li	a5,0
   16980:	04000613          	li	a2,64
   16984:	c29c                	sw	a5,0(a3)
   16986:	4501                	li	a0,0
   16988:	e310                	sd	a2,0(a4)
   1698a:	8082                	ret

000000000001698c <_setlocale_r>:
   1698c:	c21d                	beqz	a2,169b2 <_setlocale_r+0x26>
   1698e:	65e5                	lui	a1,0x19
   16990:	1101                	addi	sp,sp,-32
   16992:	39858593          	addi	a1,a1,920 # 19398 <__clzdi2+0x19e>
   16996:	8532                	mv	a0,a2
   16998:	e822                	sd	s0,16(sp)
   1699a:	ec06                	sd	ra,24(sp)
   1699c:	8432                	mv	s0,a2
   1699e:	108000ef          	jal	16aa6 <strcmp>
   169a2:	67e5                	lui	a5,0x19
   169a4:	e919                	bnez	a0,169ba <_setlocale_r+0x2e>
   169a6:	39078513          	addi	a0,a5,912 # 19390 <__clzdi2+0x196>
   169aa:	60e2                	ld	ra,24(sp)
   169ac:	6442                	ld	s0,16(sp)
   169ae:	6105                	addi	sp,sp,32
   169b0:	8082                	ret
   169b2:	67e5                	lui	a5,0x19
   169b4:	39078513          	addi	a0,a5,912 # 19390 <__clzdi2+0x196>
   169b8:	8082                	ret
   169ba:	39078593          	addi	a1,a5,912
   169be:	8522                	mv	a0,s0
   169c0:	e43e                	sd	a5,8(sp)
   169c2:	0e4000ef          	jal	16aa6 <strcmp>
   169c6:	67a2                	ld	a5,8(sp)
   169c8:	dd79                	beqz	a0,169a6 <_setlocale_r+0x1a>
   169ca:	65e5                	lui	a1,0x19
   169cc:	8522                	mv	a0,s0
   169ce:	28058593          	addi	a1,a1,640 # 19280 <__clzdi2+0x86>
   169d2:	0d4000ef          	jal	16aa6 <strcmp>
   169d6:	67a2                	ld	a5,8(sp)
   169d8:	d579                	beqz	a0,169a6 <_setlocale_r+0x1a>
   169da:	4501                	li	a0,0
   169dc:	b7f9                	j	169aa <_setlocale_r+0x1e>

00000000000169de <__locale_mb_cur_max>:
   169de:	1601c503          	lbu	a0,352(gp) # 1b570 <__global_locale+0x160>
   169e2:	8082                	ret

00000000000169e4 <setlocale>:
   169e4:	c19d                	beqz	a1,16a0a <setlocale+0x26>
   169e6:	1101                	addi	sp,sp,-32
   169e8:	e822                	sd	s0,16(sp)
   169ea:	852e                	mv	a0,a1
   169ec:	842e                	mv	s0,a1
   169ee:	65e5                	lui	a1,0x19
   169f0:	39858593          	addi	a1,a1,920 # 19398 <__clzdi2+0x19e>
   169f4:	ec06                	sd	ra,24(sp)
   169f6:	0b0000ef          	jal	16aa6 <strcmp>
   169fa:	67e5                	lui	a5,0x19
   169fc:	e919                	bnez	a0,16a12 <setlocale+0x2e>
   169fe:	39078513          	addi	a0,a5,912 # 19390 <__clzdi2+0x196>
   16a02:	60e2                	ld	ra,24(sp)
   16a04:	6442                	ld	s0,16(sp)
   16a06:	6105                	addi	sp,sp,32
   16a08:	8082                	ret
   16a0a:	67e5                	lui	a5,0x19
   16a0c:	39078513          	addi	a0,a5,912 # 19390 <__clzdi2+0x196>
   16a10:	8082                	ret
   16a12:	39078593          	addi	a1,a5,912
   16a16:	8522                	mv	a0,s0
   16a18:	e43e                	sd	a5,8(sp)
   16a1a:	08c000ef          	jal	16aa6 <strcmp>
   16a1e:	67a2                	ld	a5,8(sp)
   16a20:	dd79                	beqz	a0,169fe <setlocale+0x1a>
   16a22:	65e5                	lui	a1,0x19
   16a24:	8522                	mv	a0,s0
   16a26:	28058593          	addi	a1,a1,640 # 19280 <__clzdi2+0x86>
   16a2a:	07c000ef          	jal	16aa6 <strcmp>
   16a2e:	67a2                	ld	a5,8(sp)
   16a30:	d579                	beqz	a0,169fe <setlocale+0x1a>
   16a32:	4501                	li	a0,0
   16a34:	b7f9                	j	16a02 <setlocale+0x1e>

0000000000016a36 <_fstat_r>:
   16a36:	1101                	addi	sp,sp,-32
   16a38:	87ae                	mv	a5,a1
   16a3a:	e822                	sd	s0,16(sp)
   16a3c:	e426                	sd	s1,8(sp)
   16a3e:	85b2                	mv	a1,a2
   16a40:	84aa                	mv	s1,a0
   16a42:	853e                	mv	a0,a5
   16a44:	ec06                	sd	ra,24(sp)
   16a46:	2401a023          	sw	zero,576(gp) # 1b650 <errno>
   16a4a:	3d8010ef          	jal	17e22 <_fstat>
   16a4e:	57fd                	li	a5,-1
   16a50:	00f50763          	beq	a0,a5,16a5e <_fstat_r+0x28>
   16a54:	60e2                	ld	ra,24(sp)
   16a56:	6442                	ld	s0,16(sp)
   16a58:	64a2                	ld	s1,8(sp)
   16a5a:	6105                	addi	sp,sp,32
   16a5c:	8082                	ret
   16a5e:	2401a783          	lw	a5,576(gp) # 1b650 <errno>
   16a62:	dbed                	beqz	a5,16a54 <_fstat_r+0x1e>
   16a64:	60e2                	ld	ra,24(sp)
   16a66:	6442                	ld	s0,16(sp)
   16a68:	c09c                	sw	a5,0(s1)
   16a6a:	64a2                	ld	s1,8(sp)
   16a6c:	6105                	addi	sp,sp,32
   16a6e:	8082                	ret

0000000000016a70 <_isatty_r>:
   16a70:	1101                	addi	sp,sp,-32
   16a72:	e822                	sd	s0,16(sp)
   16a74:	e426                	sd	s1,8(sp)
   16a76:	84aa                	mv	s1,a0
   16a78:	852e                	mv	a0,a1
   16a7a:	ec06                	sd	ra,24(sp)
   16a7c:	2401a023          	sw	zero,576(gp) # 1b650 <errno>
   16a80:	3e8010ef          	jal	17e68 <_isatty>
   16a84:	57fd                	li	a5,-1
   16a86:	00f50763          	beq	a0,a5,16a94 <_isatty_r+0x24>
   16a8a:	60e2                	ld	ra,24(sp)
   16a8c:	6442                	ld	s0,16(sp)
   16a8e:	64a2                	ld	s1,8(sp)
   16a90:	6105                	addi	sp,sp,32
   16a92:	8082                	ret
   16a94:	2401a783          	lw	a5,576(gp) # 1b650 <errno>
   16a98:	dbed                	beqz	a5,16a8a <_isatty_r+0x1a>
   16a9a:	60e2                	ld	ra,24(sp)
   16a9c:	6442                	ld	s0,16(sp)
   16a9e:	c09c                	sw	a5,0(s1)
   16aa0:	64a2                	ld	s1,8(sp)
   16aa2:	6105                	addi	sp,sp,32
   16aa4:	8082                	ret

0000000000016aa6 <strcmp>:
   16aa6:	00b56733          	or	a4,a0,a1
   16aaa:	53fd                	li	t2,-1
   16aac:	8b1d                	andi	a4,a4,7
   16aae:	eb4d                	bnez	a4,16b60 <strcmp+0xba>
   16ab0:	00005797          	auipc	a5,0x5
   16ab4:	b707b783          	ld	a5,-1168(a5) # 1b620 <mask>
   16ab8:	6110                	ld	a2,0(a0)
   16aba:	6194                	ld	a3,0(a1)
   16abc:	00f672b3          	and	t0,a2,a5
   16ac0:	00f66333          	or	t1,a2,a5
   16ac4:	92be                	add	t0,t0,a5
   16ac6:	0062e2b3          	or	t0,t0,t1
   16aca:	0a729963          	bne	t0,t2,16b7c <strcmp+0xd6>
   16ace:	02d61e63          	bne	a2,a3,16b0a <strcmp+0x64>
   16ad2:	6510                	ld	a2,8(a0)
   16ad4:	6594                	ld	a3,8(a1)
   16ad6:	00f672b3          	and	t0,a2,a5
   16ada:	00f66333          	or	t1,a2,a5
   16ade:	92be                	add	t0,t0,a5
   16ae0:	0062e2b3          	or	t0,t0,t1
   16ae4:	08729a63          	bne	t0,t2,16b78 <strcmp+0xd2>
   16ae8:	02d61163          	bne	a2,a3,16b0a <strcmp+0x64>
   16aec:	6910                	ld	a2,16(a0)
   16aee:	6994                	ld	a3,16(a1)
   16af0:	00f672b3          	and	t0,a2,a5
   16af4:	00f66333          	or	t1,a2,a5
   16af8:	92be                	add	t0,t0,a5
   16afa:	0062e2b3          	or	t0,t0,t1
   16afe:	08729363          	bne	t0,t2,16b84 <strcmp+0xde>
   16b02:	0561                	addi	a0,a0,24
   16b04:	05e1                	addi	a1,a1,24
   16b06:	fad609e3          	beq	a2,a3,16ab8 <strcmp+0x12>
   16b0a:	03061713          	slli	a4,a2,0x30
   16b0e:	03069793          	slli	a5,a3,0x30
   16b12:	02f71863          	bne	a4,a5,16b42 <strcmp+0x9c>
   16b16:	02061713          	slli	a4,a2,0x20
   16b1a:	02069793          	slli	a5,a3,0x20
   16b1e:	02f71263          	bne	a4,a5,16b42 <strcmp+0x9c>
   16b22:	01061713          	slli	a4,a2,0x10
   16b26:	01069793          	slli	a5,a3,0x10
   16b2a:	00f71c63          	bne	a4,a5,16b42 <strcmp+0x9c>
   16b2e:	03065713          	srli	a4,a2,0x30
   16b32:	0306d793          	srli	a5,a3,0x30
   16b36:	40f70533          	sub	a0,a4,a5
   16b3a:	0ff57593          	zext.b	a1,a0
   16b3e:	e991                	bnez	a1,16b52 <strcmp+0xac>
   16b40:	8082                	ret
   16b42:	9341                	srli	a4,a4,0x30
   16b44:	93c1                	srli	a5,a5,0x30
   16b46:	40f70533          	sub	a0,a4,a5
   16b4a:	0ff57593          	zext.b	a1,a0
   16b4e:	e191                	bnez	a1,16b52 <strcmp+0xac>
   16b50:	8082                	ret
   16b52:	0ff77713          	zext.b	a4,a4
   16b56:	0ff7f793          	zext.b	a5,a5
   16b5a:	40f70533          	sub	a0,a4,a5
   16b5e:	8082                	ret
   16b60:	00054603          	lbu	a2,0(a0)
   16b64:	0005c683          	lbu	a3,0(a1)
   16b68:	0505                	addi	a0,a0,1
   16b6a:	0585                	addi	a1,a1,1
   16b6c:	00d61363          	bne	a2,a3,16b72 <strcmp+0xcc>
   16b70:	fa65                	bnez	a2,16b60 <strcmp+0xba>
   16b72:	40d60533          	sub	a0,a2,a3
   16b76:	8082                	ret
   16b78:	0521                	addi	a0,a0,8
   16b7a:	05a1                	addi	a1,a1,8
   16b7c:	fed612e3          	bne	a2,a3,16b60 <strcmp+0xba>
   16b80:	4501                	li	a0,0
   16b82:	8082                	ret
   16b84:	0541                	addi	a0,a0,16
   16b86:	05c1                	addi	a1,a1,16
   16b88:	fcd61ce3          	bne	a2,a3,16b60 <strcmp+0xba>
   16b8c:	4501                	li	a0,0
   16b8e:	8082                	ret

0000000000016b90 <__assert_func>:
   16b90:	2201b783          	ld	a5,544(gp) # 1b630 <_impure_ptr>
   16b94:	1141                	addi	sp,sp,-16
   16b96:	8832                	mv	a6,a2
   16b98:	e406                	sd	ra,8(sp)
   16b9a:	832a                	mv	t1,a0
   16b9c:	872e                	mv	a4,a1
   16b9e:	6f88                	ld	a0,24(a5)
   16ba0:	8636                	mv	a2,a3
   16ba2:	00080d63          	beqz	a6,16bbc <__assert_func+0x2c>
   16ba6:	67e5                	lui	a5,0x19
   16ba8:	3a878793          	addi	a5,a5,936 # 193a8 <__clzdi2+0x1ae>
   16bac:	65e5                	lui	a1,0x19
   16bae:	869a                	mv	a3,t1
   16bb0:	3b858593          	addi	a1,a1,952 # 193b8 <__clzdi2+0x1be>
   16bb4:	152000ef          	jal	16d06 <fiprintf>
   16bb8:	6c7000ef          	jal	17a7e <abort>
   16bbc:	67e5                	lui	a5,0x19
   16bbe:	28078793          	addi	a5,a5,640 # 19280 <__clzdi2+0x86>
   16bc2:	883e                	mv	a6,a5
   16bc4:	b7e5                	j	16bac <__assert_func+0x1c>

0000000000016bc6 <__assert>:
   16bc6:	1141                	addi	sp,sp,-16
   16bc8:	86b2                	mv	a3,a2
   16bca:	4601                	li	a2,0
   16bcc:	e406                	sd	ra,8(sp)
   16bce:	fc3ff0ef          	jal	16b90 <__assert_func>

0000000000016bd2 <_calloc_r>:
   16bd2:	02c5b7b3          	mulhu	a5,a1,a2
   16bd6:	1101                	addi	sp,sp,-32
   16bd8:	ec06                	sd	ra,24(sp)
   16bda:	02c585b3          	mul	a1,a1,a2
   16bde:	efb5                	bnez	a5,16c5a <_calloc_r+0x88>
   16be0:	960fa0ef          	jal	10d40 <_malloc_r>
   16be4:	87aa                	mv	a5,a0
   16be6:	cd35                	beqz	a0,16c62 <_calloc_r+0x90>
   16be8:	ff853603          	ld	a2,-8(a0)
   16bec:	04800693          	li	a3,72
   16bf0:	9a71                	andi	a2,a2,-4
   16bf2:	1661                	addi	a2,a2,-8 # 1ff8 <exit-0xe128>
   16bf4:	04c6e163          	bltu	a3,a2,16c36 <_calloc_r+0x64>
   16bf8:	02700593          	li	a1,39
   16bfc:	872a                	mv	a4,a0
   16bfe:	02c5f263          	bgeu	a1,a2,16c22 <_calloc_r+0x50>
   16c02:	00053023          	sd	zero,0(a0)
   16c06:	00053423          	sd	zero,8(a0)
   16c0a:	03700713          	li	a4,55
   16c0e:	02c77d63          	bgeu	a4,a2,16c48 <_calloc_r+0x76>
   16c12:	00053823          	sd	zero,16(a0)
   16c16:	00053c23          	sd	zero,24(a0)
   16c1a:	02050713          	addi	a4,a0,32
   16c1e:	04d60763          	beq	a2,a3,16c6c <_calloc_r+0x9a>
   16c22:	00073023          	sd	zero,0(a4)
   16c26:	00073423          	sd	zero,8(a4)
   16c2a:	00073823          	sd	zero,16(a4)
   16c2e:	60e2                	ld	ra,24(sp)
   16c30:	853e                	mv	a0,a5
   16c32:	6105                	addi	sp,sp,32
   16c34:	8082                	ret
   16c36:	4581                	li	a1,0
   16c38:	e42a                	sd	a0,8(sp)
   16c3a:	c7ff90ef          	jal	108b8 <memset>
   16c3e:	67a2                	ld	a5,8(sp)
   16c40:	60e2                	ld	ra,24(sp)
   16c42:	853e                	mv	a0,a5
   16c44:	6105                	addi	sp,sp,32
   16c46:	8082                	ret
   16c48:	01050713          	addi	a4,a0,16
   16c4c:	00073023          	sd	zero,0(a4)
   16c50:	00073423          	sd	zero,8(a4)
   16c54:	00073823          	sd	zero,16(a4)
   16c58:	bfd9                	j	16c2e <_calloc_r+0x5c>
   16c5a:	61f000ef          	jal	17a78 <__errno>
   16c5e:	47b1                	li	a5,12
   16c60:	c11c                	sw	a5,0(a0)
   16c62:	60e2                	ld	ra,24(sp)
   16c64:	4781                	li	a5,0
   16c66:	853e                	mv	a0,a5
   16c68:	6105                	addi	sp,sp,32
   16c6a:	8082                	ret
   16c6c:	02053023          	sd	zero,32(a0)
   16c70:	02053423          	sd	zero,40(a0)
   16c74:	03050713          	addi	a4,a0,48
   16c78:	b76d                	j	16c22 <_calloc_r+0x50>

0000000000016c7a <_mbtowc_r>:
   16c7a:	0e81b783          	ld	a5,232(gp) # 1b4f8 <__global_locale+0xe8>
   16c7e:	8782                	jr	a5

0000000000016c80 <__ascii_mbtowc>:
   16c80:	c999                	beqz	a1,16c96 <__ascii_mbtowc+0x16>
   16c82:	c61d                	beqz	a2,16cb0 <__ascii_mbtowc+0x30>
   16c84:	ca95                	beqz	a3,16cb8 <__ascii_mbtowc+0x38>
   16c86:	00064783          	lbu	a5,0(a2)
   16c8a:	c19c                	sw	a5,0(a1)
   16c8c:	00064503          	lbu	a0,0(a2)
   16c90:	00a03533          	snez	a0,a0
   16c94:	8082                	ret
   16c96:	1141                	addi	sp,sp,-16
   16c98:	006c                	addi	a1,sp,12
   16c9a:	ce09                	beqz	a2,16cb4 <__ascii_mbtowc+0x34>
   16c9c:	c285                	beqz	a3,16cbc <__ascii_mbtowc+0x3c>
   16c9e:	00064783          	lbu	a5,0(a2)
   16ca2:	c19c                	sw	a5,0(a1)
   16ca4:	00064503          	lbu	a0,0(a2)
   16ca8:	00a03533          	snez	a0,a0
   16cac:	0141                	addi	sp,sp,16
   16cae:	8082                	ret
   16cb0:	4501                	li	a0,0
   16cb2:	8082                	ret
   16cb4:	4501                	li	a0,0
   16cb6:	bfdd                	j	16cac <__ascii_mbtowc+0x2c>
   16cb8:	5579                	li	a0,-2
   16cba:	8082                	ret
   16cbc:	5579                	li	a0,-2
   16cbe:	b7fd                	j	16cac <__ascii_mbtowc+0x2c>

0000000000016cc0 <_wctomb_r>:
   16cc0:	0e01b783          	ld	a5,224(gp) # 1b4f0 <__global_locale+0xe0>
   16cc4:	8782                	jr	a5

0000000000016cc6 <__ascii_wctomb>:
   16cc6:	cd91                	beqz	a1,16ce2 <__ascii_wctomb+0x1c>
   16cc8:	0ff00793          	li	a5,255
   16ccc:	00c7e663          	bltu	a5,a2,16cd8 <__ascii_wctomb+0x12>
   16cd0:	00c58023          	sb	a2,0(a1)
   16cd4:	4505                	li	a0,1
   16cd6:	8082                	ret
   16cd8:	08a00793          	li	a5,138
   16cdc:	c11c                	sw	a5,0(a0)
   16cde:	557d                	li	a0,-1
   16ce0:	8082                	ret
   16ce2:	4501                	li	a0,0
   16ce4:	8082                	ret

0000000000016ce6 <_fiprintf_r>:
   16ce6:	715d                	addi	sp,sp,-80
   16ce8:	02810313          	addi	t1,sp,40
   16cec:	f436                	sd	a3,40(sp)
   16cee:	869a                	mv	a3,t1
   16cf0:	ec06                	sd	ra,24(sp)
   16cf2:	f83a                	sd	a4,48(sp)
   16cf4:	fc3e                	sd	a5,56(sp)
   16cf6:	e0c2                	sd	a6,64(sp)
   16cf8:	e4c6                	sd	a7,72(sp)
   16cfa:	e41a                	sd	t1,8(sp)
   16cfc:	038000ef          	jal	16d34 <_vfiprintf_r>
   16d00:	60e2                	ld	ra,24(sp)
   16d02:	6161                	addi	sp,sp,80
   16d04:	8082                	ret

0000000000016d06 <fiprintf>:
   16d06:	715d                	addi	sp,sp,-80
   16d08:	8eaa                	mv	t4,a0
   16d0a:	2201b503          	ld	a0,544(gp) # 1b630 <_impure_ptr>
   16d0e:	8e2e                	mv	t3,a1
   16d10:	02010313          	addi	t1,sp,32
   16d14:	f032                	sd	a2,32(sp)
   16d16:	f436                	sd	a3,40(sp)
   16d18:	85f6                	mv	a1,t4
   16d1a:	8672                	mv	a2,t3
   16d1c:	869a                	mv	a3,t1
   16d1e:	ec06                	sd	ra,24(sp)
   16d20:	f83a                	sd	a4,48(sp)
   16d22:	fc3e                	sd	a5,56(sp)
   16d24:	e0c2                	sd	a6,64(sp)
   16d26:	e4c6                	sd	a7,72(sp)
   16d28:	e41a                	sd	t1,8(sp)
   16d2a:	00a000ef          	jal	16d34 <_vfiprintf_r>
   16d2e:	60e2                	ld	ra,24(sp)
   16d30:	6161                	addi	sp,sp,80
   16d32:	8082                	ret

0000000000016d34 <_vfiprintf_r>:
   16d34:	7145                	addi	sp,sp,-464
   16d36:	fb4a                	sd	s2,432(sp)
   16d38:	e362                	sd	s8,384(sp)
   16d3a:	f6ee                	sd	s11,360(sp)
   16d3c:	e786                	sd	ra,456(sp)
   16d3e:	e02a                	sd	a0,0(sp)
   16d40:	8db2                	mv	s11,a2
   16d42:	8c36                	mv	s8,a3
   16d44:	892e                	mv	s2,a1
   16d46:	c501                	beqz	a0,16d4e <_vfiprintf_r+0x1a>
   16d48:	653c                	ld	a5,72(a0)
   16d4a:	2e078ee3          	beqz	a5,17846 <_vfiprintf_r+0xb12>
   16d4e:	01091783          	lh	a5,16(s2)
   16d52:	0ac92703          	lw	a4,172(s2)
   16d56:	6609                	lui	a2,0x2
   16d58:	03279693          	slli	a3,a5,0x32
   16d5c:	2606c163          	bltz	a3,16fbe <_vfiprintf_r+0x28a>
   16d60:	76f9                	lui	a3,0xffffe
   16d62:	8fd1                	or	a5,a5,a2
   16d64:	16fd                	addi	a3,a3,-1 # ffffffffffffdfff <__BSS_END__+0xfffffffffffe23ef>
   16d66:	8f75                	and	a4,a4,a3
   16d68:	00f91823          	sh	a5,16(s2)
   16d6c:	0107979b          	slliw	a5,a5,0x10
   16d70:	4107d79b          	sraiw	a5,a5,0x10
   16d74:	0ae92623          	sw	a4,172(s2)
   16d78:	0087f713          	andi	a4,a5,8
   16d7c:	1c070763          	beqz	a4,16f4a <_vfiprintf_r+0x216>
   16d80:	01893703          	ld	a4,24(s2)
   16d84:	1c070363          	beqz	a4,16f4a <_vfiprintf_r+0x216>
   16d88:	8be9                	andi	a5,a5,26
   16d8a:	4729                	li	a4,10
   16d8c:	1ce78a63          	beq	a5,a4,16f60 <_vfiprintf_r+0x22c>
   16d90:	6765                	lui	a4,0x19
   16d92:	ef56                	sd	s5,408(sp)
   16d94:	eb5a                	sd	s6,400(sp)
   16d96:	0e010a93          	addi	s5,sp,224
   16d9a:	6b69                	lui	s6,0x1a
   16d9c:	7e470713          	addi	a4,a4,2020 # 197e4 <_ctype_+0x104>
   16da0:	e3a2                	sd	s0,448(sp)
   16da2:	ff26                	sd	s1,440(sp)
   16da4:	f74e                	sd	s3,424(sp)
   16da6:	f352                	sd	s4,416(sp)
   16da8:	e75e                	sd	s7,392(sp)
   16daa:	fee6                	sd	s9,376(sp)
   16dac:	faea                	sd	s10,368(sp)
   16dae:	f882                	sd	zero,112(sp)
   16db0:	d482                	sw	zero,104(sp)
   16db2:	f0d6                	sd	s5,96(sp)
   16db4:	87d6                	mv	a5,s5
   16db6:	ec3a                	sd	a4,24(sp)
   16db8:	950b0b13          	addi	s6,s6,-1712 # 19950 <zeroes.0>
   16dbc:	f802                	sd	zero,48(sp)
   16dbe:	e082                	sd	zero,64(sp)
   16dc0:	fc02                	sd	zero,56(sp)
   16dc2:	e402                	sd	zero,8(sp)
   16dc4:	4441                	li	s0,16
   16dc6:	000dc683          	lbu	a3,0(s11)
   16dca:	84ee                	mv	s1,s11
   16dcc:	fdb68713          	addi	a4,a3,-37
   16dd0:	0006861b          	sext.w	a2,a3
   16dd4:	c721                	beqz	a4,16e1c <_vfiprintf_r+0xe8>
   16dd6:	c239                	beqz	a2,16e1c <_vfiprintf_r+0xe8>
   16dd8:	89a6                	mv	s3,s1
   16dda:	0014c683          	lbu	a3,1(s1)
   16dde:	0485                	addi	s1,s1,1
   16de0:	0006871b          	sext.w	a4,a3
   16de4:	c681                	beqz	a3,16dec <_vfiprintf_r+0xb8>
   16de6:	fdb70713          	addi	a4,a4,-37
   16dea:	f77d                	bnez	a4,16dd8 <_vfiprintf_r+0xa4>
   16dec:	41b48bbb          	subw	s7,s1,s11
   16df0:	020b8663          	beqz	s7,16e1c <_vfiprintf_r+0xe8>
   16df4:	76c6                	ld	a3,112(sp)
   16df6:	5726                	lw	a4,104(sp)
   16df8:	01b7b023          	sd	s11,0(a5)
   16dfc:	96de                	add	a3,a3,s7
   16dfe:	2705                	addiw	a4,a4,1
   16e00:	0177b423          	sd	s7,8(a5)
   16e04:	f8b6                	sd	a3,112(sp)
   16e06:	d4ba                	sw	a4,104(sp)
   16e08:	469d                	li	a3,7
   16e0a:	07c1                	addi	a5,a5,16
   16e0c:	16e6c963          	blt	a3,a4,16f7e <_vfiprintf_r+0x24a>
   16e10:	6722                	ld	a4,8(sp)
   16e12:	0019c683          	lbu	a3,1(s3)
   16e16:	0177073b          	addw	a4,a4,s7
   16e1a:	e43a                	sd	a4,8(sp)
   16e1c:	16068963          	beqz	a3,16f8e <_vfiprintf_r+0x25a>
   16e20:	0014c703          	lbu	a4,1(s1)
   16e24:	00148d93          	addi	s11,s1,1
   16e28:	04010ba3          	sb	zero,87(sp)
   16e2c:	587d                	li	a6,-1
   16e2e:	4481                	li	s1,0
   16e30:	4a01                	li	s4,0
   16e32:	05a00993          	li	s3,90
   16e36:	0d85                	addi	s11,s11,1
   16e38:	2701                	sext.w	a4,a4
   16e3a:	fe07069b          	addiw	a3,a4,-32
   16e3e:	04d9e263          	bltu	s3,a3,16e82 <_vfiprintf_r+0x14e>
   16e42:	02069613          	slli	a2,a3,0x20
   16e46:	01e65693          	srli	a3,a2,0x1e
   16e4a:	6662                	ld	a2,24(sp)
   16e4c:	96b2                	add	a3,a3,a2
   16e4e:	4294                	lw	a3,0(a3)
   16e50:	8682                	jr	a3
   16e52:	4481                	li	s1,0
   16e54:	4525                	li	a0,9
   16e56:	000dc603          	lbu	a2,0(s11)
   16e5a:	0024969b          	slliw	a3,s1,0x2
   16e5e:	9ea5                	addw	a3,a3,s1
   16e60:	fd07071b          	addiw	a4,a4,-48
   16e64:	0016969b          	slliw	a3,a3,0x1
   16e68:	fd06059b          	addiw	a1,a2,-48 # 1fd0 <exit-0xe150>
   16e6c:	0d85                	addi	s11,s11,1
   16e6e:	00d704bb          	addw	s1,a4,a3
   16e72:	0006071b          	sext.w	a4,a2
   16e76:	feb570e3          	bgeu	a0,a1,16e56 <_vfiprintf_r+0x122>
   16e7a:	fe07069b          	addiw	a3,a4,-32
   16e7e:	fcd9f2e3          	bgeu	s3,a3,16e42 <_vfiprintf_r+0x10e>
   16e82:	10070663          	beqz	a4,16f8e <_vfiprintf_r+0x25a>
   16e86:	4b85                	li	s7,1
   16e88:	06e10c23          	sb	a4,120(sp)
   16e8c:	04010ba3          	sb	zero,87(sp)
   16e90:	89de                	mv	s3,s7
   16e92:	4801                	li	a6,0
   16e94:	07810c93          	addi	s9,sp,120
   16e98:	75c6                	ld	a1,112(sp)
   16e9a:	5626                	lw	a2,104(sp)
   16e9c:	084a7f13          	andi	t5,s4,132
   16ea0:	86ae                	mv	a3,a1
   16ea2:	8732                	mv	a4,a2
   16ea4:	040f1663          	bnez	t5,16ef0 <_vfiprintf_r+0x1bc>
   16ea8:	41348d3b          	subw	s10,s1,s3
   16eac:	75a04d63          	bgtz	s10,17606 <_vfiprintf_r+0x8d2>
   16eb0:	05714603          	lbu	a2,87(sp)
   16eb4:	c231                	beqz	a2,16ef8 <_vfiprintf_r+0x1c4>
   16eb6:	4f01                	li	t5,0
   16eb8:	f402                	sd	zero,40(sp)
   16eba:	05710613          	addi	a2,sp,87
   16ebe:	e390                	sd	a2,0(a5)
   16ec0:	0685                	addi	a3,a3,1
   16ec2:	4605                	li	a2,1
   16ec4:	2705                	addiw	a4,a4,1
   16ec6:	e790                	sd	a2,8(a5)
   16ec8:	f8b6                	sd	a3,112(sp)
   16eca:	d4ba                	sw	a4,104(sp)
   16ecc:	461d                	li	a2,7
   16ece:	07c1                	addi	a5,a5,16
   16ed0:	66e64463          	blt	a2,a4,17538 <_vfiprintf_r+0x804>
   16ed4:	7622                	ld	a2,40(sp)
   16ed6:	ce09                	beqz	a2,16ef0 <_vfiprintf_r+0x1bc>
   16ed8:	08b0                	addi	a2,sp,88
   16eda:	e390                	sd	a2,0(a5)
   16edc:	0689                	addi	a3,a3,2
   16ede:	4609                	li	a2,2
   16ee0:	2705                	addiw	a4,a4,1
   16ee2:	e790                	sd	a2,8(a5)
   16ee4:	f8b6                	sd	a3,112(sp)
   16ee6:	d4ba                	sw	a4,104(sp)
   16ee8:	461d                	li	a2,7
   16eea:	07c1                	addi	a5,a5,16
   16eec:	62e64763          	blt	a2,a4,1751a <_vfiprintf_r+0x7e6>
   16ef0:	08000613          	li	a2,128
   16ef4:	50cf0263          	beq	t5,a2,173f8 <_vfiprintf_r+0x6c4>
   16ef8:	41780d3b          	subw	s10,a6,s7
   16efc:	59a04663          	bgtz	s10,17488 <_vfiprintf_r+0x754>
   16f00:	96de                	add	a3,a3,s7
   16f02:	2705                	addiw	a4,a4,1
   16f04:	0197b023          	sd	s9,0(a5)
   16f08:	0177b423          	sd	s7,8(a5)
   16f0c:	f8b6                	sd	a3,112(sp)
   16f0e:	d4ba                	sw	a4,104(sp)
   16f10:	461d                	li	a2,7
   16f12:	07c1                	addi	a5,a5,16
   16f14:	5ee64163          	blt	a2,a4,174f6 <_vfiprintf_r+0x7c2>
   16f18:	004a7313          	andi	t1,s4,4
   16f1c:	00030663          	beqz	t1,16f28 <_vfiprintf_r+0x1f4>
   16f20:	41348bbb          	subw	s7,s1,s3
   16f24:	63704963          	bgtz	s7,17556 <_vfiprintf_r+0x822>
   16f28:	87a6                	mv	a5,s1
   16f2a:	0134d363          	bge	s1,s3,16f30 <_vfiprintf_r+0x1fc>
   16f2e:	87ce                	mv	a5,s3
   16f30:	6722                	ld	a4,8(sp)
   16f32:	9fb9                	addw	a5,a5,a4
   16f34:	e43e                	sd	a5,8(sp)
   16f36:	5c069a63          	bnez	a3,1750a <_vfiprintf_r+0x7d6>
   16f3a:	d482                	sw	zero,104(sp)
   16f3c:	87d6                	mv	a5,s5
   16f3e:	b561                	j	16dc6 <_vfiprintf_r+0x92>
   16f40:	000dc703          	lbu	a4,0(s11)
   16f44:	010a6a13          	ori	s4,s4,16
   16f48:	b5fd                	j	16e36 <_vfiprintf_r+0x102>
   16f4a:	6502                	ld	a0,0(sp)
   16f4c:	85ca                	mv	a1,s2
   16f4e:	b51fc0ef          	jal	13a9e <__swsetup_r>
   16f52:	e935                	bnez	a0,16fc6 <_vfiprintf_r+0x292>
   16f54:	01091783          	lh	a5,16(s2)
   16f58:	4729                	li	a4,10
   16f5a:	8be9                	andi	a5,a5,26
   16f5c:	e2e79ae3          	bne	a5,a4,16d90 <_vfiprintf_r+0x5c>
   16f60:	01291783          	lh	a5,18(s2)
   16f64:	e207c6e3          	bltz	a5,16d90 <_vfiprintf_r+0x5c>
   16f68:	6502                	ld	a0,0(sp)
   16f6a:	60be                	ld	ra,456(sp)
   16f6c:	86e2                	mv	a3,s8
   16f6e:	866e                	mv	a2,s11
   16f70:	6c1a                	ld	s8,384(sp)
   16f72:	7db6                	ld	s11,360(sp)
   16f74:	85ca                	mv	a1,s2
   16f76:	795a                	ld	s2,432(sp)
   16f78:	6179                	addi	sp,sp,464
   16f7a:	26d0006f          	j	179e6 <__sbprintf>
   16f7e:	6502                	ld	a0,0(sp)
   16f80:	1090                	addi	a2,sp,96
   16f82:	85ca                	mv	a1,s2
   16f84:	cbcfc0ef          	jal	13440 <__sprint_r>
   16f88:	e511                	bnez	a0,16f94 <_vfiprintf_r+0x260>
   16f8a:	87d6                	mv	a5,s5
   16f8c:	b551                	j	16e10 <_vfiprintf_r+0xdc>
   16f8e:	77c6                	ld	a5,112(sp)
   16f90:	180790e3          	bnez	a5,17910 <_vfiprintf_r+0xbdc>
   16f94:	01095783          	lhu	a5,16(s2)
   16f98:	641e                	ld	s0,448(sp)
   16f9a:	74fa                	ld	s1,440(sp)
   16f9c:	0407f793          	andi	a5,a5,64
   16fa0:	79ba                	ld	s3,424(sp)
   16fa2:	7a1a                	ld	s4,416(sp)
   16fa4:	6afa                	ld	s5,408(sp)
   16fa6:	6b5a                	ld	s6,400(sp)
   16fa8:	6bba                	ld	s7,392(sp)
   16faa:	7cf6                	ld	s9,376(sp)
   16fac:	7d56                	ld	s10,368(sp)
   16fae:	ef81                	bnez	a5,16fc6 <_vfiprintf_r+0x292>
   16fb0:	60be                	ld	ra,456(sp)
   16fb2:	6522                	ld	a0,8(sp)
   16fb4:	795a                	ld	s2,432(sp)
   16fb6:	6c1a                	ld	s8,384(sp)
   16fb8:	7db6                	ld	s11,360(sp)
   16fba:	6179                	addi	sp,sp,464
   16fbc:	8082                	ret
   16fbe:	03271693          	slli	a3,a4,0x32
   16fc2:	da06dbe3          	bgez	a3,16d78 <_vfiprintf_r+0x44>
   16fc6:	57fd                	li	a5,-1
   16fc8:	e43e                	sd	a5,8(sp)
   16fca:	b7dd                	j	16fb0 <_vfiprintf_r+0x27c>
   16fcc:	020a7693          	andi	a3,s4,32
   16fd0:	008c0713          	addi	a4,s8,8
   16fd4:	eae1                	bnez	a3,170a4 <_vfiprintf_r+0x370>
   16fd6:	010a7693          	andi	a3,s4,16
   16fda:	1e069ae3          	bnez	a3,179ce <_vfiprintf_r+0xc9a>
   16fde:	040a7693          	andi	a3,s4,64
   16fe2:	000c2d03          	lw	s10,0(s8)
   16fe6:	0a068fe3          	beqz	a3,178a4 <_vfiprintf_r+0xb70>
   16fea:	010d1d1b          	slliw	s10,s10,0x10
   16fee:	410d5d1b          	sraiw	s10,s10,0x10
   16ff2:	8c3a                	mv	s8,a4
   16ff4:	86ea                	mv	a3,s10
   16ff6:	0a06cd63          	bltz	a3,170b0 <_vfiprintf_r+0x37c>
   16ffa:	0c084563          	bltz	a6,170c4 <_vfiprintf_r+0x390>
   16ffe:	f7fa7a13          	andi	s4,s4,-129
   17002:	0c081163          	bnez	a6,170c4 <_vfiprintf_r+0x390>
   17006:	0a0d1f63          	bnez	s10,170c4 <_vfiprintf_r+0x390>
   1700a:	05714703          	lbu	a4,87(sp)
   1700e:	4b81                	li	s7,0
   17010:	4801                	li	a6,0
   17012:	0dc10c93          	addi	s9,sp,220
   17016:	26070f63          	beqz	a4,17294 <_vfiprintf_r+0x560>
   1701a:	4985                	li	s3,1
   1701c:	76c6                	ld	a3,112(sp)
   1701e:	5726                	lw	a4,104(sp)
   17020:	084a7f13          	andi	t5,s4,132
   17024:	85b6                	mv	a1,a3
   17026:	863a                	mv	a2,a4
   17028:	e80f00e3          	beqz	t5,16ea8 <_vfiprintf_r+0x174>
   1702c:	f402                	sd	zero,40(sp)
   1702e:	b571                	j	16eba <_vfiprintf_r+0x186>
   17030:	000c3c83          	ld	s9,0(s8)
   17034:	04010ba3          	sb	zero,87(sp)
   17038:	0c21                	addi	s8,s8,8
   1703a:	020c88e3          	beqz	s9,1786a <_vfiprintf_r+0xb36>
   1703e:	76084563          	bltz	a6,177a8 <_vfiprintf_r+0xa74>
   17042:	8642                	mv	a2,a6
   17044:	4581                	li	a1,0
   17046:	8566                	mv	a0,s9
   17048:	f03e                	sd	a5,32(sp)
   1704a:	e842                	sd	a6,16(sp)
   1704c:	b43fc0ef          	jal	13b8e <memchr>
   17050:	05714703          	lbu	a4,87(sp)
   17054:	6842                	ld	a6,16(sp)
   17056:	7782                	ld	a5,32(sp)
   17058:	120507e3          	beqz	a0,17986 <_vfiprintf_r+0xc52>
   1705c:	41950bbb          	subw	s7,a0,s9
   17060:	86de                	mv	a3,s7
   17062:	000bd363          	bgez	s7,17068 <_vfiprintf_r+0x334>
   17066:	4681                	li	a3,0
   17068:	0006899b          	sext.w	s3,a3
   1706c:	76070463          	beqz	a4,177d4 <_vfiprintf_r+0xaa0>
   17070:	0016899b          	addiw	s3,a3,1
   17074:	4801                	li	a6,0
   17076:	b75d                	j	1701c <_vfiprintf_r+0x2e8>
   17078:	000c2703          	lw	a4,0(s8)
   1707c:	4b85                	li	s7,1
   1707e:	04010ba3          	sb	zero,87(sp)
   17082:	06e10c23          	sb	a4,120(sp)
   17086:	0c21                	addi	s8,s8,8
   17088:	89de                	mv	s3,s7
   1708a:	4801                	li	a6,0
   1708c:	07810c93          	addi	s9,sp,120
   17090:	b521                	j	16e98 <_vfiprintf_r+0x164>
   17092:	020a7713          	andi	a4,s4,32
   17096:	010a6313          	ori	t1,s4,16
   1709a:	62070863          	beqz	a4,176ca <_vfiprintf_r+0x996>
   1709e:	8a1a                	mv	s4,t1
   170a0:	008c0713          	addi	a4,s8,8
   170a4:	000c3683          	ld	a3,0(s8)
   170a8:	8c3a                	mv	s8,a4
   170aa:	8d36                	mv	s10,a3
   170ac:	f406d7e3          	bgez	a3,16ffa <_vfiprintf_r+0x2c6>
   170b0:	02d00713          	li	a4,45
   170b4:	04e10ba3          	sb	a4,87(sp)
   170b8:	41a00d33          	neg	s10,s10
   170bc:	00084463          	bltz	a6,170c4 <_vfiprintf_r+0x390>
   170c0:	f7fa7a13          	andi	s4,s4,-129
   170c4:	46a5                	li	a3,9
   170c6:	1fa6e763          	bltu	a3,s10,172b4 <_vfiprintf_r+0x580>
   170ca:	030d0d1b          	addiw	s10,s10,48
   170ce:	0da10da3          	sb	s10,219(sp)
   170d2:	8742                	mv	a4,a6
   170d4:	01004363          	bgtz	a6,170da <_vfiprintf_r+0x3a6>
   170d8:	4705                	li	a4,1
   170da:	05714683          	lbu	a3,87(sp)
   170de:	0007099b          	sext.w	s3,a4
   170e2:	5a069d63          	bnez	a3,1769c <_vfiprintf_r+0x968>
   170e6:	4b85                	li	s7,1
   170e8:	0db10c93          	addi	s9,sp,219
   170ec:	b375                	j	16e98 <_vfiprintf_r+0x164>
   170ee:	000c2483          	lw	s1,0(s8)
   170f2:	5804da63          	bgez	s1,17686 <_vfiprintf_r+0x952>
   170f6:	409004bb          	negw	s1,s1
   170fa:	0c21                	addi	s8,s8,8
   170fc:	000dc703          	lbu	a4,0(s11)
   17100:	004a6a13          	ori	s4,s4,4
   17104:	bb0d                	j	16e36 <_vfiprintf_r+0x102>
   17106:	02b00713          	li	a4,43
   1710a:	04e10ba3          	sb	a4,87(sp)
   1710e:	000dc703          	lbu	a4,0(s11)
   17112:	b315                	j	16e36 <_vfiprintf_r+0x102>
   17114:	020a7713          	andi	a4,s4,32
   17118:	18071063          	bnez	a4,17298 <_vfiprintf_r+0x564>
   1711c:	010a7993          	andi	s3,s4,16
   17120:	008c0713          	addi	a4,s8,8
   17124:	0a0997e3          	bnez	s3,179d2 <_vfiprintf_r+0xc9e>
   17128:	040a7693          	andi	a3,s4,64
   1712c:	000c2d03          	lw	s10,0(s8)
   17130:	6a068563          	beqz	a3,177da <_vfiprintf_r+0xaa6>
   17134:	1d42                	slli	s10,s10,0x30
   17136:	04010ba3          	sb	zero,87(sp)
   1713a:	030d5d13          	srli	s10,s10,0x30
   1713e:	6a084863          	bltz	a6,177ee <_vfiprintf_r+0xaba>
   17142:	f7fa7a13          	andi	s4,s4,-129
   17146:	6a0d1463          	bnez	s10,177ee <_vfiprintf_r+0xaba>
   1714a:	6a081263          	bnez	a6,177ee <_vfiprintf_r+0xaba>
   1714e:	8c3a                	mv	s8,a4
   17150:	4b81                	li	s7,0
   17152:	0dc10c93          	addi	s9,sp,220
   17156:	b389                	j	16e98 <_vfiprintf_r+0x164>
   17158:	000dc703          	lbu	a4,0(s11)
   1715c:	020a6a13          	ori	s4,s4,32
   17160:	b9d9                	j	16e36 <_vfiprintf_r+0x102>
   17162:	6721                	lui	a4,0x8
   17164:	83070713          	addi	a4,a4,-2000 # 7830 <exit-0x88f0>
   17168:	04e11c23          	sh	a4,88(sp)
   1716c:	04010ba3          	sb	zero,87(sp)
   17170:	000c3683          	ld	a3,0(s8)
   17174:	008c0713          	addi	a4,s8,8
   17178:	56084363          	bltz	a6,176de <_vfiprintf_r+0x9aa>
   1717c:	f7fa7313          	andi	t1,s4,-129
   17180:	00236a13          	ori	s4,t1,2
   17184:	02069fe3          	bnez	a3,179c2 <_vfiprintf_r+0xc8e>
   17188:	02081de3          	bnez	a6,179c2 <_vfiprintf_r+0xc8e>
   1718c:	8c3a                	mv	s8,a4
   1718e:	4b81                	li	s7,0
   17190:	4981                	li	s3,0
   17192:	0dc10c93          	addi	s9,sp,220
   17196:	75c6                	ld	a1,112(sp)
   17198:	5626                	lw	a2,104(sp)
   1719a:	084a7f13          	andi	t5,s4,132
   1719e:	2989                	addiw	s3,s3,2
   171a0:	86ae                	mv	a3,a1
   171a2:	8732                	mv	a4,a2
   171a4:	d20f1ae3          	bnez	t5,16ed8 <_vfiprintf_r+0x1a4>
   171a8:	41348d3b          	subw	s10,s1,s3
   171ac:	d3a056e3          	blez	s10,16ed8 <_vfiprintf_r+0x1a4>
   171b0:	4709                	li	a4,2
   171b2:	f43a                	sd	a4,40(sp)
   171b4:	a991                	j	17608 <_vfiprintf_r+0x8d4>
   171b6:	020a7693          	andi	a3,s4,32
   171ba:	008c0713          	addi	a4,s8,8
   171be:	50069e63          	bnez	a3,176da <_vfiprintf_r+0x9a6>
   171c2:	010a7693          	andi	a3,s4,16
   171c6:	50069a63          	bnez	a3,176da <_vfiprintf_r+0x9a6>
   171ca:	040a7613          	andi	a2,s4,64
   171ce:	000c2683          	lw	a3,0(s8)
   171d2:	6a060863          	beqz	a2,17882 <_vfiprintf_r+0xb4e>
   171d6:	16c2                	slli	a3,a3,0x30
   171d8:	92c1                	srli	a3,a3,0x30
   171da:	8c3a                	mv	s8,a4
   171dc:	89d2                	mv	s3,s4
   171de:	a889                	j	17230 <_vfiprintf_r+0x4fc>
   171e0:	020a7713          	andi	a4,s4,32
   171e4:	000c3683          	ld	a3,0(s8)
   171e8:	0c21                	addi	s8,s8,8
   171ea:	e305                	bnez	a4,1720a <_vfiprintf_r+0x4d6>
   171ec:	010a7713          	andi	a4,s4,16
   171f0:	ef09                	bnez	a4,1720a <_vfiprintf_r+0x4d6>
   171f2:	040a7713          	andi	a4,s4,64
   171f6:	6e071463          	bnez	a4,178de <_vfiprintf_r+0xbaa>
   171fa:	200a7313          	andi	t1,s4,512
   171fe:	6722                	ld	a4,8(sp)
   17200:	78030f63          	beqz	t1,1799e <_vfiprintf_r+0xc6a>
   17204:	00e68023          	sb	a4,0(a3)
   17208:	be7d                	j	16dc6 <_vfiprintf_r+0x92>
   1720a:	6722                	ld	a4,8(sp)
   1720c:	e298                	sd	a4,0(a3)
   1720e:	be65                	j	16dc6 <_vfiprintf_r+0x92>
   17210:	000dc703          	lbu	a4,0(s11)
   17214:	06c00693          	li	a3,108
   17218:	62d70b63          	beq	a4,a3,1784e <_vfiprintf_r+0xb1a>
   1721c:	010a6a13          	ori	s4,s4,16
   17220:	b919                	j	16e36 <_vfiprintf_r+0x102>
   17222:	010a6993          	ori	s3,s4,16
   17226:	008c0713          	addi	a4,s8,8
   1722a:	000c3683          	ld	a3,0(s8)
   1722e:	8c3a                	mv	s8,a4
   17230:	04010ba3          	sb	zero,87(sp)
   17234:	bff9fa13          	andi	s4,s3,-1025
   17238:	38084963          	bltz	a6,175ca <_vfiprintf_r+0x896>
   1723c:	b7f9fa13          	andi	s4,s3,-1153
   17240:	38069563          	bnez	a3,175ca <_vfiprintf_r+0x896>
   17244:	38081363          	bnez	a6,175ca <_vfiprintf_r+0x896>
   17248:	0019f993          	andi	s3,s3,1
   1724c:	44098263          	beqz	s3,17690 <_vfiprintf_r+0x95c>
   17250:	03000713          	li	a4,48
   17254:	0ce10da3          	sb	a4,219(sp)
   17258:	8bce                	mv	s7,s3
   1725a:	0db10c93          	addi	s9,sp,219
   1725e:	b92d                	j	16e98 <_vfiprintf_r+0x164>
   17260:	020a7713          	andi	a4,s4,32
   17264:	010a6313          	ori	t1,s4,16
   17268:	eb0d                	bnez	a4,1729a <_vfiprintf_r+0x566>
   1726a:	008c0713          	addi	a4,s8,8
   1726e:	04010ba3          	sb	zero,87(sp)
   17272:	000c3d03          	ld	s10,0(s8)
   17276:	86ba                	mv	a3,a4
   17278:	8c3a                	mv	s8,a4
   1727a:	8a1a                	mv	s4,t1
   1727c:	e40844e3          	bltz	a6,170c4 <_vfiprintf_r+0x390>
   17280:	f7f37a13          	andi	s4,t1,-129
   17284:	8c36                	mv	s8,a3
   17286:	e2081fe3          	bnez	a6,170c4 <_vfiprintf_r+0x390>
   1728a:	e20d1de3          	bnez	s10,170c4 <_vfiprintf_r+0x390>
   1728e:	4b81                	li	s7,0
   17290:	0dc10c93          	addi	s9,sp,220
   17294:	4981                	li	s3,0
   17296:	b109                	j	16e98 <_vfiprintf_r+0x164>
   17298:	8352                	mv	t1,s4
   1729a:	008c0693          	addi	a3,s8,8
   1729e:	04010ba3          	sb	zero,87(sp)
   172a2:	000c3d03          	ld	s10,0(s8)
   172a6:	8a1a                	mv	s4,t1
   172a8:	8c36                	mv	s8,a3
   172aa:	fc085be3          	bgez	a6,17280 <_vfiprintf_r+0x54c>
   172ae:	46a5                	li	a3,9
   172b0:	e1a6fde3          	bgeu	a3,s10,170ca <_vfiprintf_r+0x396>
   172b4:	ccccd737          	lui	a4,0xccccd
   172b8:	ccd70713          	addi	a4,a4,-819 # ffffffffcccccccd <__BSS_END__+0xffffffffcccb10bd>
   172bc:	02071993          	slli	s3,a4,0x20
   172c0:	0dc10b93          	addi	s7,sp,220
   172c4:	99ba                	add	s3,s3,a4
   172c6:	865e                	mv	a2,s7
   172c8:	400a7e93          	andi	t4,s4,1024
   172cc:	4581                	li	a1,0
   172ce:	a809                	j	172e0 <_vfiprintf_r+0x5ac>
   172d0:	876a                	mv	a4,s10
   172d2:	033d3d33          	mulhu	s10,s10,s3
   172d6:	8666                	mv	a2,s9
   172d8:	003d5d13          	srli	s10,s10,0x3
   172dc:	02e6fe63          	bgeu	a3,a4,17318 <_vfiprintf_r+0x5e4>
   172e0:	033d3533          	mulhu	a0,s10,s3
   172e4:	2585                	addiw	a1,a1,1
   172e6:	fff60c93          	addi	s9,a2,-1
   172ea:	810d                	srli	a0,a0,0x3
   172ec:	00251713          	slli	a4,a0,0x2
   172f0:	972a                	add	a4,a4,a0
   172f2:	0706                	slli	a4,a4,0x1
   172f4:	40ed0733          	sub	a4,s10,a4
   172f8:	0307071b          	addiw	a4,a4,48
   172fc:	fee60fa3          	sb	a4,-1(a2)
   17300:	fc0e88e3          	beqz	t4,172d0 <_vfiprintf_r+0x59c>
   17304:	7742                	ld	a4,48(sp)
   17306:	00074703          	lbu	a4,0(a4)
   1730a:	fcb713e3          	bne	a4,a1,172d0 <_vfiprintf_r+0x59c>
   1730e:	f0170713          	addi	a4,a4,-255
   17312:	df5d                	beqz	a4,172d0 <_vfiprintf_r+0x59c>
   17314:	61a6e563          	bltu	a3,s10,1791e <_vfiprintf_r+0xbea>
   17318:	419b8bbb          	subw	s7,s7,s9
   1731c:	05714703          	lbu	a4,87(sp)
   17320:	0008099b          	sext.w	s3,a6
   17324:	01785463          	bge	a6,s7,1732c <_vfiprintf_r+0x5f8>
   17328:	000b899b          	sext.w	s3,s7
   1732c:	44070463          	beqz	a4,17774 <_vfiprintf_r+0xa40>
   17330:	2985                	addiw	s3,s3,1
   17332:	a189                	j	17774 <_vfiprintf_r+0xa40>
   17334:	6b82                	ld	s7,0(sp)
   17336:	f042                	sd	a6,32(sp)
   17338:	e83e                	sd	a5,16(sp)
   1733a:	855e                	mv	a0,s7
   1733c:	96ffc0ef          	jal	13caa <_localeconv_r>
   17340:	651c                	ld	a5,8(a0)
   17342:	853e                	mv	a0,a5
   17344:	fc3e                	sd	a5,56(sp)
   17346:	ba5fc0ef          	jal	13eea <strlen>
   1734a:	872a                	mv	a4,a0
   1734c:	855e                	mv	a0,s7
   1734e:	e0ba                	sd	a4,64(sp)
   17350:	8bba                	mv	s7,a4
   17352:	959fc0ef          	jal	13caa <_localeconv_r>
   17356:	6914                	ld	a3,16(a0)
   17358:	000dc703          	lbu	a4,0(s11)
   1735c:	67c2                	ld	a5,16(sp)
   1735e:	f836                	sd	a3,48(sp)
   17360:	7802                	ld	a6,32(sp)
   17362:	ac0b8ae3          	beqz	s7,16e36 <_vfiprintf_r+0x102>
   17366:	ac0688e3          	beqz	a3,16e36 <_vfiprintf_r+0x102>
   1736a:	0006c683          	lbu	a3,0(a3)
   1736e:	ac0684e3          	beqz	a3,16e36 <_vfiprintf_r+0x102>
   17372:	400a6a13          	ori	s4,s4,1024
   17376:	b4c1                	j	16e36 <_vfiprintf_r+0x102>
   17378:	000dc703          	lbu	a4,0(s11)
   1737c:	080a6a13          	ori	s4,s4,128
   17380:	bc5d                	j	16e36 <_vfiprintf_r+0x102>
   17382:	000dc703          	lbu	a4,0(s11)
   17386:	02a00693          	li	a3,42
   1738a:	001d8513          	addi	a0,s11,1
   1738e:	60d70b63          	beq	a4,a3,179a4 <_vfiprintf_r+0xc70>
   17392:	fd07061b          	addiw	a2,a4,-48
   17396:	4825                	li	a6,9
   17398:	4581                	li	a1,0
   1739a:	5ec86e63          	bltu	a6,a2,17996 <_vfiprintf_r+0xc62>
   1739e:	0025969b          	slliw	a3,a1,0x2
   173a2:	00054703          	lbu	a4,0(a0)
   173a6:	9ead                	addw	a3,a3,a1
   173a8:	0016969b          	slliw	a3,a3,0x1
   173ac:	00c685bb          	addw	a1,a3,a2
   173b0:	fd07061b          	addiw	a2,a4,-48
   173b4:	0505                	addi	a0,a0,1
   173b6:	fec874e3          	bgeu	a6,a2,1739e <_vfiprintf_r+0x66a>
   173ba:	0005881b          	sext.w	a6,a1
   173be:	3405cf63          	bltz	a1,1771c <_vfiprintf_r+0x9e8>
   173c2:	8daa                	mv	s11,a0
   173c4:	bc9d                	j	16e3a <_vfiprintf_r+0x106>
   173c6:	000dc703          	lbu	a4,0(s11)
   173ca:	001a6a13          	ori	s4,s4,1
   173ce:	b4a5                	j	16e36 <_vfiprintf_r+0x102>
   173d0:	05714683          	lbu	a3,87(sp)
   173d4:	000dc703          	lbu	a4,0(s11)
   173d8:	a4069fe3          	bnez	a3,16e36 <_vfiprintf_r+0x102>
   173dc:	02000693          	li	a3,32
   173e0:	04d10ba3          	sb	a3,87(sp)
   173e4:	bc89                	j	16e36 <_vfiprintf_r+0x102>
   173e6:	000dc703          	lbu	a4,0(s11)
   173ea:	06800693          	li	a3,104
   173ee:	46d70763          	beq	a4,a3,1785c <_vfiprintf_r+0xb28>
   173f2:	040a6a13          	ori	s4,s4,64
   173f6:	b481                	j	16e36 <_vfiprintf_r+0x102>
   173f8:	41348d3b          	subw	s10,s1,s3
   173fc:	afa05ee3          	blez	s10,16ef8 <_vfiprintf_r+0x1c4>
   17400:	6669                	lui	a2,0x1a
   17402:	95060613          	addi	a2,a2,-1712 # 19950 <zeroes.0>
   17406:	4f41                	li	t5,16
   17408:	e832                	sd	a2,16(sp)
   1740a:	4f9d                	li	t6,7
   1740c:	01af4663          	blt	t5,s10,17418 <_vfiprintf_r+0x6e4>
   17410:	a081                	j	17450 <_vfiprintf_r+0x71c>
   17412:	3d41                	addiw	s10,s10,-16
   17414:	03af5e63          	bge	t5,s10,17450 <_vfiprintf_r+0x71c>
   17418:	6642                	ld	a2,16(sp)
   1741a:	06c1                	addi	a3,a3,16
   1741c:	2705                	addiw	a4,a4,1
   1741e:	e390                	sd	a2,0(a5)
   17420:	01e7b423          	sd	t5,8(a5)
   17424:	f8b6                	sd	a3,112(sp)
   17426:	d4ba                	sw	a4,104(sp)
   17428:	07c1                	addi	a5,a5,16
   1742a:	feefd4e3          	bge	t6,a4,17412 <_vfiprintf_r+0x6de>
   1742e:	6502                	ld	a0,0(sp)
   17430:	1090                	addi	a2,sp,96
   17432:	85ca                	mv	a1,s2
   17434:	f042                	sd	a6,32(sp)
   17436:	80afc0ef          	jal	13440 <__sprint_r>
   1743a:	b4051de3          	bnez	a0,16f94 <_vfiprintf_r+0x260>
   1743e:	4f41                	li	t5,16
   17440:	3d41                	addiw	s10,s10,-16
   17442:	76c6                	ld	a3,112(sp)
   17444:	5726                	lw	a4,104(sp)
   17446:	7802                	ld	a6,32(sp)
   17448:	87d6                	mv	a5,s5
   1744a:	4f9d                	li	t6,7
   1744c:	fdaf46e3          	blt	t5,s10,17418 <_vfiprintf_r+0x6e4>
   17450:	6642                	ld	a2,16(sp)
   17452:	96ea                	add	a3,a3,s10
   17454:	2705                	addiw	a4,a4,1
   17456:	e390                	sd	a2,0(a5)
   17458:	01a7b423          	sd	s10,8(a5)
   1745c:	f8b6                	sd	a3,112(sp)
   1745e:	d4ba                	sw	a4,104(sp)
   17460:	461d                	li	a2,7
   17462:	07c1                	addi	a5,a5,16
   17464:	a8e65ae3          	bge	a2,a4,16ef8 <_vfiprintf_r+0x1c4>
   17468:	6502                	ld	a0,0(sp)
   1746a:	1090                	addi	a2,sp,96
   1746c:	85ca                	mv	a1,s2
   1746e:	e842                	sd	a6,16(sp)
   17470:	fd1fb0ef          	jal	13440 <__sprint_r>
   17474:	b20510e3          	bnez	a0,16f94 <_vfiprintf_r+0x260>
   17478:	6842                	ld	a6,16(sp)
   1747a:	76c6                	ld	a3,112(sp)
   1747c:	5726                	lw	a4,104(sp)
   1747e:	41780d3b          	subw	s10,a6,s7
   17482:	87d6                	mv	a5,s5
   17484:	a7a05ee3          	blez	s10,16f00 <_vfiprintf_r+0x1cc>
   17488:	43a45963          	bge	s0,s10,178ba <_vfiprintf_r+0xb86>
   1748c:	e85a                	sd	s6,16(sp)
   1748e:	4e9d                	li	t4,7
   17490:	a021                	j	17498 <_vfiprintf_r+0x764>
   17492:	3d41                	addiw	s10,s10,-16
   17494:	03a45a63          	bge	s0,s10,174c8 <_vfiprintf_r+0x794>
   17498:	06c1                	addi	a3,a3,16
   1749a:	2705                	addiw	a4,a4,1
   1749c:	0167b023          	sd	s6,0(a5)
   174a0:	e780                	sd	s0,8(a5)
   174a2:	f8b6                	sd	a3,112(sp)
   174a4:	d4ba                	sw	a4,104(sp)
   174a6:	07c1                	addi	a5,a5,16
   174a8:	feeed5e3          	bge	t4,a4,17492 <_vfiprintf_r+0x75e>
   174ac:	6502                	ld	a0,0(sp)
   174ae:	1090                	addi	a2,sp,96
   174b0:	85ca                	mv	a1,s2
   174b2:	f8ffb0ef          	jal	13440 <__sprint_r>
   174b6:	ac051fe3          	bnez	a0,16f94 <_vfiprintf_r+0x260>
   174ba:	3d41                	addiw	s10,s10,-16
   174bc:	76c6                	ld	a3,112(sp)
   174be:	5726                	lw	a4,104(sp)
   174c0:	87d6                	mv	a5,s5
   174c2:	4e9d                	li	t4,7
   174c4:	fda44ae3          	blt	s0,s10,17498 <_vfiprintf_r+0x764>
   174c8:	6642                	ld	a2,16(sp)
   174ca:	96ea                	add	a3,a3,s10
   174cc:	2705                	addiw	a4,a4,1
   174ce:	e390                	sd	a2,0(a5)
   174d0:	01a7b423          	sd	s10,8(a5)
   174d4:	f8b6                	sd	a3,112(sp)
   174d6:	d4ba                	sw	a4,104(sp)
   174d8:	461d                	li	a2,7
   174da:	07c1                	addi	a5,a5,16
   174dc:	a2e652e3          	bge	a2,a4,16f00 <_vfiprintf_r+0x1cc>
   174e0:	6502                	ld	a0,0(sp)
   174e2:	1090                	addi	a2,sp,96
   174e4:	85ca                	mv	a1,s2
   174e6:	f5bfb0ef          	jal	13440 <__sprint_r>
   174ea:	aa0515e3          	bnez	a0,16f94 <_vfiprintf_r+0x260>
   174ee:	76c6                	ld	a3,112(sp)
   174f0:	5726                	lw	a4,104(sp)
   174f2:	87d6                	mv	a5,s5
   174f4:	b431                	j	16f00 <_vfiprintf_r+0x1cc>
   174f6:	6502                	ld	a0,0(sp)
   174f8:	1090                	addi	a2,sp,96
   174fa:	85ca                	mv	a1,s2
   174fc:	f45fb0ef          	jal	13440 <__sprint_r>
   17500:	a8051ae3          	bnez	a0,16f94 <_vfiprintf_r+0x260>
   17504:	76c6                	ld	a3,112(sp)
   17506:	87d6                	mv	a5,s5
   17508:	bc01                	j	16f18 <_vfiprintf_r+0x1e4>
   1750a:	6502                	ld	a0,0(sp)
   1750c:	1090                	addi	a2,sp,96
   1750e:	85ca                	mv	a1,s2
   17510:	f31fb0ef          	jal	13440 <__sprint_r>
   17514:	a20503e3          	beqz	a0,16f3a <_vfiprintf_r+0x206>
   17518:	bcb5                	j	16f94 <_vfiprintf_r+0x260>
   1751a:	6502                	ld	a0,0(sp)
   1751c:	1090                	addi	a2,sp,96
   1751e:	85ca                	mv	a1,s2
   17520:	f042                	sd	a6,32(sp)
   17522:	e87a                	sd	t5,16(sp)
   17524:	f1dfb0ef          	jal	13440 <__sprint_r>
   17528:	a60516e3          	bnez	a0,16f94 <_vfiprintf_r+0x260>
   1752c:	76c6                	ld	a3,112(sp)
   1752e:	5726                	lw	a4,104(sp)
   17530:	7802                	ld	a6,32(sp)
   17532:	6f42                	ld	t5,16(sp)
   17534:	87d6                	mv	a5,s5
   17536:	ba6d                	j	16ef0 <_vfiprintf_r+0x1bc>
   17538:	6502                	ld	a0,0(sp)
   1753a:	1090                	addi	a2,sp,96
   1753c:	85ca                	mv	a1,s2
   1753e:	f042                	sd	a6,32(sp)
   17540:	e87a                	sd	t5,16(sp)
   17542:	efffb0ef          	jal	13440 <__sprint_r>
   17546:	a40517e3          	bnez	a0,16f94 <_vfiprintf_r+0x260>
   1754a:	76c6                	ld	a3,112(sp)
   1754c:	5726                	lw	a4,104(sp)
   1754e:	7802                	ld	a6,32(sp)
   17550:	6f42                	ld	t5,16(sp)
   17552:	87d6                	mv	a5,s5
   17554:	b241                	j	16ed4 <_vfiprintf_r+0x1a0>
   17556:	6f69                	lui	t5,0x1a
   17558:	4d41                	li	s10,16
   1755a:	5726                	lw	a4,104(sp)
   1755c:	960f0f13          	addi	t5,t5,-1696 # 19960 <blanks.1>
   17560:	4a1d                	li	s4,7
   17562:	017d4663          	blt	s10,s7,1756e <_vfiprintf_r+0x83a>
   17566:	a835                	j	175a2 <_vfiprintf_r+0x86e>
   17568:	3bc1                	addiw	s7,s7,-16
   1756a:	037d5c63          	bge	s10,s7,175a2 <_vfiprintf_r+0x86e>
   1756e:	06c1                	addi	a3,a3,16
   17570:	2705                	addiw	a4,a4,1
   17572:	01e7b023          	sd	t5,0(a5)
   17576:	01a7b423          	sd	s10,8(a5)
   1757a:	f8b6                	sd	a3,112(sp)
   1757c:	d4ba                	sw	a4,104(sp)
   1757e:	07c1                	addi	a5,a5,16
   17580:	feea54e3          	bge	s4,a4,17568 <_vfiprintf_r+0x834>
   17584:	6502                	ld	a0,0(sp)
   17586:	1090                	addi	a2,sp,96
   17588:	85ca                	mv	a1,s2
   1758a:	e87a                	sd	t5,16(sp)
   1758c:	eb5fb0ef          	jal	13440 <__sprint_r>
   17590:	a00512e3          	bnez	a0,16f94 <_vfiprintf_r+0x260>
   17594:	3bc1                	addiw	s7,s7,-16
   17596:	76c6                	ld	a3,112(sp)
   17598:	5726                	lw	a4,104(sp)
   1759a:	6f42                	ld	t5,16(sp)
   1759c:	87d6                	mv	a5,s5
   1759e:	fd7d48e3          	blt	s10,s7,1756e <_vfiprintf_r+0x83a>
   175a2:	96de                	add	a3,a3,s7
   175a4:	2705                	addiw	a4,a4,1
   175a6:	01e7b023          	sd	t5,0(a5)
   175aa:	0177b423          	sd	s7,8(a5)
   175ae:	f8b6                	sd	a3,112(sp)
   175b0:	d4ba                	sw	a4,104(sp)
   175b2:	479d                	li	a5,7
   175b4:	96e7dae3          	bge	a5,a4,16f28 <_vfiprintf_r+0x1f4>
   175b8:	6502                	ld	a0,0(sp)
   175ba:	1090                	addi	a2,sp,96
   175bc:	85ca                	mv	a1,s2
   175be:	e83fb0ef          	jal	13440 <__sprint_r>
   175c2:	9c0519e3          	bnez	a0,16f94 <_vfiprintf_r+0x260>
   175c6:	76c6                	ld	a3,112(sp)
   175c8:	b285                	j	16f28 <_vfiprintf_r+0x1f4>
   175ca:	0dc10b93          	addi	s7,sp,220
   175ce:	8cde                	mv	s9,s7
   175d0:	0076f713          	andi	a4,a3,7
   175d4:	8666                	mv	a2,s9
   175d6:	03070713          	addi	a4,a4,48
   175da:	828d                	srli	a3,a3,0x3
   175dc:	feec8fa3          	sb	a4,-1(s9)
   175e0:	1cfd                	addi	s9,s9,-1
   175e2:	f6fd                	bnez	a3,175d0 <_vfiprintf_r+0x89c>
   175e4:	fd070713          	addi	a4,a4,-48
   175e8:	03000693          	li	a3,48
   175ec:	c701                	beqz	a4,175f4 <_vfiprintf_r+0x8c0>
   175ee:	001a7713          	andi	a4,s4,1
   175f2:	ef55                	bnez	a4,176ae <_vfiprintf_r+0x97a>
   175f4:	419b8bbb          	subw	s7,s7,s9
   175f8:	0008099b          	sext.w	s3,a6
   175fc:	89785ee3          	bge	a6,s7,16e98 <_vfiprintf_r+0x164>
   17600:	000b899b          	sext.w	s3,s7
   17604:	b851                	j	16e98 <_vfiprintf_r+0x164>
   17606:	f402                	sd	zero,40(sp)
   17608:	6f69                	lui	t5,0x1a
   1760a:	4fc1                	li	t6,16
   1760c:	86ae                	mv	a3,a1
   1760e:	8732                	mv	a4,a2
   17610:	960f0f13          	addi	t5,t5,-1696 # 19960 <blanks.1>
   17614:	429d                	li	t0,7
   17616:	01afc663          	blt	t6,s10,17622 <_vfiprintf_r+0x8ee>
   1761a:	a091                	j	1765e <_vfiprintf_r+0x92a>
   1761c:	3d41                	addiw	s10,s10,-16
   1761e:	05afd063          	bge	t6,s10,1765e <_vfiprintf_r+0x92a>
   17622:	06c1                	addi	a3,a3,16
   17624:	2705                	addiw	a4,a4,1
   17626:	01e7b023          	sd	t5,0(a5)
   1762a:	01f7b423          	sd	t6,8(a5)
   1762e:	f8b6                	sd	a3,112(sp)
   17630:	d4ba                	sw	a4,104(sp)
   17632:	07c1                	addi	a5,a5,16
   17634:	fee2d4e3          	bge	t0,a4,1761c <_vfiprintf_r+0x8e8>
   17638:	6502                	ld	a0,0(sp)
   1763a:	1090                	addi	a2,sp,96
   1763c:	85ca                	mv	a1,s2
   1763e:	f07a                	sd	t5,32(sp)
   17640:	e842                	sd	a6,16(sp)
   17642:	dfffb0ef          	jal	13440 <__sprint_r>
   17646:	940517e3          	bnez	a0,16f94 <_vfiprintf_r+0x260>
   1764a:	4fc1                	li	t6,16
   1764c:	3d41                	addiw	s10,s10,-16
   1764e:	76c6                	ld	a3,112(sp)
   17650:	5726                	lw	a4,104(sp)
   17652:	7f02                	ld	t5,32(sp)
   17654:	6842                	ld	a6,16(sp)
   17656:	87d6                	mv	a5,s5
   17658:	429d                	li	t0,7
   1765a:	fdafc4e3          	blt	t6,s10,17622 <_vfiprintf_r+0x8ee>
   1765e:	96ea                	add	a3,a3,s10
   17660:	2705                	addiw	a4,a4,1
   17662:	f8b6                	sd	a3,112(sp)
   17664:	d4ba                	sw	a4,104(sp)
   17666:	01e7b023          	sd	t5,0(a5)
   1766a:	01a7b423          	sd	s10,8(a5)
   1766e:	461d                	li	a2,7
   17670:	18e64663          	blt	a2,a4,177fc <_vfiprintf_r+0xac8>
   17674:	05714603          	lbu	a2,87(sp)
   17678:	07c1                	addi	a5,a5,16
   1767a:	e61d                	bnez	a2,176a8 <_vfiprintf_r+0x974>
   1767c:	7622                	ld	a2,40(sp)
   1767e:	86060de3          	beqz	a2,16ef8 <_vfiprintf_r+0x1c4>
   17682:	4f01                	li	t5,0
   17684:	b891                	j	16ed8 <_vfiprintf_r+0x1a4>
   17686:	000dc703          	lbu	a4,0(s11)
   1768a:	0c21                	addi	s8,s8,8
   1768c:	faaff06f          	j	16e36 <_vfiprintf_r+0x102>
   17690:	4b81                	li	s7,0
   17692:	4801                	li	a6,0
   17694:	0dc10c93          	addi	s9,sp,220
   17698:	801ff06f          	j	16e98 <_vfiprintf_r+0x164>
   1769c:	0017099b          	addiw	s3,a4,1
   176a0:	4b85                	li	s7,1
   176a2:	0db10c93          	addi	s9,sp,219
   176a6:	ba9d                	j	1701c <_vfiprintf_r+0x2e8>
   176a8:	4f01                	li	t5,0
   176aa:	811ff06f          	j	16eba <_vfiprintf_r+0x186>
   176ae:	1679                	addi	a2,a2,-2
   176b0:	40cb8bbb          	subw	s7,s7,a2
   176b4:	fedc8fa3          	sb	a3,-1(s9)
   176b8:	000b899b          	sext.w	s3,s7
   176bc:	010bd463          	bge	s7,a6,176c4 <_vfiprintf_r+0x990>
   176c0:	0008099b          	sext.w	s3,a6
   176c4:	8cb2                	mv	s9,a2
   176c6:	fd2ff06f          	j	16e98 <_vfiprintf_r+0x164>
   176ca:	008c0713          	addi	a4,s8,8
   176ce:	000c3683          	ld	a3,0(s8)
   176d2:	8a1a                	mv	s4,t1
   176d4:	8c3a                	mv	s8,a4
   176d6:	8d36                	mv	s10,a3
   176d8:	ba39                	j	16ff6 <_vfiprintf_r+0x2c2>
   176da:	89d2                	mv	s3,s4
   176dc:	b6b9                	j	1722a <_vfiprintf_r+0x4f6>
   176de:	6665                	lui	a2,0x19
   176e0:	002a6a13          	ori	s4,s4,2
   176e4:	8c3a                	mv	s8,a4
   176e6:	25860613          	addi	a2,a2,600 # 19258 <__clzdi2+0x5e>
   176ea:	4589                	li	a1,2
   176ec:	0dc10b93          	addi	s7,sp,220
   176f0:	8cde                	mv	s9,s7
   176f2:	00f6f713          	andi	a4,a3,15
   176f6:	9732                	add	a4,a4,a2
   176f8:	00074703          	lbu	a4,0(a4)
   176fc:	8291                	srli	a3,a3,0x4
   176fe:	1cfd                	addi	s9,s9,-1
   17700:	00ec8023          	sb	a4,0(s9)
   17704:	f6fd                	bnez	a3,176f2 <_vfiprintf_r+0x9be>
   17706:	419b8bbb          	subw	s7,s7,s9
   1770a:	0008099b          	sext.w	s3,a6
   1770e:	01785463          	bge	a6,s7,17716 <_vfiprintf_r+0x9e2>
   17712:	000b899b          	sext.w	s3,s7
   17716:	a80590e3          	bnez	a1,17196 <_vfiprintf_r+0x462>
   1771a:	a8a9                	j	17774 <_vfiprintf_r+0xa40>
   1771c:	587d                	li	a6,-1
   1771e:	8daa                	mv	s11,a0
   17720:	f1aff06f          	j	16e3a <_vfiprintf_r+0x106>
   17724:	6665                	lui	a2,0x19
   17726:	020a7693          	andi	a3,s4,32
   1772a:	27060613          	addi	a2,a2,624 # 19270 <__clzdi2+0x76>
   1772e:	008c0e13          	addi	t3,s8,8
   17732:	eaa5                	bnez	a3,177a2 <_vfiprintf_r+0xa6e>
   17734:	010a7693          	andi	a3,s4,16
   17738:	e6ad                	bnez	a3,177a2 <_vfiprintf_r+0xa6e>
   1773a:	040a7593          	andi	a1,s4,64
   1773e:	000c2683          	lw	a3,0(s8)
   17742:	14058b63          	beqz	a1,17898 <_vfiprintf_r+0xb64>
   17746:	16c2                	slli	a3,a3,0x30
   17748:	92c1                	srli	a3,a3,0x30
   1774a:	001a7593          	andi	a1,s4,1
   1774e:	00d03533          	snez	a0,a3
   17752:	c191                	beqz	a1,17756 <_vfiprintf_r+0xa22>
   17754:	e961                	bnez	a0,17824 <_vfiprintf_r+0xaf0>
   17756:	04010ba3          	sb	zero,87(sp)
   1775a:	08084c63          	bltz	a6,177f2 <_vfiprintf_r+0xabe>
   1775e:	b7fa7a13          	andi	s4,s4,-1153
   17762:	8c72                	mv	s8,t3
   17764:	24081d63          	bnez	a6,179be <_vfiprintf_r+0xc8a>
   17768:	24051b63          	bnez	a0,179be <_vfiprintf_r+0xc8a>
   1776c:	4b81                	li	s7,0
   1776e:	0dc10c93          	addi	s9,sp,220
   17772:	4981                	li	s3,0
   17774:	76c6                	ld	a3,112(sp)
   17776:	5726                	lw	a4,104(sp)
   17778:	084a7f13          	andi	t5,s4,132
   1777c:	85b6                	mv	a1,a3
   1777e:	863a                	mv	a2,a4
   17780:	f20f0463          	beqz	t5,16ea8 <_vfiprintf_r+0x174>
   17784:	05714603          	lbu	a2,87(sp)
   17788:	f402                	sd	zero,40(sp)
   1778a:	f2061863          	bnez	a2,16eba <_vfiprintf_r+0x186>
   1778e:	f62ff06f          	j	16ef0 <_vfiprintf_r+0x1bc>
   17792:	6665                	lui	a2,0x19
   17794:	020a7693          	andi	a3,s4,32
   17798:	25860613          	addi	a2,a2,600 # 19258 <__clzdi2+0x5e>
   1779c:	008c0e13          	addi	t3,s8,8
   177a0:	dad1                	beqz	a3,17734 <_vfiprintf_r+0xa00>
   177a2:	000c3683          	ld	a3,0(s8)
   177a6:	b755                	j	1774a <_vfiprintf_r+0xa16>
   177a8:	8566                	mv	a0,s9
   177aa:	e83e                	sd	a5,16(sp)
   177ac:	f3efc0ef          	jal	13eea <strlen>
   177b0:	00050b9b          	sext.w	s7,a0
   177b4:	67c2                	ld	a5,16(sp)
   177b6:	875e                	mv	a4,s7
   177b8:	000bd363          	bgez	s7,177be <_vfiprintf_r+0xa8a>
   177bc:	4701                	li	a4,0
   177be:	05714683          	lbu	a3,87(sp)
   177c2:	0007099b          	sext.w	s3,a4
   177c6:	c699                	beqz	a3,177d4 <_vfiprintf_r+0xaa0>
   177c8:	0017099b          	addiw	s3,a4,1
   177cc:	4801                	li	a6,0
   177ce:	b0b9                	j	1701c <_vfiprintf_r+0x2e8>
   177d0:	8bc2                	mv	s7,a6
   177d2:	89c2                	mv	s3,a6
   177d4:	4801                	li	a6,0
   177d6:	ec2ff06f          	j	16e98 <_vfiprintf_r+0x164>
   177da:	200a7693          	andi	a3,s4,512
   177de:	04010ba3          	sb	zero,87(sp)
   177e2:	10068a63          	beqz	a3,178f6 <_vfiprintf_r+0xbc2>
   177e6:	0ffd7d13          	zext.b	s10,s10
   177ea:	94085ce3          	bgez	a6,17142 <_vfiprintf_r+0x40e>
   177ee:	8c3a                	mv	s8,a4
   177f0:	b8d1                	j	170c4 <_vfiprintf_r+0x390>
   177f2:	bffa7a13          	andi	s4,s4,-1025
   177f6:	8c72                	mv	s8,t3
   177f8:	4581                	li	a1,0
   177fa:	bdcd                	j	176ec <_vfiprintf_r+0x9b8>
   177fc:	6502                	ld	a0,0(sp)
   177fe:	1090                	addi	a2,sp,96
   17800:	85ca                	mv	a1,s2
   17802:	e842                	sd	a6,16(sp)
   17804:	c3dfb0ef          	jal	13440 <__sprint_r>
   17808:	8f2a                	mv	t5,a0
   1780a:	f8051563          	bnez	a0,16f94 <_vfiprintf_r+0x260>
   1780e:	05714783          	lbu	a5,87(sp)
   17812:	76c6                	ld	a3,112(sp)
   17814:	5726                	lw	a4,104(sp)
   17816:	6842                	ld	a6,16(sp)
   17818:	efad                	bnez	a5,17892 <_vfiprintf_r+0xb5e>
   1781a:	77a2                	ld	a5,40(sp)
   1781c:	cfd5                	beqz	a5,178d8 <_vfiprintf_r+0xba4>
   1781e:	87d6                	mv	a5,s5
   17820:	eb8ff06f          	j	16ed8 <_vfiprintf_r+0x1a4>
   17824:	04e10ca3          	sb	a4,89(sp)
   17828:	03000713          	li	a4,48
   1782c:	04010ba3          	sb	zero,87(sp)
   17830:	04e10c23          	sb	a4,88(sp)
   17834:	08084863          	bltz	a6,178c4 <_vfiprintf_r+0xb90>
   17838:	b7fa7313          	andi	t1,s4,-1153
   1783c:	00236a13          	ori	s4,t1,2
   17840:	8c72                	mv	s8,t3
   17842:	4589                	li	a1,2
   17844:	b565                	j	176ec <_vfiprintf_r+0x9b8>
   17846:	cbbf80ef          	jal	10500 <__sinit>
   1784a:	d04ff06f          	j	16d4e <_vfiprintf_r+0x1a>
   1784e:	001dc703          	lbu	a4,1(s11)
   17852:	020a6a13          	ori	s4,s4,32
   17856:	0d85                	addi	s11,s11,1
   17858:	ddeff06f          	j	16e36 <_vfiprintf_r+0x102>
   1785c:	001dc703          	lbu	a4,1(s11)
   17860:	200a6a13          	ori	s4,s4,512
   17864:	0d85                	addi	s11,s11,1
   17866:	dd0ff06f          	j	16e36 <_vfiprintf_r+0x102>
   1786a:	4719                	li	a4,6
   1786c:	0008099b          	sext.w	s3,a6
   17870:	07076163          	bltu	a4,a6,178d2 <_vfiprintf_r+0xb9e>
   17874:	6e65                	lui	t3,0x19
   17876:	8bce                	mv	s7,s3
   17878:	288e0c93          	addi	s9,t3,648 # 19288 <__clzdi2+0x8e>
   1787c:	4801                	li	a6,0
   1787e:	e1aff06f          	j	16e98 <_vfiprintf_r+0x164>
   17882:	200a7613          	andi	a2,s4,512
   17886:	c241                	beqz	a2,17906 <_vfiprintf_r+0xbd2>
   17888:	0ff6f693          	zext.b	a3,a3
   1788c:	8c3a                	mv	s8,a4
   1788e:	89d2                	mv	s3,s4
   17890:	b245                	j	17230 <_vfiprintf_r+0x4fc>
   17892:	87d6                	mv	a5,s5
   17894:	e26ff06f          	j	16eba <_vfiprintf_r+0x186>
   17898:	200a7593          	andi	a1,s4,512
   1789c:	c9b1                	beqz	a1,178f0 <_vfiprintf_r+0xbbc>
   1789e:	0ff6f693          	zext.b	a3,a3
   178a2:	b565                	j	1774a <_vfiprintf_r+0xa16>
   178a4:	200a7693          	andi	a3,s4,512
   178a8:	c2a1                	beqz	a3,178e8 <_vfiprintf_r+0xbb4>
   178aa:	018d1d1b          	slliw	s10,s10,0x18
   178ae:	418d5d1b          	sraiw	s10,s10,0x18
   178b2:	8c3a                	mv	s8,a4
   178b4:	86ea                	mv	a3,s10
   178b6:	f40ff06f          	j	16ff6 <_vfiprintf_r+0x2c2>
   178ba:	6669                	lui	a2,0x1a
   178bc:	95060613          	addi	a2,a2,-1712 # 19950 <zeroes.0>
   178c0:	e832                	sd	a2,16(sp)
   178c2:	b119                	j	174c8 <_vfiprintf_r+0x794>
   178c4:	bffa7313          	andi	t1,s4,-1025
   178c8:	00236a13          	ori	s4,t1,2
   178cc:	8c72                	mv	s8,t3
   178ce:	4589                	li	a1,2
   178d0:	bd31                	j	176ec <_vfiprintf_r+0x9b8>
   178d2:	0007099b          	sext.w	s3,a4
   178d6:	bf79                	j	17874 <_vfiprintf_r+0xb40>
   178d8:	87d6                	mv	a5,s5
   178da:	e1eff06f          	j	16ef8 <_vfiprintf_r+0x1c4>
   178de:	6722                	ld	a4,8(sp)
   178e0:	00e69023          	sh	a4,0(a3)
   178e4:	ce2ff06f          	j	16dc6 <_vfiprintf_r+0x92>
   178e8:	8c3a                	mv	s8,a4
   178ea:	86ea                	mv	a3,s10
   178ec:	f0aff06f          	j	16ff6 <_vfiprintf_r+0x2c2>
   178f0:	1682                	slli	a3,a3,0x20
   178f2:	9281                	srli	a3,a3,0x20
   178f4:	bd99                	j	1774a <_vfiprintf_r+0xa16>
   178f6:	1d02                	slli	s10,s10,0x20
   178f8:	020d5d13          	srli	s10,s10,0x20
   178fc:	840853e3          	bgez	a6,17142 <_vfiprintf_r+0x40e>
   17900:	8c3a                	mv	s8,a4
   17902:	fc2ff06f          	j	170c4 <_vfiprintf_r+0x390>
   17906:	1682                	slli	a3,a3,0x20
   17908:	9281                	srli	a3,a3,0x20
   1790a:	8c3a                	mv	s8,a4
   1790c:	89d2                	mv	s3,s4
   1790e:	b20d                	j	17230 <_vfiprintf_r+0x4fc>
   17910:	6502                	ld	a0,0(sp)
   17912:	1090                	addi	a2,sp,96
   17914:	85ca                	mv	a1,s2
   17916:	b2bfb0ef          	jal	13440 <__sprint_r>
   1791a:	e7aff06f          	j	16f94 <_vfiprintf_r+0x260>
   1791e:	6606                	ld	a2,64(sp)
   17920:	75e2                	ld	a1,56(sp)
   17922:	e4f6                	sd	t4,72(sp)
   17924:	40cc8733          	sub	a4,s9,a2
   17928:	853a                	mv	a0,a4
   1792a:	f442                	sd	a6,40(sp)
   1792c:	f03e                	sd	a5,32(sp)
   1792e:	e83a                	sd	a4,16(sp)
   17930:	aecfc0ef          	jal	13c1c <strncpy>
   17934:	ccccd5b7          	lui	a1,0xccccd
   17938:	ccd58593          	addi	a1,a1,-819 # ffffffffcccccccd <__BSS_END__+0xffffffffcccb10bd>
   1793c:	02059613          	slli	a2,a1,0x20
   17940:	962e                	add	a2,a2,a1
   17942:	02cd3d33          	mulhu	s10,s10,a2
   17946:	77c2                	ld	a5,48(sp)
   17948:	6742                	ld	a4,16(sp)
   1794a:	7822                	ld	a6,40(sp)
   1794c:	0017c583          	lbu	a1,1(a5)
   17950:	6ea6                	ld	t4,72(sp)
   17952:	fff70c93          	addi	s9,a4,-1
   17956:	00b035b3          	snez	a1,a1
   1795a:	97ae                	add	a5,a5,a1
   1795c:	f83e                	sd	a5,48(sp)
   1795e:	003d5d13          	srli	s10,s10,0x3
   17962:	02cd3633          	mulhu	a2,s10,a2
   17966:	7782                	ld	a5,32(sp)
   17968:	4585                	li	a1,1
   1796a:	46a5                	li	a3,9
   1796c:	00365513          	srli	a0,a2,0x3
   17970:	00251613          	slli	a2,a0,0x2
   17974:	962a                	add	a2,a2,a0
   17976:	0606                	slli	a2,a2,0x1
   17978:	40cd0633          	sub	a2,s10,a2
   1797c:	0306061b          	addiw	a2,a2,48
   17980:	fec70fa3          	sb	a2,-1(a4)
   17984:	b241                	j	17304 <_vfiprintf_r+0x5d0>
   17986:	e40705e3          	beqz	a4,177d0 <_vfiprintf_r+0xa9c>
   1798a:	0018099b          	addiw	s3,a6,1
   1798e:	8bc2                	mv	s7,a6
   17990:	4801                	li	a6,0
   17992:	e8aff06f          	j	1701c <_vfiprintf_r+0x2e8>
   17996:	8daa                	mv	s11,a0
   17998:	4801                	li	a6,0
   1799a:	ca0ff06f          	j	16e3a <_vfiprintf_r+0x106>
   1799e:	c298                	sw	a4,0(a3)
   179a0:	c26ff06f          	j	16dc6 <_vfiprintf_r+0x92>
   179a4:	000c2703          	lw	a4,0(s8)
   179a8:	0c21                	addi	s8,s8,8
   179aa:	0007081b          	sext.w	a6,a4
   179ae:	00075363          	bgez	a4,179b4 <_vfiprintf_r+0xc80>
   179b2:	587d                	li	a6,-1
   179b4:	001dc703          	lbu	a4,1(s11)
   179b8:	8daa                	mv	s11,a0
   179ba:	c7cff06f          	j	16e36 <_vfiprintf_r+0x102>
   179be:	4581                	li	a1,0
   179c0:	b335                	j	176ec <_vfiprintf_r+0x9b8>
   179c2:	6665                	lui	a2,0x19
   179c4:	8c3a                	mv	s8,a4
   179c6:	25860613          	addi	a2,a2,600 # 19258 <__clzdi2+0x5e>
   179ca:	4589                	li	a1,2
   179cc:	b305                	j	176ec <_vfiprintf_r+0x9b8>
   179ce:	8352                	mv	t1,s4
   179d0:	b9fd                	j	176ce <_vfiprintf_r+0x99a>
   179d2:	8352                	mv	t1,s4
   179d4:	b869                	j	1726e <_vfiprintf_r+0x53a>

00000000000179d6 <vfiprintf>:
   179d6:	872a                	mv	a4,a0
   179d8:	2201b503          	ld	a0,544(gp) # 1b630 <_impure_ptr>
   179dc:	86b2                	mv	a3,a2
   179de:	862e                	mv	a2,a1
   179e0:	85ba                	mv	a1,a4
   179e2:	b52ff06f          	j	16d34 <_vfiprintf_r>

00000000000179e6 <__sbprintf>:
   179e6:	0105d783          	lhu	a5,16(a1)
   179ea:	0ac5ae83          	lw	t4,172(a1)
   179ee:	0125de03          	lhu	t3,18(a1)
   179f2:	0305b303          	ld	t1,48(a1)
   179f6:	0405b883          	ld	a7,64(a1)
   179fa:	b2010113          	addi	sp,sp,-1248
   179fe:	9bf5                	andi	a5,a5,-3
   17a00:	0c010813          	addi	a6,sp,192
   17a04:	40000713          	li	a4,1024
   17a08:	4c813823          	sd	s0,1232(sp)
   17a0c:	842e                	mv	s0,a1
   17a0e:	080c                	addi	a1,sp,16
   17a10:	4c913423          	sd	s1,1224(sp)
   17a14:	02f11023          	sh	a5,32(sp)
   17a18:	4c113c23          	sd	ra,1240(sp)
   17a1c:	dc02                	sw	zero,56(sp)
   17a1e:	df76                	sw	t4,188(sp)
   17a20:	03c11123          	sh	t3,34(sp)
   17a24:	e09a                	sd	t1,64(sp)
   17a26:	e8c6                	sd	a7,80(sp)
   17a28:	e842                	sd	a6,16(sp)
   17a2a:	f442                	sd	a6,40(sp)
   17a2c:	ce3a                	sw	a4,28(sp)
   17a2e:	d83a                	sw	a4,48(sp)
   17a30:	84aa                	mv	s1,a0
   17a32:	b02ff0ef          	jal	16d34 <_vfiprintf_r>
   17a36:	87aa                	mv	a5,a0
   17a38:	02055763          	bgez	a0,17a66 <__sbprintf+0x80>
   17a3c:	02015703          	lhu	a4,32(sp)
   17a40:	04077713          	andi	a4,a4,64
   17a44:	c719                	beqz	a4,17a52 <__sbprintf+0x6c>
   17a46:	01045703          	lhu	a4,16(s0)
   17a4a:	04076713          	ori	a4,a4,64
   17a4e:	00e41823          	sh	a4,16(s0)
   17a52:	4d813083          	ld	ra,1240(sp)
   17a56:	4d013403          	ld	s0,1232(sp)
   17a5a:	4c813483          	ld	s1,1224(sp)
   17a5e:	853e                	mv	a0,a5
   17a60:	4e010113          	addi	sp,sp,1248
   17a64:	8082                	ret
   17a66:	e42a                	sd	a0,8(sp)
   17a68:	080c                	addi	a1,sp,16
   17a6a:	8526                	mv	a0,s1
   17a6c:	c45fb0ef          	jal	136b0 <_fflush_r>
   17a70:	67a2                	ld	a5,8(sp)
   17a72:	d569                	beqz	a0,17a3c <__sbprintf+0x56>
   17a74:	57fd                	li	a5,-1
   17a76:	b7d9                	j	17a3c <__sbprintf+0x56>

0000000000017a78 <__errno>:
   17a78:	2201b503          	ld	a0,544(gp) # 1b630 <_impure_ptr>
   17a7c:	8082                	ret

0000000000017a7e <abort>:
   17a7e:	1141                	addi	sp,sp,-16
   17a80:	4519                	li	a0,6
   17a82:	e406                	sd	ra,8(sp)
   17a84:	184000ef          	jal	17c08 <raise>
   17a88:	4505                	li	a0,1
   17a8a:	376000ef          	jal	17e00 <_exit>

0000000000017a8e <_init_signal_r>:
   17a8e:	15053703          	ld	a4,336(a0)
   17a92:	c319                	beqz	a4,17a98 <_init_signal_r+0xa>
   17a94:	4501                	li	a0,0
   17a96:	8082                	ret
   17a98:	1101                	addi	sp,sp,-32
   17a9a:	10000593          	li	a1,256
   17a9e:	ec06                	sd	ra,24(sp)
   17aa0:	e42a                	sd	a0,8(sp)
   17aa2:	a9ef90ef          	jal	10d40 <_malloc_r>
   17aa6:	67a2                	ld	a5,8(sp)
   17aa8:	14a7b823          	sd	a0,336(a5)
   17aac:	cd01                	beqz	a0,17ac4 <_init_signal_r+0x36>
   17aae:	10050793          	addi	a5,a0,256
   17ab2:	00053023          	sd	zero,0(a0)
   17ab6:	0521                	addi	a0,a0,8
   17ab8:	fef51de3          	bne	a0,a5,17ab2 <_init_signal_r+0x24>
   17abc:	4501                	li	a0,0
   17abe:	60e2                	ld	ra,24(sp)
   17ac0:	6105                	addi	sp,sp,32
   17ac2:	8082                	ret
   17ac4:	557d                	li	a0,-1
   17ac6:	bfe5                	j	17abe <_init_signal_r+0x30>

0000000000017ac8 <_signal_r>:
   17ac8:	477d                	li	a4,31
   17aca:	00b76a63          	bltu	a4,a1,17ade <_signal_r+0x16>
   17ace:	15053703          	ld	a4,336(a0)
   17ad2:	cb11                	beqz	a4,17ae6 <_signal_r+0x1e>
   17ad4:	058e                	slli	a1,a1,0x3
   17ad6:	972e                	add	a4,a4,a1
   17ad8:	6308                	ld	a0,0(a4)
   17ada:	e310                	sd	a2,0(a4)
   17adc:	8082                	ret
   17ade:	4759                	li	a4,22
   17ae0:	c118                	sw	a4,0(a0)
   17ae2:	557d                	li	a0,-1
   17ae4:	8082                	ret
   17ae6:	7179                	addi	sp,sp,-48
   17ae8:	e42e                	sd	a1,8(sp)
   17aea:	10000593          	li	a1,256
   17aee:	e832                	sd	a2,16(sp)
   17af0:	f406                	sd	ra,40(sp)
   17af2:	ec2a                	sd	a0,24(sp)
   17af4:	a4cf90ef          	jal	10d40 <_malloc_r>
   17af8:	66e2                	ld	a3,24(sp)
   17afa:	872a                	mv	a4,a0
   17afc:	10050593          	addi	a1,a0,256
   17b00:	14a6b823          	sd	a0,336(a3)
   17b04:	67a2                	ld	a5,8(sp)
   17b06:	86aa                	mv	a3,a0
   17b08:	6642                	ld	a2,16(sp)
   17b0a:	557d                	li	a0,-1
   17b0c:	cb19                	beqz	a4,17b22 <_signal_r+0x5a>
   17b0e:	0006b023          	sd	zero,0(a3)
   17b12:	06a1                	addi	a3,a3,8
   17b14:	feb69de3          	bne	a3,a1,17b0e <_signal_r+0x46>
   17b18:	00379593          	slli	a1,a5,0x3
   17b1c:	972e                	add	a4,a4,a1
   17b1e:	6308                	ld	a0,0(a4)
   17b20:	e310                	sd	a2,0(a4)
   17b22:	70a2                	ld	ra,40(sp)
   17b24:	6145                	addi	sp,sp,48
   17b26:	8082                	ret

0000000000017b28 <_raise_r>:
   17b28:	47fd                	li	a5,31
   17b2a:	04b7ec63          	bltu	a5,a1,17b82 <_raise_r+0x5a>
   17b2e:	15053783          	ld	a5,336(a0)
   17b32:	1101                	addi	sp,sp,-32
   17b34:	ec06                	sd	ra,24(sp)
   17b36:	872a                	mv	a4,a0
   17b38:	862e                	mv	a2,a1
   17b3a:	c785                	beqz	a5,17b62 <_raise_r+0x3a>
   17b3c:	00359693          	slli	a3,a1,0x3
   17b40:	97b6                	add	a5,a5,a3
   17b42:	6394                	ld	a3,0(a5)
   17b44:	ce99                	beqz	a3,17b62 <_raise_r+0x3a>
   17b46:	4505                	li	a0,1
   17b48:	00a68963          	beq	a3,a0,17b5a <_raise_r+0x32>
   17b4c:	55fd                	li	a1,-1
   17b4e:	02b68563          	beq	a3,a1,17b78 <_raise_r+0x50>
   17b52:	0007b023          	sd	zero,0(a5)
   17b56:	8532                	mv	a0,a2
   17b58:	9682                	jalr	a3
   17b5a:	60e2                	ld	ra,24(sp)
   17b5c:	4501                	li	a0,0
   17b5e:	6105                	addi	sp,sp,32
   17b60:	8082                	ret
   17b62:	853a                	mv	a0,a4
   17b64:	e432                	sd	a2,8(sp)
   17b66:	e03a                	sd	a4,0(sp)
   17b68:	26c000ef          	jal	17dd4 <_getpid_r>
   17b6c:	6622                	ld	a2,8(sp)
   17b6e:	60e2                	ld	ra,24(sp)
   17b70:	85aa                	mv	a1,a0
   17b72:	6502                	ld	a0,0(sp)
   17b74:	6105                	addi	sp,sp,32
   17b76:	a415                	j	17d9a <_kill_r>
   17b78:	60e2                	ld	ra,24(sp)
   17b7a:	47d9                	li	a5,22
   17b7c:	c31c                	sw	a5,0(a4)
   17b7e:	6105                	addi	sp,sp,32
   17b80:	8082                	ret
   17b82:	47d9                	li	a5,22
   17b84:	c11c                	sw	a5,0(a0)
   17b86:	557d                	li	a0,-1
   17b88:	8082                	ret

0000000000017b8a <__sigtramp_r>:
   17b8a:	47fd                	li	a5,31
   17b8c:	06b7ec63          	bltu	a5,a1,17c04 <__sigtramp_r+0x7a>
   17b90:	15053783          	ld	a5,336(a0)
   17b94:	1101                	addi	sp,sp,-32
   17b96:	ec06                	sd	ra,24(sp)
   17b98:	872e                	mv	a4,a1
   17b9a:	cf95                	beqz	a5,17bd6 <__sigtramp_r+0x4c>
   17b9c:	00371693          	slli	a3,a4,0x3
   17ba0:	97b6                	add	a5,a5,a3
   17ba2:	6394                	ld	a3,0(a5)
   17ba4:	ce99                	beqz	a3,17bc2 <__sigtramp_r+0x38>
   17ba6:	567d                	li	a2,-1
   17ba8:	02c68563          	beq	a3,a2,17bd2 <__sigtramp_r+0x48>
   17bac:	4605                	li	a2,1
   17bae:	00c68e63          	beq	a3,a2,17bca <__sigtramp_r+0x40>
   17bb2:	853a                	mv	a0,a4
   17bb4:	0007b023          	sd	zero,0(a5)
   17bb8:	9682                	jalr	a3
   17bba:	4501                	li	a0,0
   17bbc:	60e2                	ld	ra,24(sp)
   17bbe:	6105                	addi	sp,sp,32
   17bc0:	8082                	ret
   17bc2:	60e2                	ld	ra,24(sp)
   17bc4:	4505                	li	a0,1
   17bc6:	6105                	addi	sp,sp,32
   17bc8:	8082                	ret
   17bca:	60e2                	ld	ra,24(sp)
   17bcc:	450d                	li	a0,3
   17bce:	6105                	addi	sp,sp,32
   17bd0:	8082                	ret
   17bd2:	4509                	li	a0,2
   17bd4:	b7e5                	j	17bbc <__sigtramp_r+0x32>
   17bd6:	e42e                	sd	a1,8(sp)
   17bd8:	10000593          	li	a1,256
   17bdc:	e02a                	sd	a0,0(sp)
   17bde:	962f90ef          	jal	10d40 <_malloc_r>
   17be2:	6682                	ld	a3,0(sp)
   17be4:	87aa                	mv	a5,a0
   17be6:	14a6b823          	sd	a0,336(a3)
   17bea:	c919                	beqz	a0,17c00 <__sigtramp_r+0x76>
   17bec:	6722                	ld	a4,8(sp)
   17bee:	86aa                	mv	a3,a0
   17bf0:	10050613          	addi	a2,a0,256
   17bf4:	0006b023          	sd	zero,0(a3)
   17bf8:	06a1                	addi	a3,a3,8
   17bfa:	fec69de3          	bne	a3,a2,17bf4 <__sigtramp_r+0x6a>
   17bfe:	bf79                	j	17b9c <__sigtramp_r+0x12>
   17c00:	557d                	li	a0,-1
   17c02:	bf6d                	j	17bbc <__sigtramp_r+0x32>
   17c04:	557d                	li	a0,-1
   17c06:	8082                	ret

0000000000017c08 <raise>:
   17c08:	47fd                	li	a5,31
   17c0a:	2201b803          	ld	a6,544(gp) # 1b630 <_impure_ptr>
   17c0e:	04a7ec63          	bltu	a5,a0,17c66 <raise+0x5e>
   17c12:	15083783          	ld	a5,336(a6)
   17c16:	1101                	addi	sp,sp,-32
   17c18:	ec06                	sd	ra,24(sp)
   17c1a:	862a                	mv	a2,a0
   17c1c:	c39d                	beqz	a5,17c42 <raise+0x3a>
   17c1e:	00351713          	slli	a4,a0,0x3
   17c22:	97ba                	add	a5,a5,a4
   17c24:	6398                	ld	a4,0(a5)
   17c26:	cf11                	beqz	a4,17c42 <raise+0x3a>
   17c28:	4685                	li	a3,1
   17c2a:	00d70863          	beq	a4,a3,17c3a <raise+0x32>
   17c2e:	567d                	li	a2,-1
   17c30:	02c70463          	beq	a4,a2,17c58 <raise+0x50>
   17c34:	0007b023          	sd	zero,0(a5)
   17c38:	9702                	jalr	a4
   17c3a:	60e2                	ld	ra,24(sp)
   17c3c:	4501                	li	a0,0
   17c3e:	6105                	addi	sp,sp,32
   17c40:	8082                	ret
   17c42:	8542                	mv	a0,a6
   17c44:	e432                	sd	a2,8(sp)
   17c46:	e042                	sd	a6,0(sp)
   17c48:	18c000ef          	jal	17dd4 <_getpid_r>
   17c4c:	6622                	ld	a2,8(sp)
   17c4e:	60e2                	ld	ra,24(sp)
   17c50:	85aa                	mv	a1,a0
   17c52:	6502                	ld	a0,0(sp)
   17c54:	6105                	addi	sp,sp,32
   17c56:	a291                	j	17d9a <_kill_r>
   17c58:	60e2                	ld	ra,24(sp)
   17c5a:	47d9                	li	a5,22
   17c5c:	00f82023          	sw	a5,0(a6)
   17c60:	8536                	mv	a0,a3
   17c62:	6105                	addi	sp,sp,32
   17c64:	8082                	ret
   17c66:	47d9                	li	a5,22
   17c68:	00f82023          	sw	a5,0(a6)
   17c6c:	557d                	li	a0,-1
   17c6e:	8082                	ret

0000000000017c70 <signal>:
   17c70:	47fd                	li	a5,31
   17c72:	2201b603          	ld	a2,544(gp) # 1b630 <_impure_ptr>
   17c76:	00a7ea63          	bltu	a5,a0,17c8a <signal+0x1a>
   17c7a:	15063703          	ld	a4,336(a2)
   17c7e:	cb11                	beqz	a4,17c92 <signal+0x22>
   17c80:	050e                	slli	a0,a0,0x3
   17c82:	972a                	add	a4,a4,a0
   17c84:	6308                	ld	a0,0(a4)
   17c86:	e30c                	sd	a1,0(a4)
   17c88:	8082                	ret
   17c8a:	47d9                	li	a5,22
   17c8c:	c21c                	sw	a5,0(a2)
   17c8e:	557d                	li	a0,-1
   17c90:	8082                	ret
   17c92:	7179                	addi	sp,sp,-48
   17c94:	ec2e                	sd	a1,24(sp)
   17c96:	e82a                	sd	a0,16(sp)
   17c98:	10000593          	li	a1,256
   17c9c:	8532                	mv	a0,a2
   17c9e:	e432                	sd	a2,8(sp)
   17ca0:	f406                	sd	ra,40(sp)
   17ca2:	89ef90ef          	jal	10d40 <_malloc_r>
   17ca6:	6622                	ld	a2,8(sp)
   17ca8:	872a                	mv	a4,a0
   17caa:	10050593          	addi	a1,a0,256
   17cae:	14a63823          	sd	a0,336(a2)
   17cb2:	67c2                	ld	a5,16(sp)
   17cb4:	862a                	mv	a2,a0
   17cb6:	66e2                	ld	a3,24(sp)
   17cb8:	557d                	li	a0,-1
   17cba:	cb19                	beqz	a4,17cd0 <signal+0x60>
   17cbc:	00063023          	sd	zero,0(a2)
   17cc0:	0621                	addi	a2,a2,8
   17cc2:	fec59de3          	bne	a1,a2,17cbc <signal+0x4c>
   17cc6:	00379513          	slli	a0,a5,0x3
   17cca:	972a                	add	a4,a4,a0
   17ccc:	6308                	ld	a0,0(a4)
   17cce:	e314                	sd	a3,0(a4)
   17cd0:	70a2                	ld	ra,40(sp)
   17cd2:	6145                	addi	sp,sp,48
   17cd4:	8082                	ret

0000000000017cd6 <_init_signal>:
   17cd6:	2201b783          	ld	a5,544(gp) # 1b630 <_impure_ptr>
   17cda:	1507b703          	ld	a4,336(a5)
   17cde:	c319                	beqz	a4,17ce4 <_init_signal+0xe>
   17ce0:	4501                	li	a0,0
   17ce2:	8082                	ret
   17ce4:	1101                	addi	sp,sp,-32
   17ce6:	853e                	mv	a0,a5
   17ce8:	10000593          	li	a1,256
   17cec:	e43e                	sd	a5,8(sp)
   17cee:	ec06                	sd	ra,24(sp)
   17cf0:	850f90ef          	jal	10d40 <_malloc_r>
   17cf4:	67a2                	ld	a5,8(sp)
   17cf6:	14a7b823          	sd	a0,336(a5)
   17cfa:	cd01                	beqz	a0,17d12 <_init_signal+0x3c>
   17cfc:	10050793          	addi	a5,a0,256
   17d00:	00053023          	sd	zero,0(a0)
   17d04:	0521                	addi	a0,a0,8
   17d06:	fef51de3          	bne	a0,a5,17d00 <_init_signal+0x2a>
   17d0a:	4501                	li	a0,0
   17d0c:	60e2                	ld	ra,24(sp)
   17d0e:	6105                	addi	sp,sp,32
   17d10:	8082                	ret
   17d12:	557d                	li	a0,-1
   17d14:	bfe5                	j	17d0c <_init_signal+0x36>

0000000000017d16 <__sigtramp>:
   17d16:	47fd                	li	a5,31
   17d18:	06a7ef63          	bltu	a5,a0,17d96 <__sigtramp+0x80>
   17d1c:	2201b683          	ld	a3,544(gp) # 1b630 <_impure_ptr>
   17d20:	1101                	addi	sp,sp,-32
   17d22:	ec06                	sd	ra,24(sp)
   17d24:	1506b783          	ld	a5,336(a3)
   17d28:	872a                	mv	a4,a0
   17d2a:	cf95                	beqz	a5,17d66 <__sigtramp+0x50>
   17d2c:	00371693          	slli	a3,a4,0x3
   17d30:	97b6                	add	a5,a5,a3
   17d32:	6394                	ld	a3,0(a5)
   17d34:	ce99                	beqz	a3,17d52 <__sigtramp+0x3c>
   17d36:	567d                	li	a2,-1
   17d38:	02c68563          	beq	a3,a2,17d62 <__sigtramp+0x4c>
   17d3c:	4605                	li	a2,1
   17d3e:	00c68e63          	beq	a3,a2,17d5a <__sigtramp+0x44>
   17d42:	853a                	mv	a0,a4
   17d44:	0007b023          	sd	zero,0(a5)
   17d48:	9682                	jalr	a3
   17d4a:	4501                	li	a0,0
   17d4c:	60e2                	ld	ra,24(sp)
   17d4e:	6105                	addi	sp,sp,32
   17d50:	8082                	ret
   17d52:	60e2                	ld	ra,24(sp)
   17d54:	4505                	li	a0,1
   17d56:	6105                	addi	sp,sp,32
   17d58:	8082                	ret
   17d5a:	60e2                	ld	ra,24(sp)
   17d5c:	450d                	li	a0,3
   17d5e:	6105                	addi	sp,sp,32
   17d60:	8082                	ret
   17d62:	4509                	li	a0,2
   17d64:	b7e5                	j	17d4c <__sigtramp+0x36>
   17d66:	e42a                	sd	a0,8(sp)
   17d68:	10000593          	li	a1,256
   17d6c:	8536                	mv	a0,a3
   17d6e:	e036                	sd	a3,0(sp)
   17d70:	fd1f80ef          	jal	10d40 <_malloc_r>
   17d74:	6682                	ld	a3,0(sp)
   17d76:	87aa                	mv	a5,a0
   17d78:	14a6b823          	sd	a0,336(a3)
   17d7c:	c919                	beqz	a0,17d92 <__sigtramp+0x7c>
   17d7e:	6722                	ld	a4,8(sp)
   17d80:	86aa                	mv	a3,a0
   17d82:	10050613          	addi	a2,a0,256
   17d86:	0006b023          	sd	zero,0(a3)
   17d8a:	06a1                	addi	a3,a3,8
   17d8c:	fed61de3          	bne	a2,a3,17d86 <__sigtramp+0x70>
   17d90:	bf71                	j	17d2c <__sigtramp+0x16>
   17d92:	557d                	li	a0,-1
   17d94:	bf65                	j	17d4c <__sigtramp+0x36>
   17d96:	557d                	li	a0,-1
   17d98:	8082                	ret

0000000000017d9a <_kill_r>:
   17d9a:	1101                	addi	sp,sp,-32
   17d9c:	87ae                	mv	a5,a1
   17d9e:	e822                	sd	s0,16(sp)
   17da0:	e426                	sd	s1,8(sp)
   17da2:	85b2                	mv	a1,a2
   17da4:	84aa                	mv	s1,a0
   17da6:	853e                	mv	a0,a5
   17da8:	ec06                	sd	ra,24(sp)
   17daa:	2401a023          	sw	zero,576(gp) # 1b650 <errno>
   17dae:	0e0000ef          	jal	17e8e <_kill>
   17db2:	57fd                	li	a5,-1
   17db4:	00f50763          	beq	a0,a5,17dc2 <_kill_r+0x28>
   17db8:	60e2                	ld	ra,24(sp)
   17dba:	6442                	ld	s0,16(sp)
   17dbc:	64a2                	ld	s1,8(sp)
   17dbe:	6105                	addi	sp,sp,32
   17dc0:	8082                	ret
   17dc2:	2401a783          	lw	a5,576(gp) # 1b650 <errno>
   17dc6:	dbed                	beqz	a5,17db8 <_kill_r+0x1e>
   17dc8:	60e2                	ld	ra,24(sp)
   17dca:	6442                	ld	s0,16(sp)
   17dcc:	c09c                	sw	a5,0(s1)
   17dce:	64a2                	ld	s1,8(sp)
   17dd0:	6105                	addi	sp,sp,32
   17dd2:	8082                	ret

0000000000017dd4 <_getpid_r>:
   17dd4:	a841                	j	17e64 <_getpid>

0000000000017dd6 <_close>:
   17dd6:	03900893          	li	a7,57
   17dda:	00000073          	ecall
   17dde:	00054463          	bltz	a0,17de6 <_close+0x10>
   17de2:	2501                	sext.w	a0,a0
   17de4:	8082                	ret
   17de6:	1101                	addi	sp,sp,-32
   17de8:	ec06                	sd	ra,24(sp)
   17dea:	e42a                	sd	a0,8(sp)
   17dec:	c8dff0ef          	jal	17a78 <__errno>
   17df0:	67a2                	ld	a5,8(sp)
   17df2:	60e2                	ld	ra,24(sp)
   17df4:	40f007bb          	negw	a5,a5
   17df8:	c11c                	sw	a5,0(a0)
   17dfa:	557d                	li	a0,-1
   17dfc:	6105                	addi	sp,sp,32
   17dfe:	8082                	ret

0000000000017e00 <_exit>:
   17e00:	05d00893          	li	a7,93
   17e04:	00000073          	ecall
   17e08:	00054363          	bltz	a0,17e0e <_exit+0xe>
   17e0c:	a001                	j	17e0c <_exit+0xc>
   17e0e:	1101                	addi	sp,sp,-32
   17e10:	ec06                	sd	ra,24(sp)
   17e12:	e42a                	sd	a0,8(sp)
   17e14:	c65ff0ef          	jal	17a78 <__errno>
   17e18:	67a2                	ld	a5,8(sp)
   17e1a:	40f007bb          	negw	a5,a5
   17e1e:	c11c                	sw	a5,0(a0)
   17e20:	a001                	j	17e20 <_exit+0x20>

0000000000017e22 <_fstat>:
   17e22:	7135                	addi	sp,sp,-160
   17e24:	872e                	mv	a4,a1
   17e26:	ed06                	sd	ra,152(sp)
   17e28:	e922                	sd	s0,144(sp)
   17e2a:	05000893          	li	a7,80
   17e2e:	080c                	addi	a1,sp,16
   17e30:	00000073          	ecall
   17e34:	00054d63          	bltz	a0,17e4e <_fstat+0x2c>
   17e38:	0005041b          	sext.w	s0,a0
   17e3c:	080c                	addi	a1,sp,16
   17e3e:	853a                	mv	a0,a4
   17e40:	134000ef          	jal	17f74 <_conv_stat>
   17e44:	60ea                	ld	ra,152(sp)
   17e46:	8522                	mv	a0,s0
   17e48:	644a                	ld	s0,144(sp)
   17e4a:	610d                	addi	sp,sp,160
   17e4c:	8082                	ret
   17e4e:	e03a                	sd	a4,0(sp)
   17e50:	e42a                	sd	a0,8(sp)
   17e52:	c27ff0ef          	jal	17a78 <__errno>
   17e56:	67a2                	ld	a5,8(sp)
   17e58:	6702                	ld	a4,0(sp)
   17e5a:	547d                	li	s0,-1
   17e5c:	40f007bb          	negw	a5,a5
   17e60:	c11c                	sw	a5,0(a0)
   17e62:	bfe9                	j	17e3c <_fstat+0x1a>

0000000000017e64 <_getpid>:
   17e64:	4505                	li	a0,1
   17e66:	8082                	ret

0000000000017e68 <_isatty>:
   17e68:	7119                	addi	sp,sp,-128
   17e6a:	002c                	addi	a1,sp,8
   17e6c:	fc86                	sd	ra,120(sp)
   17e6e:	fb5ff0ef          	jal	17e22 <_fstat>
   17e72:	57fd                	li	a5,-1
   17e74:	00f50963          	beq	a0,a5,17e86 <_isatty+0x1e>
   17e78:	4532                	lw	a0,12(sp)
   17e7a:	70e6                	ld	ra,120(sp)
   17e7c:	00d5551b          	srliw	a0,a0,0xd
   17e80:	8905                	andi	a0,a0,1
   17e82:	6109                	addi	sp,sp,128
   17e84:	8082                	ret
   17e86:	70e6                	ld	ra,120(sp)
   17e88:	4501                	li	a0,0
   17e8a:	6109                	addi	sp,sp,128
   17e8c:	8082                	ret

0000000000017e8e <_kill>:
   17e8e:	1141                	addi	sp,sp,-16
   17e90:	e406                	sd	ra,8(sp)
   17e92:	be7ff0ef          	jal	17a78 <__errno>
   17e96:	60a2                	ld	ra,8(sp)
   17e98:	47d9                	li	a5,22
   17e9a:	c11c                	sw	a5,0(a0)
   17e9c:	557d                	li	a0,-1
   17e9e:	0141                	addi	sp,sp,16
   17ea0:	8082                	ret

0000000000017ea2 <_lseek>:
   17ea2:	03e00893          	li	a7,62
   17ea6:	00000073          	ecall
   17eaa:	00054363          	bltz	a0,17eb0 <_lseek+0xe>
   17eae:	8082                	ret
   17eb0:	1101                	addi	sp,sp,-32
   17eb2:	ec06                	sd	ra,24(sp)
   17eb4:	e42a                	sd	a0,8(sp)
   17eb6:	bc3ff0ef          	jal	17a78 <__errno>
   17eba:	67a2                	ld	a5,8(sp)
   17ebc:	60e2                	ld	ra,24(sp)
   17ebe:	40f007bb          	negw	a5,a5
   17ec2:	c11c                	sw	a5,0(a0)
   17ec4:	57fd                	li	a5,-1
   17ec6:	853e                	mv	a0,a5
   17ec8:	6105                	addi	sp,sp,32
   17eca:	8082                	ret

0000000000017ecc <_read>:
   17ecc:	03f00893          	li	a7,63
   17ed0:	00000073          	ecall
   17ed4:	00054363          	bltz	a0,17eda <_read+0xe>
   17ed8:	8082                	ret
   17eda:	1101                	addi	sp,sp,-32
   17edc:	ec06                	sd	ra,24(sp)
   17ede:	e42a                	sd	a0,8(sp)
   17ee0:	b99ff0ef          	jal	17a78 <__errno>
   17ee4:	67a2                	ld	a5,8(sp)
   17ee6:	60e2                	ld	ra,24(sp)
   17ee8:	40f007bb          	negw	a5,a5
   17eec:	c11c                	sw	a5,0(a0)
   17eee:	57fd                	li	a5,-1
   17ef0:	853e                	mv	a0,a5
   17ef2:	6105                	addi	sp,sp,32
   17ef4:	8082                	ret

0000000000017ef6 <_sbrk>:
   17ef6:	2701b783          	ld	a5,624(gp) # 1b680 <heap_end.0>
   17efa:	1141                	addi	sp,sp,-16
   17efc:	e406                	sd	ra,8(sp)
   17efe:	872a                	mv	a4,a0
   17f00:	ef81                	bnez	a5,17f18 <_sbrk+0x22>
   17f02:	0d600893          	li	a7,214
   17f06:	4501                	li	a0,0
   17f08:	00000073          	ecall
   17f0c:	57fd                	li	a5,-1
   17f0e:	02f50663          	beq	a0,a5,17f3a <_sbrk+0x44>
   17f12:	87aa                	mv	a5,a0
   17f14:	26a1b823          	sd	a0,624(gp) # 1b680 <heap_end.0>
   17f18:	00f70533          	add	a0,a4,a5
   17f1c:	0d600893          	li	a7,214
   17f20:	00000073          	ecall
   17f24:	2701b783          	ld	a5,624(gp) # 1b680 <heap_end.0>
   17f28:	973e                	add	a4,a4,a5
   17f2a:	00e51863          	bne	a0,a4,17f3a <_sbrk+0x44>
   17f2e:	60a2                	ld	ra,8(sp)
   17f30:	26a1b823          	sd	a0,624(gp) # 1b680 <heap_end.0>
   17f34:	853e                	mv	a0,a5
   17f36:	0141                	addi	sp,sp,16
   17f38:	8082                	ret
   17f3a:	b3fff0ef          	jal	17a78 <__errno>
   17f3e:	60a2                	ld	ra,8(sp)
   17f40:	47b1                	li	a5,12
   17f42:	c11c                	sw	a5,0(a0)
   17f44:	557d                	li	a0,-1
   17f46:	0141                	addi	sp,sp,16
   17f48:	8082                	ret

0000000000017f4a <_write>:
   17f4a:	04000893          	li	a7,64
   17f4e:	00000073          	ecall
   17f52:	00054363          	bltz	a0,17f58 <_write+0xe>
   17f56:	8082                	ret
   17f58:	1101                	addi	sp,sp,-32
   17f5a:	ec06                	sd	ra,24(sp)
   17f5c:	e42a                	sd	a0,8(sp)
   17f5e:	b1bff0ef          	jal	17a78 <__errno>
   17f62:	67a2                	ld	a5,8(sp)
   17f64:	60e2                	ld	ra,24(sp)
   17f66:	40f007bb          	negw	a5,a5
   17f6a:	c11c                	sw	a5,0(a0)
   17f6c:	57fd                	li	a5,-1
   17f6e:	853e                	mv	a0,a5
   17f70:	6105                	addi	sp,sp,32
   17f72:	8082                	ret

0000000000017f74 <_conv_stat>:
   17f74:	0005b383          	ld	t2,0(a1)
   17f78:	0085b283          	ld	t0,8(a1)
   17f7c:	0105af83          	lw	t6,16(a1)
   17f80:	0145af03          	lw	t5,20(a1)
   17f84:	0185ae83          	lw	t4,24(a1)
   17f88:	01c5ae03          	lw	t3,28(a1)
   17f8c:	0205b303          	ld	t1,32(a1)
   17f90:	0305b883          	ld	a7,48(a1)
   17f94:	0405b803          	ld	a6,64(a1)
   17f98:	5d90                	lw	a2,56(a1)
   17f9a:	65b4                	ld	a3,72(a1)
   17f9c:	6db8                	ld	a4,88(a1)
   17f9e:	75bc                	ld	a5,104(a1)
   17fa0:	00751023          	sh	t2,0(a0)
   17fa4:	00551123          	sh	t0,2(a0)
   17fa8:	01f52223          	sw	t6,4(a0)
   17fac:	01e51423          	sh	t5,8(a0)
   17fb0:	01d51523          	sh	t4,10(a0)
   17fb4:	01c51623          	sh	t3,12(a0)
   17fb8:	00651723          	sh	t1,14(a0)
   17fbc:	01153823          	sd	a7,16(a0)
   17fc0:	05053823          	sd	a6,80(a0)
   17fc4:	e530                	sd	a2,72(a0)
   17fc6:	ed14                	sd	a3,24(a0)
   17fc8:	f518                	sd	a4,40(a0)
   17fca:	fd1c                	sd	a5,56(a0)
   17fcc:	8082                	ret

0000000000017fce <__eqtf2>:
   17fce:	002027f3          	frrm	a5
   17fd2:	68a1                	lui	a7,0x8
   17fd4:	0305d813          	srli	a6,a1,0x30
   17fd8:	18fd                	addi	a7,a7,-1 # 7fff <exit-0x8121>
   17fda:	577d                	li	a4,-1
   17fdc:	8341                	srli	a4,a4,0x10
   17fde:	0306d793          	srli	a5,a3,0x30
   17fe2:	01187833          	and	a6,a6,a7
   17fe6:	00e5f333          	and	t1,a1,a4
   17fea:	0117f7b3          	and	a5,a5,a7
   17fee:	8f75                	and	a4,a4,a3
   17ff0:	91fd                	srli	a1,a1,0x3f
   17ff2:	92fd                	srli	a3,a3,0x3f
   17ff4:	01181a63          	bne	a6,a7,18008 <__eqtf2+0x3a>
   17ff8:	006568b3          	or	a7,a0,t1
   17ffc:	02089063          	bnez	a7,1801c <__eqtf2+0x4e>
   18000:	01078663          	beq	a5,a6,1800c <__eqtf2+0x3e>
   18004:	4785                	li	a5,1
   18006:	a0ad                	j	18070 <__eqtf2+0xa2>
   18008:	05179063          	bne	a5,a7,18048 <__eqtf2+0x7a>
   1800c:	00e668b3          	or	a7,a2,a4
   18010:	02088c63          	beqz	a7,18048 <__eqtf2+0x7a>
   18014:	66a1                	lui	a3,0x8
   18016:	16fd                	addi	a3,a3,-1 # 7fff <exit-0x8121>
   18018:	00d81e63          	bne	a6,a3,18034 <__eqtf2+0x66>
   1801c:	00656533          	or	a0,a0,t1
   18020:	c509                	beqz	a0,1802a <__eqtf2+0x5c>
   18022:	4685                	li	a3,1
   18024:	16be                	slli	a3,a3,0x2f
   18026:	00d36d63          	bltu	t1,a3,18040 <__eqtf2+0x72>
   1802a:	66a1                	lui	a3,0x8
   1802c:	16fd                	addi	a3,a3,-1 # 7fff <exit-0x8121>
   1802e:	4505                	li	a0,1
   18030:	04d79263          	bne	a5,a3,18074 <__eqtf2+0xa6>
   18034:	8e59                	or	a2,a2,a4
   18036:	c619                	beqz	a2,18044 <__eqtf2+0x76>
   18038:	4785                	li	a5,1
   1803a:	17be                	slli	a5,a5,0x2f
   1803c:	00f77463          	bgeu	a4,a5,18044 <__eqtf2+0x76>
   18040:	00186073          	csrsi	fflags,16
   18044:	4505                	li	a0,1
   18046:	8082                	ret
   18048:	40f807b3          	sub	a5,a6,a5
   1804c:	8e09                	sub	a2,a2,a0
   1804e:	00f037b3          	snez	a5,a5
   18052:	00c03633          	snez	a2,a2
   18056:	8fd1                	or	a5,a5,a2
   18058:	f7d5                	bnez	a5,18004 <__eqtf2+0x36>
   1805a:	fae315e3          	bne	t1,a4,18004 <__eqtf2+0x36>
   1805e:	00d58963          	beq	a1,a3,18070 <__eqtf2+0xa2>
   18062:	4785                	li	a5,1
   18064:	00081663          	bnez	a6,18070 <__eqtf2+0xa2>
   18068:	006567b3          	or	a5,a0,t1
   1806c:	00f037b3          	snez	a5,a5
   18070:	853e                	mv	a0,a5
   18072:	8082                	ret
   18074:	8082                	ret

0000000000018076 <__getf2>:
   18076:	002027f3          	frrm	a5
   1807a:	67a1                	lui	a5,0x8
   1807c:	0305d813          	srli	a6,a1,0x30
   18080:	17fd                	addi	a5,a5,-1 # 7fff <exit-0x8121>
   18082:	537d                	li	t1,-1
   18084:	01035313          	srli	t1,t1,0x10
   18088:	0306d713          	srli	a4,a3,0x30
   1808c:	00f87833          	and	a6,a6,a5
   18090:	0065f8b3          	and	a7,a1,t1
   18094:	8f7d                	and	a4,a4,a5
   18096:	91fd                	srli	a1,a1,0x3f
   18098:	03f6de13          	srli	t3,a3,0x3f
   1809c:	04f80063          	beq	a6,a5,180dc <__getf2+0x66>
   180a0:	0066f6b3          	and	a3,a3,t1
   180a4:	6321                	lui	t1,0x8
   180a6:	137d                	addi	t1,t1,-1 # 7fff <exit-0x8121>
   180a8:	87ba                	mv	a5,a4
   180aa:	00671663          	bne	a4,t1,180b6 <__getf2+0x40>
   180ae:	00c6e333          	or	t1,a3,a2
   180b2:	02031863          	bnez	t1,180e2 <__getf2+0x6c>
   180b6:	4301                	li	t1,0
   180b8:	00081663          	bnez	a6,180c4 <__getf2+0x4e>
   180bc:	00a8e333          	or	t1,a7,a0
   180c0:	00133313          	seqz	t1,t1
   180c4:	eb29                	bnez	a4,18116 <__getf2+0xa0>
   180c6:	00c6eeb3          	or	t4,a3,a2
   180ca:	02030063          	beqz	t1,180ea <__getf2+0x74>
   180ce:	020e8263          	beqz	t4,180f2 <__getf2+0x7c>
   180d2:	4785                	li	a5,1
   180d4:	000e1f63          	bnez	t3,180f2 <__getf2+0x7c>
   180d8:	57fd                	li	a5,-1
   180da:	a821                	j	180f2 <__getf2+0x7c>
   180dc:	00a8e7b3          	or	a5,a7,a0
   180e0:	d3e1                	beqz	a5,180a0 <__getf2+0x2a>
   180e2:	00186073          	csrsi	fflags,16
   180e6:	57f9                	li	a5,-2
   180e8:	a029                	j	180f2 <__getf2+0x7c>
   180ea:	020e9863          	bnez	t4,1811a <__getf2+0xa4>
   180ee:	57fd                	li	a5,-1
   180f0:	cd85                	beqz	a1,18128 <__getf2+0xb2>
   180f2:	853e                	mv	a0,a5
   180f4:	8082                	ret
   180f6:	fce84ee3          	blt	a6,a4,180d2 <__getf2+0x5c>
   180fa:	ff16eae3          	bltu	a3,a7,180ee <__getf2+0x78>
   180fe:	00a67463          	bgeu	a2,a0,18106 <__getf2+0x90>
   18102:	fed886e3          	beq	a7,a3,180ee <__getf2+0x78>
   18106:	00c56563          	bltu	a0,a2,18110 <__getf2+0x9a>
   1810a:	4781                	li	a5,0
   1810c:	fed8f3e3          	bgeu	a7,a3,180f2 <__getf2+0x7c>
   18110:	4785                	li	a5,1
   18112:	f1e5                	bnez	a1,180f2 <__getf2+0x7c>
   18114:	b7d1                	j	180d8 <__getf2+0x62>
   18116:	fa031ee3          	bnez	t1,180d2 <__getf2+0x5c>
   1811a:	fcbe1ae3          	bne	t3,a1,180ee <__getf2+0x78>
   1811e:	fd075ce3          	bge	a4,a6,180f6 <__getf2+0x80>
   18122:	57fd                	li	a5,-1
   18124:	fc0e17e3          	bnez	t3,180f2 <__getf2+0x7c>
   18128:	4785                	li	a5,1
   1812a:	b7e1                	j	180f2 <__getf2+0x7c>

000000000001812c <__letf2>:
   1812c:	002027f3          	frrm	a5
   18130:	67a1                	lui	a5,0x8
   18132:	0305d813          	srli	a6,a1,0x30
   18136:	17fd                	addi	a5,a5,-1 # 7fff <exit-0x8121>
   18138:	537d                	li	t1,-1
   1813a:	01035313          	srli	t1,t1,0x10
   1813e:	0306d713          	srli	a4,a3,0x30
   18142:	00f87833          	and	a6,a6,a5
   18146:	0065f8b3          	and	a7,a1,t1
   1814a:	8f7d                	and	a4,a4,a5
   1814c:	91fd                	srli	a1,a1,0x3f
   1814e:	03f6de13          	srli	t3,a3,0x3f
   18152:	04f80063          	beq	a6,a5,18192 <__letf2+0x66>
   18156:	0066f6b3          	and	a3,a3,t1
   1815a:	6321                	lui	t1,0x8
   1815c:	137d                	addi	t1,t1,-1 # 7fff <exit-0x8121>
   1815e:	87ba                	mv	a5,a4
   18160:	00671663          	bne	a4,t1,1816c <__letf2+0x40>
   18164:	00c6e333          	or	t1,a3,a2
   18168:	02031863          	bnez	t1,18198 <__letf2+0x6c>
   1816c:	4301                	li	t1,0
   1816e:	00081663          	bnez	a6,1817a <__letf2+0x4e>
   18172:	00a8e333          	or	t1,a7,a0
   18176:	00133313          	seqz	t1,t1
   1817a:	eb29                	bnez	a4,181cc <__letf2+0xa0>
   1817c:	00c6eeb3          	or	t4,a3,a2
   18180:	02030063          	beqz	t1,181a0 <__letf2+0x74>
   18184:	020e8263          	beqz	t4,181a8 <__letf2+0x7c>
   18188:	4785                	li	a5,1
   1818a:	000e1f63          	bnez	t3,181a8 <__letf2+0x7c>
   1818e:	57fd                	li	a5,-1
   18190:	a821                	j	181a8 <__letf2+0x7c>
   18192:	00a8e7b3          	or	a5,a7,a0
   18196:	d3e1                	beqz	a5,18156 <__letf2+0x2a>
   18198:	00186073          	csrsi	fflags,16
   1819c:	4789                	li	a5,2
   1819e:	a029                	j	181a8 <__letf2+0x7c>
   181a0:	020e9863          	bnez	t4,181d0 <__letf2+0xa4>
   181a4:	57fd                	li	a5,-1
   181a6:	cd85                	beqz	a1,181de <__letf2+0xb2>
   181a8:	853e                	mv	a0,a5
   181aa:	8082                	ret
   181ac:	fce84ee3          	blt	a6,a4,18188 <__letf2+0x5c>
   181b0:	ff16eae3          	bltu	a3,a7,181a4 <__letf2+0x78>
   181b4:	00a67463          	bgeu	a2,a0,181bc <__letf2+0x90>
   181b8:	fed886e3          	beq	a7,a3,181a4 <__letf2+0x78>
   181bc:	00c56563          	bltu	a0,a2,181c6 <__letf2+0x9a>
   181c0:	4781                	li	a5,0
   181c2:	fed8f3e3          	bgeu	a7,a3,181a8 <__letf2+0x7c>
   181c6:	4785                	li	a5,1
   181c8:	f1e5                	bnez	a1,181a8 <__letf2+0x7c>
   181ca:	b7d1                	j	1818e <__letf2+0x62>
   181cc:	fa031ee3          	bnez	t1,18188 <__letf2+0x5c>
   181d0:	fcbe1ae3          	bne	t3,a1,181a4 <__letf2+0x78>
   181d4:	fd075ce3          	bge	a4,a6,181ac <__letf2+0x80>
   181d8:	57fd                	li	a5,-1
   181da:	fc0e17e3          	bnez	t3,181a8 <__letf2+0x7c>
   181de:	4785                	li	a5,1
   181e0:	b7e1                	j	181a8 <__letf2+0x7c>

00000000000181e2 <__multf3>:
   181e2:	711d                	addi	sp,sp,-96
   181e4:	e8a2                	sd	s0,80(sp)
   181e6:	f852                	sd	s4,48(sp)
   181e8:	e862                	sd	s8,16(sp)
   181ea:	ec86                	sd	ra,88(sp)
   181ec:	e4a6                	sd	s1,72(sp)
   181ee:	e0ca                	sd	s2,64(sp)
   181f0:	fc4e                	sd	s3,56(sp)
   181f2:	f456                	sd	s5,40(sp)
   181f4:	f05a                	sd	s6,32(sp)
   181f6:	ec5e                	sd	s7,24(sp)
   181f8:	e466                	sd	s9,8(sp)
   181fa:	842a                	mv	s0,a0
   181fc:	8c32                	mv	s8,a2
   181fe:	8a36                	mv	s4,a3
   18200:	002029f3          	frrm	s3
   18204:	67a1                	lui	a5,0x8
   18206:	0305db13          	srli	s6,a1,0x30
   1820a:	17fd                	addi	a5,a5,-1 # 7fff <exit-0x8121>
   1820c:	01059913          	slli	s2,a1,0x10
   18210:	00fb7b33          	and	s6,s6,a5
   18214:	2981                	sext.w	s3,s3
   18216:	01095913          	srli	s2,s2,0x10
   1821a:	03f5da93          	srli	s5,a1,0x3f
   1821e:	020b0563          	beqz	s6,18248 <__multf3+0x66>
   18222:	08fb0363          	beq	s6,a5,182a8 <__multf3+0xc6>
   18226:	090e                	slli	s2,s2,0x3
   18228:	03d55793          	srli	a5,a0,0x3d
   1822c:	0127e7b3          	or	a5,a5,s2
   18230:	4905                	li	s2,1
   18232:	194e                	slli	s2,s2,0x33
   18234:	0127e933          	or	s2,a5,s2
   18238:	77f1                	lui	a5,0xffffc
   1823a:	0785                	addi	a5,a5,1 # ffffffffffffc001 <__BSS_END__+0xfffffffffffe03f1>
   1823c:	00351b93          	slli	s7,a0,0x3
   18240:	9b3e                	add	s6,s6,a5
   18242:	4c81                	li	s9,0
   18244:	4481                	li	s1,0
   18246:	a8b5                	j	182c2 <__multf3+0xe0>
   18248:	01256bb3          	or	s7,a0,s2
   1824c:	0e0b8963          	beqz	s7,1833e <__multf3+0x15c>
   18250:	02090d63          	beqz	s2,1828a <__multf3+0xa8>
   18254:	854a                	mv	a0,s2
   18256:	7a5000ef          	jal	191fa <__clzdi2>
   1825a:	2501                	sext.w	a0,a0
   1825c:	ff150793          	addi	a5,a0,-15
   18260:	03d00713          	li	a4,61
   18264:	0037869b          	addiw	a3,a5,3
   18268:	40f707bb          	subw	a5,a4,a5
   1826c:	00d91933          	sll	s2,s2,a3
   18270:	00f457b3          	srl	a5,s0,a5
   18274:	0127e7b3          	or	a5,a5,s2
   18278:	00d41933          	sll	s2,s0,a3
   1827c:	7b71                	lui	s6,0xffffc
   1827e:	0b45                	addi	s6,s6,17 # ffffffffffffc011 <__BSS_END__+0xfffffffffffe0401>
   18280:	8bca                	mv	s7,s2
   18282:	40ab0b33          	sub	s6,s6,a0
   18286:	893e                	mv	s2,a5
   18288:	bf6d                	j	18242 <__multf3+0x60>
   1828a:	771000ef          	jal	191fa <__clzdi2>
   1828e:	0405051b          	addiw	a0,a0,64
   18292:	ff150793          	addi	a5,a0,-15
   18296:	03c00713          	li	a4,60
   1829a:	fcf753e3          	bge	a4,a5,18260 <__multf3+0x7e>
   1829e:	fc37879b          	addiw	a5,a5,-61
   182a2:	00f417b3          	sll	a5,s0,a5
   182a6:	bfd9                	j	1827c <__multf3+0x9a>
   182a8:	01256bb3          	or	s7,a0,s2
   182ac:	080b8d63          	beqz	s7,18346 <__multf3+0x164>
   182b0:	4485                	li	s1,1
   182b2:	14be                	slli	s1,s1,0x2f
   182b4:	009934b3          	sltu	s1,s2,s1
   182b8:	0044949b          	slliw	s1,s1,0x4
   182bc:	8baa                	mv	s7,a0
   182be:	2b01                	sext.w	s6,s6
   182c0:	4c8d                	li	s9,3
   182c2:	56fd                	li	a3,-1
   182c4:	6621                	lui	a2,0x8
   182c6:	030a5713          	srli	a4,s4,0x30
   182ca:	9636                	add	a2,a2,a3
   182cc:	0106d413          	srli	s0,a3,0x10
   182d0:	8f71                	and	a4,a4,a2
   182d2:	008a7433          	and	s0,s4,s0
   182d6:	87e2                	mv	a5,s8
   182d8:	03fa5a13          	srli	s4,s4,0x3f
   182dc:	cb2d                	beqz	a4,1834e <__multf3+0x16c>
   182de:	0cc70663          	beq	a4,a2,183aa <__multf3+0x1c8>
   182e2:	040e                	slli	s0,s0,0x3
   182e4:	03dc5693          	srli	a3,s8,0x3d
   182e8:	8ec1                	or	a3,a3,s0
   182ea:	4405                	li	s0,1
   182ec:	144e                	slli	s0,s0,0x33
   182ee:	8c55                	or	s0,s0,a3
   182f0:	76f1                	lui	a3,0xffffc
   182f2:	0685                	addi	a3,a3,1 # ffffffffffffc001 <__BSS_END__+0xfffffffffffe03f1>
   182f4:	003c1793          	slli	a5,s8,0x3
   182f8:	9736                	add	a4,a4,a3
   182fa:	4881                	li	a7,0
   182fc:	002c9693          	slli	a3,s9,0x2
   18300:	01670833          	add	a6,a4,s6
   18304:	0116e6b3          	or	a3,a3,a7
   18308:	4729                	li	a4,10
   1830a:	00180593          	addi	a1,a6,1
   1830e:	0cd74f63          	blt	a4,a3,183ec <__multf3+0x20a>
   18312:	4509                	li	a0,2
   18314:	014ac633          	xor	a2,s5,s4
   18318:	4705                	li	a4,1
   1831a:	0ad54b63          	blt	a0,a3,183d0 <__multf3+0x1ee>
   1831e:	16fd                	addi	a3,a3,-1
   18320:	0ed76063          	bltu	a4,a3,18400 <__multf3+0x21e>
   18324:	8cc6                	mv	s9,a7
   18326:	4709                	li	a4,2
   18328:	4cec8263          	beq	s9,a4,187ec <__multf3+0x60a>
   1832c:	468d                	li	a3,3
   1832e:	4705                	li	a4,1
   18330:	4adc8863          	beq	s9,a3,187e0 <__multf3+0x5fe>
   18334:	26ec9763          	bne	s9,a4,185a2 <__multf3+0x3c0>
   18338:	4701                	li	a4,0
   1833a:	4501                	li	a0,0
   1833c:	a151                	j	187c0 <__multf3+0x5de>
   1833e:	4901                	li	s2,0
   18340:	4b01                	li	s6,0
   18342:	4c85                	li	s9,1
   18344:	b701                	j	18244 <__multf3+0x62>
   18346:	4901                	li	s2,0
   18348:	2b01                	sext.w	s6,s6
   1834a:	4c89                	li	s9,2
   1834c:	bde5                	j	18244 <__multf3+0x62>
   1834e:	008c67b3          	or	a5,s8,s0
   18352:	c7b5                	beqz	a5,183be <__multf3+0x1dc>
   18354:	c81d                	beqz	s0,1838a <__multf3+0x1a8>
   18356:	8522                	mv	a0,s0
   18358:	6a3000ef          	jal	191fa <__clzdi2>
   1835c:	2501                	sext.w	a0,a0
   1835e:	ff150793          	addi	a5,a0,-15
   18362:	03d00713          	li	a4,61
   18366:	0037861b          	addiw	a2,a5,3
   1836a:	40f707bb          	subw	a5,a4,a5
   1836e:	00c41433          	sll	s0,s0,a2
   18372:	00fc57b3          	srl	a5,s8,a5
   18376:	0087e6b3          	or	a3,a5,s0
   1837a:	00cc1433          	sll	s0,s8,a2
   1837e:	7771                	lui	a4,0xffffc
   18380:	0745                	addi	a4,a4,17 # ffffffffffffc011 <__BSS_END__+0xfffffffffffe0401>
   18382:	87a2                	mv	a5,s0
   18384:	8f09                	sub	a4,a4,a0
   18386:	8436                	mv	s0,a3
   18388:	bf8d                	j	182fa <__multf3+0x118>
   1838a:	8562                	mv	a0,s8
   1838c:	66f000ef          	jal	191fa <__clzdi2>
   18390:	0405051b          	addiw	a0,a0,64
   18394:	ff150793          	addi	a5,a0,-15
   18398:	03c00713          	li	a4,60
   1839c:	fcf753e3          	bge	a4,a5,18362 <__multf3+0x180>
   183a0:	fc37879b          	addiw	a5,a5,-61
   183a4:	00fc16b3          	sll	a3,s8,a5
   183a8:	bfd9                	j	1837e <__multf3+0x19c>
   183aa:	008c6633          	or	a2,s8,s0
   183ae:	ce01                	beqz	a2,183c6 <__multf3+0x1e4>
   183b0:	82c5                	srli	a3,a3,0x11
   183b2:	2701                	sext.w	a4,a4
   183b4:	488d                	li	a7,3
   183b6:	f486e3e3          	bltu	a3,s0,182fc <__multf3+0x11a>
   183ba:	44c1                	li	s1,16
   183bc:	b781                	j	182fc <__multf3+0x11a>
   183be:	4401                	li	s0,0
   183c0:	4701                	li	a4,0
   183c2:	4885                	li	a7,1
   183c4:	bf25                	j	182fc <__multf3+0x11a>
   183c6:	4401                	li	s0,0
   183c8:	4781                	li	a5,0
   183ca:	2701                	sext.w	a4,a4
   183cc:	4889                	li	a7,2
   183ce:	b73d                	j	182fc <__multf3+0x11a>
   183d0:	00d716b3          	sll	a3,a4,a3
   183d4:	5306f513          	andi	a0,a3,1328
   183d8:	e10d                	bnez	a0,183fa <__multf3+0x218>
   183da:	2406f313          	andi	t1,a3,576
   183de:	3e031a63          	bnez	t1,187d2 <__multf3+0x5f0>
   183e2:	0886f693          	andi	a3,a3,136
   183e6:	ce89                	beqz	a3,18400 <__multf3+0x21e>
   183e8:	8652                	mv	a2,s4
   183ea:	bf2d                	j	18324 <__multf3+0x142>
   183ec:	473d                	li	a4,15
   183ee:	3ee68863          	beq	a3,a4,187de <__multf3+0x5fc>
   183f2:	472d                	li	a4,11
   183f4:	8656                	mv	a2,s5
   183f6:	fee689e3          	beq	a3,a4,183e8 <__multf3+0x206>
   183fa:	844a                	mv	s0,s2
   183fc:	87de                	mv	a5,s7
   183fe:	b725                	j	18326 <__multf3+0x144>
   18400:	008786b3          	add	a3,a5,s0
   18404:	020bd513          	srli	a0,s7,0x20
   18408:	0207d893          	srli	a7,a5,0x20
   1840c:	01790733          	add	a4,s2,s7
   18410:	00f6bfb3          	sltu	t6,a3,a5
   18414:	1b82                	slli	s7,s7,0x20
   18416:	1782                	slli	a5,a5,0x20
   18418:	020bdb93          	srli	s7,s7,0x20
   1841c:	9381                	srli	a5,a5,0x20
   1841e:	03778eb3          	mul	t4,a5,s7
   18422:	01273f33          	sltu	t5,a4,s2
   18426:	02f507b3          	mul	a5,a0,a5
   1842a:	03150533          	mul	a0,a0,a7
   1842e:	037888b3          	mul	a7,a7,s7
   18432:	00f88333          	add	t1,a7,a5
   18436:	020ed893          	srli	a7,t4,0x20
   1843a:	989a                	add	a7,a7,t1
   1843c:	00f8f563          	bgeu	a7,a5,18446 <__multf3+0x264>
   18440:	4785                	li	a5,1
   18442:	1782                	slli	a5,a5,0x20
   18444:	953e                	add	a0,a0,a5
   18446:	0208de13          	srli	t3,a7,0x20
   1844a:	9e2a                	add	t3,t3,a0
   1844c:	1e82                	slli	t4,t4,0x20
   1844e:	02071313          	slli	t1,a4,0x20
   18452:	02069513          	slli	a0,a3,0x20
   18456:	02035313          	srli	t1,t1,0x20
   1845a:	020ede93          	srli	t4,t4,0x20
   1845e:	02075293          	srli	t0,a4,0x20
   18462:	0206d793          	srli	a5,a3,0x20
   18466:	9101                	srli	a0,a0,0x20
   18468:	1882                	slli	a7,a7,0x20
   1846a:	98f6                	add	a7,a7,t4
   1846c:	02650eb3          	mul	t4,a0,t1
   18470:	02a28533          	mul	a0,t0,a0
   18474:	02f282b3          	mul	t0,t0,a5
   18478:	026787b3          	mul	a5,a5,t1
   1847c:	020ed313          	srli	t1,t4,0x20
   18480:	97aa                	add	a5,a5,a0
   18482:	933e                	add	t1,t1,a5
   18484:	00a37563          	bgeu	t1,a0,1848e <__multf3+0x2ac>
   18488:	4785                	li	a5,1
   1848a:	1782                	slli	a5,a5,0x20
   1848c:	92be                	add	t0,t0,a5
   1848e:	02095393          	srli	t2,s2,0x20
   18492:	02045793          	srli	a5,s0,0x20
   18496:	1902                	slli	s2,s2,0x20
   18498:	1402                	slli	s0,s0,0x20
   1849a:	02095913          	srli	s2,s2,0x20
   1849e:	9001                	srli	s0,s0,0x20
   184a0:	03240a33          	mul	s4,s0,s2
   184a4:	1e82                	slli	t4,t4,0x20
   184a6:	020ede93          	srli	t4,t4,0x20
   184aa:	02035513          	srli	a0,t1,0x20
   184ae:	1302                	slli	t1,t1,0x20
   184b0:	9376                	add	t1,t1,t4
   184b2:	02838433          	mul	s0,t2,s0
   184b6:	02f383b3          	mul	t2,t2,a5
   184ba:	032787b3          	mul	a5,a5,s2
   184be:	00878eb3          	add	t4,a5,s0
   184c2:	020a5793          	srli	a5,s4,0x20
   184c6:	97f6                	add	a5,a5,t4
   184c8:	0087f563          	bgeu	a5,s0,184d2 <__multf3+0x2f0>
   184cc:	4e85                	li	t4,1
   184ce:	1e82                	slli	t4,t4,0x20
   184d0:	93f6                	add	t2,t2,t4
   184d2:	0207de93          	srli	t4,a5,0x20
   184d6:	9e9e                	add	t4,t4,t2
   184d8:	020a1393          	slli	t2,s4,0x20
   184dc:	0203d393          	srli	t2,t2,0x20
   184e0:	1782                	slli	a5,a5,0x20
   184e2:	979e                	add	a5,a5,t2
   184e4:	41f003b3          	neg	t2,t6
   184e8:	00777733          	and	a4,a4,t2
   184ec:	41e003b3          	neg	t2,t5
   184f0:	0076f6b3          	and	a3,a3,t2
   184f4:	01c303b3          	add	t2,t1,t3
   184f8:	0063b333          	sltu	t1,t2,t1
   184fc:	951a                	add	a0,a0,t1
   184fe:	9516                	add	a0,a0,t0
   18500:	01ff7f33          	and	t5,t5,t6
   18504:	00653333          	sltu	t1,a0,t1
   18508:	972a                	add	a4,a4,a0
   1850a:	937a                	add	t1,t1,t5
   1850c:	00a73533          	sltu	a0,a4,a0
   18510:	9736                	add	a4,a4,a3
   18512:	951a                	add	a0,a0,t1
   18514:	00d736b3          	sltu	a3,a4,a3
   18518:	41c70fb3          	sub	t6,a4,t3
   1851c:	96aa                	add	a3,a3,a0
   1851e:	40ee0e33          	sub	t3,t3,a4
   18522:	41138533          	sub	a0,t2,a7
   18526:	00a3b333          	sltu	t1,t2,a0
   1852a:	001e3e13          	seqz	t3,t3
   1852e:	406f8f33          	sub	t5,t6,t1
   18532:	01f73733          	sltu	a4,a4,t6
   18536:	01c37333          	and	t1,t1,t3
   1853a:	00676733          	or	a4,a4,t1
   1853e:	40f50333          	sub	t1,a0,a5
   18542:	00653533          	sltu	a0,a0,t1
   18546:	41df0fb3          	sub	t6,t5,t4
   1854a:	40a78e33          	sub	t3,a5,a0
   1854e:	9e7e                	add	t3,t3,t6
   18550:	8e99                	sub	a3,a3,a4
   18552:	00fe3733          	sltu	a4,t3,a5
   18556:	001fb793          	seqz	a5,t6
   1855a:	96f6                	add	a3,a3,t4
   1855c:	8d7d                	and	a0,a0,a5
   1855e:	01ff37b3          	sltu	a5,t5,t6
   18562:	9736                	add	a4,a4,a3
   18564:	8fc9                	or	a5,a5,a0
   18566:	8f1d                	sub	a4,a4,a5
   18568:	00d31793          	slli	a5,t1,0xd
   1856c:	0117e7b3          	or	a5,a5,a7
   18570:	00f037b3          	snez	a5,a5
   18574:	03335313          	srli	t1,t1,0x33
   18578:	0736                	slli	a4,a4,0xd
   1857a:	00de1693          	slli	a3,t3,0xd
   1857e:	0067e7b3          	or	a5,a5,t1
   18582:	033e5413          	srli	s0,t3,0x33
   18586:	8fd5                	or	a5,a5,a3
   18588:	00b71693          	slli	a3,a4,0xb
   1858c:	8c59                	or	s0,s0,a4
   1858e:	0406d963          	bgez	a3,185e0 <__multf3+0x3fe>
   18592:	0017d713          	srli	a4,a5,0x1
   18596:	8b85                	andi	a5,a5,1
   18598:	8f5d                	or	a4,a4,a5
   1859a:	03f41793          	slli	a5,s0,0x3f
   1859e:	8fd9                	or	a5,a5,a4
   185a0:	8005                	srli	s0,s0,0x1
   185a2:	6691                	lui	a3,0x4
   185a4:	16fd                	addi	a3,a3,-1 # 3fff <exit-0xc121>
   185a6:	96ae                	add	a3,a3,a1
   185a8:	0cd05663          	blez	a3,18674 <__multf3+0x492>
   185ac:	0077f713          	andi	a4,a5,7
   185b0:	cf1d                	beqz	a4,185ee <__multf3+0x40c>
   185b2:	0014e493          	ori	s1,s1,1
   185b6:	4709                	li	a4,2
   185b8:	2481                	sext.w	s1,s1
   185ba:	02e98963          	beq	s3,a4,185ec <__multf3+0x40a>
   185be:	470d                	li	a4,3
   185c0:	02e98263          	beq	s3,a4,185e4 <__multf3+0x402>
   185c4:	02099563          	bnez	s3,185ee <__multf3+0x40c>
   185c8:	00f7f713          	andi	a4,a5,15
   185cc:	4511                	li	a0,4
   185ce:	02a70063          	beq	a4,a0,185ee <__multf3+0x40c>
   185d2:	00a78733          	add	a4,a5,a0
   185d6:	00f73533          	sltu	a0,a4,a5
   185da:	942a                	add	s0,s0,a0
   185dc:	87ba                	mv	a5,a4
   185de:	a801                	j	185ee <__multf3+0x40c>
   185e0:	85c2                	mv	a1,a6
   185e2:	b7c1                	j	185a2 <__multf3+0x3c0>
   185e4:	e609                	bnez	a2,185ee <__multf3+0x40c>
   185e6:	00878713          	addi	a4,a5,8
   185ea:	b7f5                	j	185d6 <__multf3+0x3f4>
   185ec:	fe6d                	bnez	a2,185e6 <__multf3+0x404>
   185ee:	00b41713          	slli	a4,s0,0xb
   185f2:	00075863          	bgez	a4,18602 <__multf3+0x420>
   185f6:	577d                	li	a4,-1
   185f8:	1752                	slli	a4,a4,0x34
   185fa:	177d                	addi	a4,a4,-1
   185fc:	6691                	lui	a3,0x4
   185fe:	8c79                	and	s0,s0,a4
   18600:	96ae                	add	a3,a3,a1
   18602:	65a1                	lui	a1,0x8
   18604:	ffe58713          	addi	a4,a1,-2 # 7ffe <exit-0x8122>
   18608:	04d74063          	blt	a4,a3,18648 <__multf3+0x466>
   1860c:	838d                	srli	a5,a5,0x3
   1860e:	03d41513          	slli	a0,s0,0x3d
   18612:	8d5d                	or	a0,a0,a5
   18614:	00345713          	srli	a4,s0,0x3
   18618:	00f6161b          	slliw	a2,a2,0xf
   1861c:	01071593          	slli	a1,a4,0x10
   18620:	8e55                	or	a2,a2,a3
   18622:	1642                	slli	a2,a2,0x30
   18624:	81c1                	srli	a1,a1,0x10
   18626:	8dd1                	or	a1,a1,a2
   18628:	c099                	beqz	s1,1862e <__multf3+0x44c>
   1862a:	0014a073          	csrs	fflags,s1
   1862e:	60e6                	ld	ra,88(sp)
   18630:	6446                	ld	s0,80(sp)
   18632:	64a6                	ld	s1,72(sp)
   18634:	6906                	ld	s2,64(sp)
   18636:	79e2                	ld	s3,56(sp)
   18638:	7a42                	ld	s4,48(sp)
   1863a:	7aa2                	ld	s5,40(sp)
   1863c:	7b02                	ld	s6,32(sp)
   1863e:	6be2                	ld	s7,24(sp)
   18640:	6c42                	ld	s8,16(sp)
   18642:	6ca2                	ld	s9,8(sp)
   18644:	6125                	addi	sp,sp,96
   18646:	8082                	ret
   18648:	4789                	li	a5,2
   1864a:	02f98363          	beq	s3,a5,18670 <__multf3+0x48e>
   1864e:	478d                	li	a5,3
   18650:	00f98863          	beq	s3,a5,18660 <__multf3+0x47e>
   18654:	00099763          	bnez	s3,18662 <__multf3+0x480>
   18658:	4501                	li	a0,0
   1865a:	fff58693          	addi	a3,a1,-1
   1865e:	a021                	j	18666 <__multf3+0x484>
   18660:	de65                	beqz	a2,18658 <__multf3+0x476>
   18662:	557d                	li	a0,-1
   18664:	86ba                	mv	a3,a4
   18666:	0054e493          	ori	s1,s1,5
   1866a:	2481                	sext.w	s1,s1
   1866c:	872a                	mv	a4,a0
   1866e:	b76d                	j	18618 <__multf3+0x436>
   18670:	f665                	bnez	a2,18658 <__multf3+0x476>
   18672:	bfc5                	j	18662 <__multf3+0x480>
   18674:	e2cd                	bnez	a3,18716 <__multf3+0x534>
   18676:	0077f693          	andi	a3,a5,7
   1867a:	8722                	mv	a4,s0
   1867c:	ce85                	beqz	a3,186b4 <__multf3+0x4d2>
   1867e:	0014e493          	ori	s1,s1,1
   18682:	4689                	li	a3,2
   18684:	2481                	sext.w	s1,s1
   18686:	02d98663          	beq	s3,a3,186b2 <__multf3+0x4d0>
   1868a:	468d                	li	a3,3
   1868c:	00d98f63          	beq	s3,a3,186aa <__multf3+0x4c8>
   18690:	02099263          	bnez	s3,186b4 <__multf3+0x4d2>
   18694:	00f7f693          	andi	a3,a5,15
   18698:	4591                	li	a1,4
   1869a:	00b68d63          	beq	a3,a1,186b4 <__multf3+0x4d2>
   1869e:	ffc7b713          	sltiu	a4,a5,-4
   186a2:	00173713          	seqz	a4,a4
   186a6:	9722                	add	a4,a4,s0
   186a8:	a031                	j	186b4 <__multf3+0x4d2>
   186aa:	e609                	bnez	a2,186b4 <__multf3+0x4d2>
   186ac:	ff87b713          	sltiu	a4,a5,-8
   186b0:	bfcd                	j	186a2 <__multf3+0x4c0>
   186b2:	fe6d                	bnez	a2,186ac <__multf3+0x4ca>
   186b4:	03475593          	srli	a1,a4,0x34
   186b8:	8985                	andi	a1,a1,1
   186ba:	0015c593          	xori	a1,a1,1
   186be:	4705                	li	a4,1
   186c0:	04000513          	li	a0,64
   186c4:	9d19                	subw	a0,a0,a4
   186c6:	00e7d833          	srl	a6,a5,a4
   186ca:	00a416b3          	sll	a3,s0,a0
   186ce:	00a79533          	sll	a0,a5,a0
   186d2:	0106e6b3          	or	a3,a3,a6
   186d6:	00a03533          	snez	a0,a0
   186da:	00a6e7b3          	or	a5,a3,a0
   186de:	00e45733          	srl	a4,s0,a4
   186e2:	0077f693          	andi	a3,a5,7
   186e6:	ceb5                	beqz	a3,18762 <__multf3+0x580>
   186e8:	0014e493          	ori	s1,s1,1
   186ec:	4689                	li	a3,2
   186ee:	2481                	sext.w	s1,s1
   186f0:	06d98863          	beq	s3,a3,18760 <__multf3+0x57e>
   186f4:	468d                	li	a3,3
   186f6:	06d98163          	beq	s3,a3,18758 <__multf3+0x576>
   186fa:	06099463          	bnez	s3,18762 <__multf3+0x580>
   186fe:	00f7f693          	andi	a3,a5,15
   18702:	4511                	li	a0,4
   18704:	04a68f63          	beq	a3,a0,18762 <__multf3+0x580>
   18708:	00a786b3          	add	a3,a5,a0
   1870c:	00f6b533          	sltu	a0,a3,a5
   18710:	972a                	add	a4,a4,a0
   18712:	87b6                	mv	a5,a3
   18714:	a0b9                	j	18762 <__multf3+0x580>
   18716:	f8d00713          	li	a4,-115
   1871a:	06e6cf63          	blt	a3,a4,18798 <__multf3+0x5b6>
   1871e:	4585                	li	a1,1
   18720:	fc200513          	li	a0,-62
   18724:	40d58733          	sub	a4,a1,a3
   18728:	f8a6dce3          	bge	a3,a0,186c0 <__multf3+0x4de>
   1872c:	fc07059b          	addiw	a1,a4,-64
   18730:	fc100813          	li	a6,-63
   18734:	00b455b3          	srl	a1,s0,a1
   18738:	4501                	li	a0,0
   1873a:	01068763          	beq	a3,a6,18748 <__multf3+0x566>
   1873e:	08000513          	li	a0,128
   18742:	9d19                	subw	a0,a0,a4
   18744:	00a41533          	sll	a0,s0,a0
   18748:	8d5d                	or	a0,a0,a5
   1874a:	00a03533          	snez	a0,a0
   1874e:	00a5e7b3          	or	a5,a1,a0
   18752:	4701                	li	a4,0
   18754:	4585                	li	a1,1
   18756:	b771                	j	186e2 <__multf3+0x500>
   18758:	e609                	bnez	a2,18762 <__multf3+0x580>
   1875a:	00878693          	addi	a3,a5,8
   1875e:	b77d                	j	1870c <__multf3+0x52a>
   18760:	fe6d                	bnez	a2,1875a <__multf3+0x578>
   18762:	00c71693          	slli	a3,a4,0xc
   18766:	0206d263          	bgez	a3,1878a <__multf3+0x5a8>
   1876a:	0014e493          	ori	s1,s1,1
   1876e:	2481                	sext.w	s1,s1
   18770:	4701                	li	a4,0
   18772:	4501                	li	a0,0
   18774:	4685                	li	a3,1
   18776:	ea0581e3          	beqz	a1,18618 <__multf3+0x436>
   1877a:	0014f793          	andi	a5,s1,1
   1877e:	0017979b          	slliw	a5,a5,0x1
   18782:	8fc5                	or	a5,a5,s1
   18784:	0007849b          	sext.w	s1,a5
   18788:	bd41                	j	18618 <__multf3+0x436>
   1878a:	03d71513          	slli	a0,a4,0x3d
   1878e:	838d                	srli	a5,a5,0x3
   18790:	8d5d                	or	a0,a0,a5
   18792:	830d                	srli	a4,a4,0x3
   18794:	4681                	li	a3,0
   18796:	b7c5                	j	18776 <__multf3+0x594>
   18798:	00f46533          	or	a0,s0,a5
   1879c:	cd11                	beqz	a0,187b8 <__multf3+0x5d6>
   1879e:	4789                	li	a5,2
   187a0:	0014e493          	ori	s1,s1,1
   187a4:	02f98463          	beq	s3,a5,187cc <__multf3+0x5ea>
   187a8:	478d                	li	a5,3
   187aa:	00f98d63          	beq	s3,a5,187c4 <__multf3+0x5e2>
   187ae:	4505                	li	a0,1
   187b0:	00099363          	bnez	s3,187b6 <__multf3+0x5d4>
   187b4:	4515                	li	a0,5
   187b6:	810d                	srli	a0,a0,0x3
   187b8:	0024e493          	ori	s1,s1,2
   187bc:	2481                	sext.w	s1,s1
   187be:	4701                	li	a4,0
   187c0:	4681                	li	a3,0
   187c2:	bd99                	j	18618 <__multf3+0x436>
   187c4:	4525                	li	a0,9
   187c6:	da65                	beqz	a2,187b6 <__multf3+0x5d4>
   187c8:	4505                	li	a0,1
   187ca:	b7f5                	j	187b6 <__multf3+0x5d4>
   187cc:	4525                	li	a0,9
   187ce:	f665                	bnez	a2,187b6 <__multf3+0x5d4>
   187d0:	bfe5                	j	187c8 <__multf3+0x5e6>
   187d2:	66a1                	lui	a3,0x8
   187d4:	173e                	slli	a4,a4,0x2f
   187d6:	16fd                	addi	a3,a3,-1 # 7fff <exit-0x8121>
   187d8:	4601                	li	a2,0
   187da:	44c1                	li	s1,16
   187dc:	bd35                	j	18618 <__multf3+0x436>
   187de:	4705                	li	a4,1
   187e0:	66a1                	lui	a3,0x8
   187e2:	173e                	slli	a4,a4,0x2f
   187e4:	4501                	li	a0,0
   187e6:	16fd                	addi	a3,a3,-1 # 7fff <exit-0x8121>
   187e8:	4601                	li	a2,0
   187ea:	b53d                	j	18618 <__multf3+0x436>
   187ec:	66a1                	lui	a3,0x8
   187ee:	4701                	li	a4,0
   187f0:	4501                	li	a0,0
   187f2:	16fd                	addi	a3,a3,-1 # 7fff <exit-0x8121>
   187f4:	b515                	j	18618 <__multf3+0x436>

00000000000187f6 <__subtf3>:
   187f6:	7179                	addi	sp,sp,-48
   187f8:	f406                	sd	ra,40(sp)
   187fa:	f022                	sd	s0,32(sp)
   187fc:	ec26                	sd	s1,24(sp)
   187fe:	e84a                	sd	s2,16(sp)
   18800:	e44e                	sd	s3,8(sp)
   18802:	e052                	sd	s4,0(sp)
   18804:	002029f3          	frrm	s3
   18808:	577d                	li	a4,-1
   1880a:	8341                	srli	a4,a4,0x10
   1880c:	0305d813          	srli	a6,a1,0x30
   18810:	03f5d913          	srli	s2,a1,0x3f
   18814:	8df9                	and	a1,a1,a4
   18816:	058e                	slli	a1,a1,0x3
   18818:	03d55313          	srli	t1,a0,0x3d
   1881c:	67a1                	lui	a5,0x8
   1881e:	17fd                	addi	a5,a5,-1 # 7fff <exit-0x8121>
   18820:	0306de93          	srli	t4,a3,0x30
   18824:	00b36333          	or	t1,t1,a1
   18828:	03f6d593          	srli	a1,a3,0x3f
   1882c:	8ef9                	and	a3,a3,a4
   1882e:	03d65e13          	srli	t3,a2,0x3d
   18832:	00f87833          	and	a6,a6,a5
   18836:	068e                	slli	a3,a3,0x3
   18838:	00fefeb3          	and	t4,t4,a5
   1883c:	2981                	sext.w	s3,s3
   1883e:	84c2                	mv	s1,a6
   18840:	050e                	slli	a0,a0,0x3
   18842:	00de6e33          	or	t3,t3,a3
   18846:	060e                	slli	a2,a2,0x3
   18848:	00fe9563          	bne	t4,a5,18852 <__subtf3+0x5c>
   1884c:	00ce67b3          	or	a5,t3,a2
   18850:	e399                	bnez	a5,18856 <__subtf3+0x60>
   18852:	0015c593          	xori	a1,a1,1
   18856:	68a1                	lui	a7,0x8
   18858:	41d807bb          	subw	a5,a6,t4
   1885c:	18fd                	addi	a7,a7,-1 # 7fff <exit-0x8121>
   1885e:	33259963          	bne	a1,s2,18b90 <__subtf3+0x39a>
   18862:	0ef05a63          	blez	a5,18956 <__subtf3+0x160>
   18866:	060e9a63          	bnez	t4,188da <__subtf3+0xe4>
   1886a:	00ce6733          	or	a4,t3,a2
   1886e:	e711                	bnez	a4,1887a <__subtf3+0x84>
   18870:	862a                	mv	a2,a0
   18872:	05180763          	beq	a6,a7,188c0 <__subtf3+0xca>
   18876:	4781                	li	a5,0
   18878:	a2dd                	j	18a5e <__subtf3+0x268>
   1887a:	37fd                	addiw	a5,a5,-1
   1887c:	e3a1                	bnez	a5,188bc <__subtf3+0xc6>
   1887e:	962a                	add	a2,a2,a0
   18880:	9e1a                	add	t3,t3,t1
   18882:	00a63533          	sltu	a0,a2,a0
   18886:	00ae0333          	add	t1,t3,a0
   1888a:	00c31793          	slli	a5,t1,0xc
   1888e:	0207d563          	bgez	a5,188b8 <__subtf3+0xc2>
   18892:	67a1                	lui	a5,0x8
   18894:	0485                	addi	s1,s1,1
   18896:	17fd                	addi	a5,a5,-1 # 7fff <exit-0x8121>
   18898:	2cf48863          	beq	s1,a5,18b68 <__subtf3+0x372>
   1889c:	57fd                	li	a5,-1
   1889e:	17ce                	slli	a5,a5,0x33
   188a0:	17fd                	addi	a5,a5,-1
   188a2:	00f377b3          	and	a5,t1,a5
   188a6:	00165713          	srli	a4,a2,0x1
   188aa:	8a05                	andi	a2,a2,1
   188ac:	8f51                	or	a4,a4,a2
   188ae:	03f79613          	slli	a2,a5,0x3f
   188b2:	8e59                	or	a2,a2,a4
   188b4:	0017d313          	srli	t1,a5,0x1
   188b8:	4781                	li	a5,0
   188ba:	aca1                	j	18b12 <__subtf3+0x31c>
   188bc:	03181563          	bne	a6,a7,188e6 <__subtf3+0xf0>
   188c0:	00a36633          	or	a2,t1,a0
   188c4:	70060063          	beqz	a2,18fc4 <__subtf3+0x7ce>
   188c8:	03235793          	srli	a5,t1,0x32
   188cc:	8b85                	andi	a5,a5,1
   188ce:	0017c793          	xori	a5,a5,1
   188d2:	0047979b          	slliw	a5,a5,0x4
   188d6:	862a                	mv	a2,a0
   188d8:	a259                	j	18a5e <__subtf3+0x268>
   188da:	ff1803e3          	beq	a6,a7,188c0 <__subtf3+0xca>
   188de:	4705                	li	a4,1
   188e0:	174e                	slli	a4,a4,0x33
   188e2:	00ee6e33          	or	t3,t3,a4
   188e6:	07400713          	li	a4,116
   188ea:	06f74163          	blt	a4,a5,1894c <__subtf3+0x156>
   188ee:	03f00713          	li	a4,63
   188f2:	02f74963          	blt	a4,a5,18924 <__subtf3+0x12e>
   188f6:	04000693          	li	a3,64
   188fa:	9e9d                	subw	a3,a3,a5
   188fc:	00de1733          	sll	a4,t3,a3
   18900:	00f655b3          	srl	a1,a2,a5
   18904:	00d616b3          	sll	a3,a2,a3
   18908:	8f4d                	or	a4,a4,a1
   1890a:	00d036b3          	snez	a3,a3
   1890e:	8f55                	or	a4,a4,a3
   18910:	00fe57b3          	srl	a5,t3,a5
   18914:	00a70633          	add	a2,a4,a0
   18918:	979a                	add	a5,a5,t1
   1891a:	00e63733          	sltu	a4,a2,a4
   1891e:	00e78333          	add	t1,a5,a4
   18922:	b7a5                	j	1888a <__subtf3+0x94>
   18924:	fc07871b          	addiw	a4,a5,-64
   18928:	04000593          	li	a1,64
   1892c:	00ee5733          	srl	a4,t3,a4
   18930:	4681                	li	a3,0
   18932:	00b78763          	beq	a5,a1,18940 <__subtf3+0x14a>
   18936:	08000693          	li	a3,128
   1893a:	9e9d                	subw	a3,a3,a5
   1893c:	00de16b3          	sll	a3,t3,a3
   18940:	8ed1                	or	a3,a3,a2
   18942:	00d036b3          	snez	a3,a3
   18946:	8f55                	or	a4,a4,a3
   18948:	4781                	li	a5,0
   1894a:	b7e9                	j	18914 <__subtf3+0x11e>
   1894c:	00ce6733          	or	a4,t3,a2
   18950:	00e03733          	snez	a4,a4
   18954:	bfd5                	j	18948 <__subtf3+0x152>
   18956:	c7e1                	beqz	a5,18a1e <__subtf3+0x228>
   18958:	08081163          	bnez	a6,189da <__subtf3+0x1e4>
   1895c:	00a36733          	or	a4,t1,a0
   18960:	e30d                	bnez	a4,18982 <__subtf3+0x18c>
   18962:	671e9363          	bne	t4,a7,18fc8 <__subtf3+0x7d2>
   18966:	00ce6333          	or	t1,t3,a2
   1896a:	66030363          	beqz	t1,18fd0 <__subtf3+0x7da>
   1896e:	032e5793          	srli	a5,t3,0x32
   18972:	8b85                	andi	a5,a5,1
   18974:	0017c793          	xori	a5,a5,1
   18978:	0047979b          	slliw	a5,a5,0x4
   1897c:	8372                	mv	t1,t3
   1897e:	84f6                	mv	s1,t4
   18980:	a8f9                	j	18a5e <__subtf3+0x268>
   18982:	fff7c793          	not	a5,a5
   18986:	2781                	sext.w	a5,a5
   18988:	eb89                	bnez	a5,1899a <__subtf3+0x1a4>
   1898a:	962a                	add	a2,a2,a0
   1898c:	9e1a                	add	t3,t3,t1
   1898e:	00a63533          	sltu	a0,a2,a0
   18992:	00ae0333          	add	t1,t3,a0
   18996:	84f6                	mv	s1,t4
   18998:	bdcd                	j	1888a <__subtf3+0x94>
   1899a:	fd1e86e3          	beq	t4,a7,18966 <__subtf3+0x170>
   1899e:	07400713          	li	a4,116
   189a2:	06f74963          	blt	a4,a5,18a14 <__subtf3+0x21e>
   189a6:	03f00713          	li	a4,63
   189aa:	04f74163          	blt	a4,a5,189ec <__subtf3+0x1f6>
   189ae:	04000693          	li	a3,64
   189b2:	9e9d                	subw	a3,a3,a5
   189b4:	00d31733          	sll	a4,t1,a3
   189b8:	00f555b3          	srl	a1,a0,a5
   189bc:	00d516b3          	sll	a3,a0,a3
   189c0:	8f4d                	or	a4,a4,a1
   189c2:	00d036b3          	snez	a3,a3
   189c6:	8f55                	or	a4,a4,a3
   189c8:	00f357b3          	srl	a5,t1,a5
   189cc:	963a                	add	a2,a2,a4
   189ce:	97f2                	add	a5,a5,t3
   189d0:	00e63733          	sltu	a4,a2,a4
   189d4:	00e78333          	add	t1,a5,a4
   189d8:	bf7d                	j	18996 <__subtf3+0x1a0>
   189da:	f91e86e3          	beq	t4,a7,18966 <__subtf3+0x170>
   189de:	4705                	li	a4,1
   189e0:	174e                	slli	a4,a4,0x33
   189e2:	40f007bb          	negw	a5,a5
   189e6:	00e36333          	or	t1,t1,a4
   189ea:	bf55                	j	1899e <__subtf3+0x1a8>
   189ec:	fc07871b          	addiw	a4,a5,-64
   189f0:	04000593          	li	a1,64
   189f4:	00e35733          	srl	a4,t1,a4
   189f8:	4681                	li	a3,0
   189fa:	00b78763          	beq	a5,a1,18a08 <__subtf3+0x212>
   189fe:	08000693          	li	a3,128
   18a02:	9e9d                	subw	a3,a3,a5
   18a04:	00d316b3          	sll	a3,t1,a3
   18a08:	8ec9                	or	a3,a3,a0
   18a0a:	00d036b3          	snez	a3,a3
   18a0e:	8f55                	or	a4,a4,a3
   18a10:	4781                	li	a5,0
   18a12:	bf6d                	j	189cc <__subtf3+0x1d6>
   18a14:	00a36733          	or	a4,t1,a0
   18a18:	00e03733          	snez	a4,a4
   18a1c:	bfd5                	j	18a10 <__subtf3+0x21a>
   18a1e:	00180713          	addi	a4,a6,1
   18a22:	03171693          	slli	a3,a4,0x31
   18a26:	92c9                	srli	a3,a3,0x32
   18a28:	e6f9                	bnez	a3,18af6 <__subtf3+0x300>
   18a2a:	00a36733          	or	a4,t1,a0
   18a2e:	08081363          	bnez	a6,18ab4 <__subtf3+0x2be>
   18a32:	4e070663          	beqz	a4,18f1e <__subtf3+0x728>
   18a36:	00ce6733          	or	a4,t3,a2
   18a3a:	4e070663          	beqz	a4,18f26 <__subtf3+0x730>
   18a3e:	962a                	add	a2,a2,a0
   18a40:	9e1a                	add	t3,t3,t1
   18a42:	00a63533          	sltu	a0,a2,a0
   18a46:	00ae0333          	add	t1,t3,a0
   18a4a:	00c31713          	slli	a4,t1,0xc
   18a4e:	40075863          	bgez	a4,18e5e <__subtf3+0x668>
   18a52:	577d                	li	a4,-1
   18a54:	174e                	slli	a4,a4,0x33
   18a56:	177d                	addi	a4,a4,-1
   18a58:	00e37333          	and	t1,t1,a4
   18a5c:	4485                	li	s1,1
   18a5e:	6721                	lui	a4,0x8
   18a60:	03d31513          	slli	a0,t1,0x3d
   18a64:	820d                	srli	a2,a2,0x3
   18a66:	177d                	addi	a4,a4,-1 # 7fff <exit-0x8121>
   18a68:	8d51                	or	a0,a0,a2
   18a6a:	00335313          	srli	t1,t1,0x3
   18a6e:	00e49a63          	bne	s1,a4,18a82 <__subtf3+0x28c>
   18a72:	00656533          	or	a0,a0,t1
   18a76:	4301                	li	t1,0
   18a78:	c509                	beqz	a0,18a82 <__subtf3+0x28c>
   18a7a:	4305                	li	t1,1
   18a7c:	133e                	slli	t1,t1,0x2f
   18a7e:	4501                	li	a0,0
   18a80:	4901                	li	s2,0
   18a82:	03149713          	slli	a4,s1,0x31
   18a86:	00197913          	andi	s2,s2,1
   18a8a:	9345                	srli	a4,a4,0x31
   18a8c:	093e                	slli	s2,s2,0xf
   18a8e:	01031593          	slli	a1,t1,0x10
   18a92:	00e96933          	or	s2,s2,a4
   18a96:	1942                	slli	s2,s2,0x30
   18a98:	81c1                	srli	a1,a1,0x10
   18a9a:	0125e5b3          	or	a1,a1,s2
   18a9e:	c399                	beqz	a5,18aa4 <__subtf3+0x2ae>
   18aa0:	0017a073          	csrs	fflags,a5
   18aa4:	70a2                	ld	ra,40(sp)
   18aa6:	7402                	ld	s0,32(sp)
   18aa8:	64e2                	ld	s1,24(sp)
   18aaa:	6942                	ld	s2,16(sp)
   18aac:	69a2                	ld	s3,8(sp)
   18aae:	6a02                	ld	s4,0(sp)
   18ab0:	6145                	addi	sp,sp,48
   18ab2:	8082                	ret
   18ab4:	03181563          	bne	a6,a7,18ade <__subtf3+0x2e8>
   18ab8:	c31d                	beqz	a4,18ade <__subtf3+0x2e8>
   18aba:	03235793          	srli	a5,t1,0x32
   18abe:	8b85                	andi	a5,a5,1
   18ac0:	0017c793          	xori	a5,a5,1
   18ac4:	0047979b          	slliw	a5,a5,0x4
   18ac8:	030e9163          	bne	t4,a6,18aea <__subtf3+0x2f4>
   18acc:	00ce66b3          	or	a3,t3,a2
   18ad0:	ca99                	beqz	a3,18ae6 <__subtf3+0x2f0>
   18ad2:	00de1693          	slli	a3,t3,0xd
   18ad6:	0006c863          	bltz	a3,18ae6 <__subtf3+0x2f0>
   18ada:	47c1                	li	a5,16
   18adc:	a029                	j	18ae6 <__subtf3+0x2f0>
   18ade:	66a1                	lui	a3,0x8
   18ae0:	16fd                	addi	a3,a3,-1 # 7fff <exit-0x8121>
   18ae2:	fede85e3          	beq	t4,a3,18acc <__subtf3+0x2d6>
   18ae6:	2e070263          	beqz	a4,18dca <__subtf3+0x5d4>
   18aea:	00ce6e33          	or	t3,t3,a2
   18aee:	2e0e1563          	bnez	t3,18dd8 <__subtf3+0x5e2>
   18af2:	862a                	mv	a2,a0
   18af4:	ace1                	j	18dcc <__subtf3+0x5d6>
   18af6:	03170063          	beq	a4,a7,18b16 <__subtf3+0x320>
   18afa:	962a                	add	a2,a2,a0
   18afc:	9e1a                	add	t3,t3,t1
   18afe:	00a63533          	sltu	a0,a2,a0
   18b02:	9e2a                	add	t3,t3,a0
   18b04:	03fe1693          	slli	a3,t3,0x3f
   18b08:	8205                	srli	a2,a2,0x1
   18b0a:	8e55                	or	a2,a2,a3
   18b0c:	001e5313          	srli	t1,t3,0x1
   18b10:	84ba                	mv	s1,a4
   18b12:	4701                	li	a4,0
   18b14:	ae49                	j	18ea6 <__subtf3+0x6b0>
   18b16:	4a098563          	beqz	s3,18fc0 <__subtf3+0x7ca>
   18b1a:	468d                	li	a3,3
   18b1c:	02d99a63          	bne	s3,a3,18b50 <__subtf3+0x35a>
   18b20:	4a090063          	beqz	s2,18fc0 <__subtf3+0x7ca>
   18b24:	64a1                	lui	s1,0x8
   18b26:	14f9                	addi	s1,s1,-2 # 7ffe <exit-0x8122>
   18b28:	567d                	li	a2,-1
   18b2a:	8332                	mv	t1,a2
   18b2c:	4715                	li	a4,5
   18b2e:	468d                	li	a3,3
   18b30:	40d98d63          	beq	s3,a3,18f4a <__subtf3+0x754>
   18b34:	42099363          	bnez	s3,18f5a <__subtf3+0x764>
   18b38:	00f67693          	andi	a3,a2,15
   18b3c:	4591                	li	a1,4
   18b3e:	40b68e63          	beq	a3,a1,18f5a <__subtf3+0x764>
   18b42:	00b606b3          	add	a3,a2,a1
   18b46:	00c6b5b3          	sltu	a1,a3,a2
   18b4a:	932e                	add	t1,t1,a1
   18b4c:	8636                	mv	a2,a3
   18b4e:	a131                	j	18f5a <__subtf3+0x764>
   18b50:	4789                	li	a5,2
   18b52:	42f99a63          	bne	s3,a5,18f86 <__subtf3+0x790>
   18b56:	46091563          	bnez	s2,18fc0 <__subtf3+0x7ca>
   18b5a:	64a1                	lui	s1,0x8
   18b5c:	567d                	li	a2,-1
   18b5e:	14f9                	addi	s1,s1,-2 # 7ffe <exit-0x8122>
   18b60:	8332                	mv	t1,a2
   18b62:	4715                	li	a4,5
   18b64:	87ba                	mv	a5,a4
   18b66:	a109                	j	18f68 <__subtf3+0x772>
   18b68:	02098063          	beqz	s3,18b88 <__subtf3+0x392>
   18b6c:	478d                	li	a5,3
   18b6e:	00f99863          	bne	s3,a5,18b7e <__subtf3+0x388>
   18b72:	00090b63          	beqz	s2,18b88 <__subtf3+0x392>
   18b76:	64a1                	lui	s1,0x8
   18b78:	14f9                	addi	s1,s1,-2 # 7ffe <exit-0x8122>
   18b7a:	4781                	li	a5,0
   18b7c:	b775                	j	18b28 <__subtf3+0x332>
   18b7e:	4789                	li	a5,2
   18b80:	40f99363          	bne	s3,a5,18f86 <__subtf3+0x790>
   18b84:	fc090be3          	beqz	s2,18b5a <__subtf3+0x364>
   18b88:	4301                	li	t1,0
   18b8a:	4601                	li	a2,0
   18b8c:	4795                	li	a5,5
   18b8e:	bdc1                	j	18a5e <__subtf3+0x268>
   18b90:	0af05d63          	blez	a5,18c4a <__subtf3+0x454>
   18b94:	060e9b63          	bnez	t4,18c0a <__subtf3+0x414>
   18b98:	00ce6733          	or	a4,t3,a2
   18b9c:	cc070ae3          	beqz	a4,18870 <__subtf3+0x7a>
   18ba0:	37fd                	addiw	a5,a5,-1
   18ba2:	e395                	bnez	a5,18bc6 <__subtf3+0x3d0>
   18ba4:	40c50633          	sub	a2,a0,a2
   18ba8:	41c30e33          	sub	t3,t1,t3
   18bac:	00c53533          	sltu	a0,a0,a2
   18bb0:	40ae0333          	sub	t1,t3,a0
   18bb4:	00c31793          	slli	a5,t1,0xc
   18bb8:	d007d0e3          	bgez	a5,188b8 <__subtf3+0xc2>
   18bbc:	00d31413          	slli	s0,t1,0xd
   18bc0:	8035                	srli	s0,s0,0xd
   18bc2:	8a32                	mv	s4,a2
   18bc4:	a499                	j	18e0a <__subtf3+0x614>
   18bc6:	cf180de3          	beq	a6,a7,188c0 <__subtf3+0xca>
   18bca:	07400713          	li	a4,116
   18bce:	06f74963          	blt	a4,a5,18c40 <__subtf3+0x44a>
   18bd2:	03f00713          	li	a4,63
   18bd6:	04f74163          	blt	a4,a5,18c18 <__subtf3+0x422>
   18bda:	04000693          	li	a3,64
   18bde:	9e9d                	subw	a3,a3,a5
   18be0:	00de1733          	sll	a4,t3,a3
   18be4:	00f655b3          	srl	a1,a2,a5
   18be8:	00d616b3          	sll	a3,a2,a3
   18bec:	8f4d                	or	a4,a4,a1
   18bee:	00d036b3          	snez	a3,a3
   18bf2:	8f55                	or	a4,a4,a3
   18bf4:	00fe57b3          	srl	a5,t3,a5
   18bf8:	40e50633          	sub	a2,a0,a4
   18bfc:	40f307b3          	sub	a5,t1,a5
   18c00:	00c53533          	sltu	a0,a0,a2
   18c04:	40a78333          	sub	t1,a5,a0
   18c08:	b775                	j	18bb4 <__subtf3+0x3be>
   18c0a:	cb180be3          	beq	a6,a7,188c0 <__subtf3+0xca>
   18c0e:	4705                	li	a4,1
   18c10:	174e                	slli	a4,a4,0x33
   18c12:	00ee6e33          	or	t3,t3,a4
   18c16:	bf55                	j	18bca <__subtf3+0x3d4>
   18c18:	fc07871b          	addiw	a4,a5,-64
   18c1c:	04000593          	li	a1,64
   18c20:	00ee5733          	srl	a4,t3,a4
   18c24:	4681                	li	a3,0
   18c26:	00b78763          	beq	a5,a1,18c34 <__subtf3+0x43e>
   18c2a:	08000693          	li	a3,128
   18c2e:	9e9d                	subw	a3,a3,a5
   18c30:	00de16b3          	sll	a3,t3,a3
   18c34:	8ed1                	or	a3,a3,a2
   18c36:	00d036b3          	snez	a3,a3
   18c3a:	8f55                	or	a4,a4,a3
   18c3c:	4781                	li	a5,0
   18c3e:	bf6d                	j	18bf8 <__subtf3+0x402>
   18c40:	00ce6733          	or	a4,t3,a2
   18c44:	00e03733          	snez	a4,a4
   18c48:	bfd5                	j	18c3c <__subtf3+0x446>
   18c4a:	cfe1                	beqz	a5,18d22 <__subtf3+0x52c>
   18c4c:	08081963          	bnez	a6,18cde <__subtf3+0x4e8>
   18c50:	00a36733          	or	a4,t1,a0
   18c54:	e30d                	bnez	a4,18c76 <__subtf3+0x480>
   18c56:	892e                	mv	s2,a1
   18c58:	371e9863          	bne	t4,a7,18fc8 <__subtf3+0x7d2>
   18c5c:	00ce6333          	or	t1,t3,a2
   18c60:	36030763          	beqz	t1,18fce <__subtf3+0x7d8>
   18c64:	032e5793          	srli	a5,t3,0x32
   18c68:	8b85                	andi	a5,a5,1
   18c6a:	0017c793          	xori	a5,a5,1
   18c6e:	0047979b          	slliw	a5,a5,0x4
   18c72:	892e                	mv	s2,a1
   18c74:	b321                	j	1897c <__subtf3+0x186>
   18c76:	fff7c793          	not	a5,a5
   18c7a:	2781                	sext.w	a5,a5
   18c7c:	ef89                	bnez	a5,18c96 <__subtf3+0x4a0>
   18c7e:	40a60533          	sub	a0,a2,a0
   18c82:	00a637b3          	sltu	a5,a2,a0
   18c86:	406e0e33          	sub	t3,t3,t1
   18c8a:	862a                	mv	a2,a0
   18c8c:	40fe0333          	sub	t1,t3,a5
   18c90:	84f6                	mv	s1,t4
   18c92:	892e                	mv	s2,a1
   18c94:	b705                	j	18bb4 <__subtf3+0x3be>
   18c96:	fd1e83e3          	beq	t4,a7,18c5c <__subtf3+0x466>
   18c9a:	07400713          	li	a4,116
   18c9e:	06f74d63          	blt	a4,a5,18d18 <__subtf3+0x522>
   18ca2:	03f00713          	li	a4,63
   18ca6:	04f74563          	blt	a4,a5,18cf0 <__subtf3+0x4fa>
   18caa:	04000693          	li	a3,64
   18cae:	9e9d                	subw	a3,a3,a5
   18cb0:	00d31733          	sll	a4,t1,a3
   18cb4:	00f55833          	srl	a6,a0,a5
   18cb8:	00d516b3          	sll	a3,a0,a3
   18cbc:	01076733          	or	a4,a4,a6
   18cc0:	00d036b3          	snez	a3,a3
   18cc4:	8f55                	or	a4,a4,a3
   18cc6:	00f357b3          	srl	a5,t1,a5
   18cca:	40e60733          	sub	a4,a2,a4
   18cce:	00e63333          	sltu	t1,a2,a4
   18cd2:	40fe07b3          	sub	a5,t3,a5
   18cd6:	863a                	mv	a2,a4
   18cd8:	40678333          	sub	t1,a5,t1
   18cdc:	bf55                	j	18c90 <__subtf3+0x49a>
   18cde:	f71e8fe3          	beq	t4,a7,18c5c <__subtf3+0x466>
   18ce2:	4705                	li	a4,1
   18ce4:	174e                	slli	a4,a4,0x33
   18ce6:	40f007bb          	negw	a5,a5
   18cea:	00e36333          	or	t1,t1,a4
   18cee:	b775                	j	18c9a <__subtf3+0x4a4>
   18cf0:	fc07871b          	addiw	a4,a5,-64
   18cf4:	04000813          	li	a6,64
   18cf8:	00e35733          	srl	a4,t1,a4
   18cfc:	4681                	li	a3,0
   18cfe:	01078763          	beq	a5,a6,18d0c <__subtf3+0x516>
   18d02:	08000693          	li	a3,128
   18d06:	9e9d                	subw	a3,a3,a5
   18d08:	00d316b3          	sll	a3,t1,a3
   18d0c:	8ec9                	or	a3,a3,a0
   18d0e:	00d036b3          	snez	a3,a3
   18d12:	8f55                	or	a4,a4,a3
   18d14:	4781                	li	a5,0
   18d16:	bf55                	j	18cca <__subtf3+0x4d4>
   18d18:	00a36733          	or	a4,t1,a0
   18d1c:	00e03733          	snez	a4,a4
   18d20:	bfd5                	j	18d14 <__subtf3+0x51e>
   18d22:	00180713          	addi	a4,a6,1
   18d26:	03171693          	slli	a3,a4,0x31
   18d2a:	92c9                	srli	a3,a3,0x32
   18d2c:	eadd                	bnez	a3,18de2 <__subtf3+0x5ec>
   18d2e:	00ce6733          	or	a4,t3,a2
   18d32:	00a366b3          	or	a3,t1,a0
   18d36:	04081f63          	bnez	a6,18d94 <__subtf3+0x59e>
   18d3a:	ea91                	bnez	a3,18d4e <__subtf3+0x558>
   18d3c:	1e071363          	bnez	a4,18f22 <__subtf3+0x72c>
   18d40:	ffe98913          	addi	s2,s3,-2
   18d44:	00193913          	seqz	s2,s2
   18d48:	4301                	li	t1,0
   18d4a:	4601                	li	a2,0
   18d4c:	bb09                	j	18a5e <__subtf3+0x268>
   18d4e:	1c070c63          	beqz	a4,18f26 <__subtf3+0x730>
   18d52:	40c506b3          	sub	a3,a0,a2
   18d56:	00d53833          	sltu	a6,a0,a3
   18d5a:	41c30733          	sub	a4,t1,t3
   18d5e:	41070733          	sub	a4,a4,a6
   18d62:	00c71813          	slli	a6,a4,0xc
   18d66:	00085d63          	bgez	a6,18d80 <__subtf3+0x58a>
   18d6a:	40a60533          	sub	a0,a2,a0
   18d6e:	00a637b3          	sltu	a5,a2,a0
   18d72:	406e0e33          	sub	t3,t3,t1
   18d76:	862a                	mv	a2,a0
   18d78:	40fe0333          	sub	t1,t3,a5
   18d7c:	892e                	mv	s2,a1
   18d7e:	a0c5                	j	18e5e <__subtf3+0x668>
   18d80:	00e6e633          	or	a2,a3,a4
   18d84:	1a061363          	bnez	a2,18f2a <__subtf3+0x734>
   18d88:	ffe98913          	addi	s2,s3,-2
   18d8c:	00193913          	seqz	s2,s2
   18d90:	4301                	li	t1,0
   18d92:	b1f1                	j	18a5e <__subtf3+0x268>
   18d94:	03181563          	bne	a6,a7,18dbe <__subtf3+0x5c8>
   18d98:	24068a63          	beqz	a3,18fec <__subtf3+0x7f6>
   18d9c:	03235793          	srli	a5,t1,0x32
   18da0:	8b85                	andi	a5,a5,1
   18da2:	0017c793          	xori	a5,a5,1
   18da6:	0047979b          	slliw	a5,a5,0x4
   18daa:	030e9563          	bne	t4,a6,18dd4 <__subtf3+0x5de>
   18dae:	cb11                	beqz	a4,18dc2 <__subtf3+0x5cc>
   18db0:	00de1813          	slli	a6,t3,0xd
   18db4:	00084763          	bltz	a6,18dc2 <__subtf3+0x5cc>
   18db8:	47c1                	li	a5,16
   18dba:	c699                	beqz	a3,18dc8 <__subtf3+0x5d2>
   18dbc:	a831                	j	18dd8 <__subtf3+0x5e2>
   18dbe:	ff1e88e3          	beq	t4,a7,18dae <__subtf3+0x5b8>
   18dc2:	ea89                	bnez	a3,18dd4 <__subtf3+0x5de>
   18dc4:	20070863          	beqz	a4,18fd4 <__subtf3+0x7de>
   18dc8:	892e                	mv	s2,a1
   18dca:	8372                	mv	t1,t3
   18dcc:	6721                	lui	a4,0x8
   18dce:	fff70493          	addi	s1,a4,-1 # 7fff <exit-0x8121>
   18dd2:	b171                	j	18a5e <__subtf3+0x268>
   18dd4:	d0070fe3          	beqz	a4,18af2 <__subtf3+0x2fc>
   18dd8:	4305                	li	t1,1
   18dda:	4901                	li	s2,0
   18ddc:	134a                	slli	t1,t1,0x32
   18dde:	4601                	li	a2,0
   18de0:	b7f5                	j	18dcc <__subtf3+0x5d6>
   18de2:	40c50733          	sub	a4,a0,a2
   18de6:	00e536b3          	sltu	a3,a0,a4
   18dea:	41c30433          	sub	s0,t1,t3
   18dee:	8c15                	sub	s0,s0,a3
   18df0:	00c41693          	slli	a3,s0,0xc
   18df4:	8a3a                	mv	s4,a4
   18df6:	0c06d063          	bgez	a3,18eb6 <__subtf3+0x6c0>
   18dfa:	40a60a33          	sub	s4,a2,a0
   18dfe:	406e0433          	sub	s0,t3,t1
   18e02:	01463633          	sltu	a2,a2,s4
   18e06:	8c11                	sub	s0,s0,a2
   18e08:	892e                	mv	s2,a1
   18e0a:	c061                	beqz	s0,18eca <__subtf3+0x6d4>
   18e0c:	8522                	mv	a0,s0
   18e0e:	3ec000ef          	jal	191fa <__clzdi2>
   18e12:	ff45061b          	addiw	a2,a0,-12
   18e16:	04000313          	li	t1,64
   18e1a:	40c3033b          	subw	t1,t1,a2
   18e1e:	00c41433          	sll	s0,s0,a2
   18e22:	006a5333          	srl	t1,s4,t1
   18e26:	00836333          	or	t1,t1,s0
   18e2a:	00ca1433          	sll	s0,s4,a2
   18e2e:	0e964063          	blt	a2,s1,18f0e <__subtf3+0x718>
   18e32:	9e05                	subw	a2,a2,s1
   18e34:	0016071b          	addiw	a4,a2,1 # 8001 <exit-0x811f>
   18e38:	03f00793          	li	a5,63
   18e3c:	0ae7c563          	blt	a5,a4,18ee6 <__subtf3+0x6f0>
   18e40:	04000793          	li	a5,64
   18e44:	9f99                	subw	a5,a5,a4
   18e46:	00f31633          	sll	a2,t1,a5
   18e4a:	00e456b3          	srl	a3,s0,a4
   18e4e:	00f417b3          	sll	a5,s0,a5
   18e52:	8e55                	or	a2,a2,a3
   18e54:	00f037b3          	snez	a5,a5
   18e58:	8e5d                	or	a2,a2,a5
   18e5a:	00e35333          	srl	t1,t1,a4
   18e5e:	00c367b3          	or	a5,t1,a2
   18e62:	18078263          	beqz	a5,18fe6 <__subtf3+0x7f0>
   18e66:	00161693          	slli	a3,a2,0x1
   18e6a:	03f65713          	srli	a4,a2,0x3f
   18e6e:	00131793          	slli	a5,t1,0x1
   18e72:	0076f593          	andi	a1,a3,7
   18e76:	97ba                	add	a5,a5,a4
   18e78:	4701                	li	a4,0
   18e7a:	c18d                	beqz	a1,18e9c <__subtf3+0x6a6>
   18e7c:	4709                	li	a4,2
   18e7e:	0ce98263          	beq	s3,a4,18f42 <__subtf3+0x74c>
   18e82:	470d                	li	a4,3
   18e84:	0ae98663          	beq	s3,a4,18f30 <__subtf3+0x73a>
   18e88:	4705                	li	a4,1
   18e8a:	00099963          	bnez	s3,18e9c <__subtf3+0x6a6>
   18e8e:	00f6f593          	andi	a1,a3,15
   18e92:	4511                	li	a0,4
   18e94:	ffc6b693          	sltiu	a3,a3,-4
   18e98:	0aa59163          	bne	a1,a0,18f3a <__subtf3+0x744>
   18e9c:	93d1                	srli	a5,a5,0x34
   18e9e:	8b85                	andi	a5,a5,1
   18ea0:	0017c793          	xori	a5,a5,1
   18ea4:	4481                	li	s1,0
   18ea6:	00767693          	andi	a3,a2,7
   18eaa:	cac5                	beqz	a3,18f5a <__subtf3+0x764>
   18eac:	4709                	li	a4,2
   18eae:	0ae98363          	beq	s3,a4,18f54 <__subtf3+0x75e>
   18eb2:	4705                	li	a4,1
   18eb4:	b9ad                	j	18b2e <__subtf3+0x338>
   18eb6:	00876633          	or	a2,a4,s0
   18eba:	fa21                	bnez	a2,18e0a <__subtf3+0x614>
   18ebc:	ffe98913          	addi	s2,s3,-2
   18ec0:	00193913          	seqz	s2,s2
   18ec4:	4301                	li	t1,0
   18ec6:	4481                	li	s1,0
   18ec8:	be59                	j	18a5e <__subtf3+0x268>
   18eca:	8552                	mv	a0,s4
   18ecc:	32e000ef          	jal	191fa <__clzdi2>
   18ed0:	0345061b          	addiw	a2,a0,52
   18ed4:	03f00793          	li	a5,63
   18ed8:	f2c7dfe3          	bge	a5,a2,18e16 <__subtf3+0x620>
   18edc:	ff45031b          	addiw	t1,a0,-12
   18ee0:	006a1333          	sll	t1,s4,t1
   18ee4:	b7a9                	j	18e2e <__subtf3+0x638>
   18ee6:	fc16061b          	addiw	a2,a2,-63
   18eea:	04000693          	li	a3,64
   18eee:	00c35633          	srl	a2,t1,a2
   18ef2:	4781                	li	a5,0
   18ef4:	00d70763          	beq	a4,a3,18f02 <__subtf3+0x70c>
   18ef8:	08000793          	li	a5,128
   18efc:	9f99                	subw	a5,a5,a4
   18efe:	00f317b3          	sll	a5,t1,a5
   18f02:	8fc1                	or	a5,a5,s0
   18f04:	00f037b3          	snez	a5,a5
   18f08:	8e5d                	or	a2,a2,a5
   18f0a:	4301                	li	t1,0
   18f0c:	bf89                	j	18e5e <__subtf3+0x668>
   18f0e:	57fd                	li	a5,-1
   18f10:	17ce                	slli	a5,a5,0x33
   18f12:	17fd                	addi	a5,a5,-1
   18f14:	8c91                	sub	s1,s1,a2
   18f16:	00f37333          	and	t1,t1,a5
   18f1a:	8622                	mv	a2,s0
   18f1c:	ba71                	j	188b8 <__subtf3+0xc2>
   18f1e:	8372                	mv	t1,t3
   18f20:	bf3d                	j	18e5e <__subtf3+0x668>
   18f22:	8372                	mv	t1,t3
   18f24:	bda1                	j	18d7c <__subtf3+0x586>
   18f26:	862a                	mv	a2,a0
   18f28:	bf1d                	j	18e5e <__subtf3+0x668>
   18f2a:	833a                	mv	t1,a4
   18f2c:	8636                	mv	a2,a3
   18f2e:	bf05                	j	18e5e <__subtf3+0x668>
   18f30:	4705                	li	a4,1
   18f32:	f60915e3          	bnez	s2,18e9c <__subtf3+0x6a6>
   18f36:	ff86b693          	sltiu	a3,a3,-8
   18f3a:	0016b693          	seqz	a3,a3
   18f3e:	97b6                	add	a5,a5,a3
   18f40:	bfb1                	j	18e9c <__subtf3+0x6a6>
   18f42:	4705                	li	a4,1
   18f44:	f4090ce3          	beqz	s2,18e9c <__subtf3+0x6a6>
   18f48:	b7fd                	j	18f36 <__subtf3+0x740>
   18f4a:	00091863          	bnez	s2,18f5a <__subtf3+0x764>
   18f4e:	00860693          	addi	a3,a2,8
   18f52:	bed5                	j	18b46 <__subtf3+0x350>
   18f54:	4705                	li	a4,1
   18f56:	fe091ce3          	bnez	s2,18f4e <__subtf3+0x758>
   18f5a:	c00785e3          	beqz	a5,18b64 <__subtf3+0x36e>
   18f5e:	00177793          	andi	a5,a4,1
   18f62:	0017979b          	slliw	a5,a5,0x1
   18f66:	8fd9                	or	a5,a5,a4
   18f68:	00c31713          	slli	a4,t1,0xc
   18f6c:	ae0759e3          	bgez	a4,18a5e <__subtf3+0x268>
   18f70:	6721                	lui	a4,0x8
   18f72:	0485                	addi	s1,s1,1
   18f74:	177d                	addi	a4,a4,-1 # 7fff <exit-0x8121>
   18f76:	00e48e63          	beq	s1,a4,18f92 <__subtf3+0x79c>
   18f7a:	577d                	li	a4,-1
   18f7c:	174e                	slli	a4,a4,0x33
   18f7e:	177d                	addi	a4,a4,-1
   18f80:	00e37333          	and	t1,t1,a4
   18f84:	bce9                	j	18a5e <__subtf3+0x268>
   18f86:	64a1                	lui	s1,0x8
   18f88:	537d                	li	t1,-1
   18f8a:	14f9                	addi	s1,s1,-2 # 7ffe <exit-0x8122>
   18f8c:	861a                	mv	a2,t1
   18f8e:	4795                	li	a5,5
   18f90:	bfe1                	j	18f68 <__subtf3+0x772>
   18f92:	4601                	li	a2,0
   18f94:	02098163          	beqz	s3,18fb6 <__subtf3+0x7c0>
   18f98:	470d                	li	a4,3
   18f9a:	00e99863          	bne	s3,a4,18faa <__subtf3+0x7b4>
   18f9e:	00090c63          	beqz	s2,18fb6 <__subtf3+0x7c0>
   18fa2:	64a1                	lui	s1,0x8
   18fa4:	567d                	li	a2,-1
   18fa6:	14f9                	addi	s1,s1,-2 # 7ffe <exit-0x8122>
   18fa8:	a039                	j	18fb6 <__subtf3+0x7c0>
   18faa:	ffe98693          	addi	a3,s3,-2
   18fae:	faf5                	bnez	a3,18fa2 <__subtf3+0x7ac>
   18fb0:	00197713          	andi	a4,s2,1
   18fb4:	d77d                	beqz	a4,18fa2 <__subtf3+0x7ac>
   18fb6:	0057e793          	ori	a5,a5,5
   18fba:	2781                	sext.w	a5,a5
   18fbc:	8332                	mv	t1,a2
   18fbe:	b445                	j	18a5e <__subtf3+0x268>
   18fc0:	84ba                	mv	s1,a4
   18fc2:	b6d9                	j	18b88 <__subtf3+0x392>
   18fc4:	4301                	li	t1,0
   18fc6:	b845                	j	18876 <__subtf3+0x80>
   18fc8:	8372                	mv	t1,t3
   18fca:	84f6                	mv	s1,t4
   18fcc:	b06d                	j	18876 <__subtf3+0x80>
   18fce:	892e                	mv	s2,a1
   18fd0:	4601                	li	a2,0
   18fd2:	bfe5                	j	18fca <__subtf3+0x7d4>
   18fd4:	4305                	li	t1,1
   18fd6:	6721                	lui	a4,0x8
   18fd8:	4901                	li	s2,0
   18fda:	4601                	li	a2,0
   18fdc:	134a                	slli	t1,t1,0x32
   18fde:	fff70493          	addi	s1,a4,-1 # 7fff <exit-0x8121>
   18fe2:	47c1                	li	a5,16
   18fe4:	bcad                	j	18a5e <__subtf3+0x268>
   18fe6:	4301                	li	t1,0
   18fe8:	4601                	li	a2,0
   18fea:	bdf1                	j	18ec6 <__subtf3+0x6d0>
   18fec:	dd0e9ce3          	bne	t4,a6,18dc4 <__subtf3+0x5ce>
   18ff0:	bb7d                	j	18dae <__subtf3+0x5b8>

0000000000018ff2 <__unordtf2>:
   18ff2:	882a                	mv	a6,a0
   18ff4:	002027f3          	frrm	a5
   18ff8:	57fd                	li	a5,-1
   18ffa:	83c1                	srli	a5,a5,0x10
   18ffc:	6721                	lui	a4,0x8
   18ffe:	00f5f8b3          	and	a7,a1,a5
   19002:	177d                	addi	a4,a4,-1 # 7fff <exit-0x8121>
   19004:	91c1                	srli	a1,a1,0x30
   19006:	8ff5                	and	a5,a5,a3
   19008:	8df9                	and	a1,a1,a4
   1900a:	92c1                	srli	a3,a3,0x30
   1900c:	8ef9                	and	a3,a3,a4
   1900e:	00e59563          	bne	a1,a4,19018 <__unordtf2+0x26>
   19012:	01156533          	or	a0,a0,a7
   19016:	e909                	bnez	a0,19028 <__unordtf2+0x36>
   19018:	4501                	li	a0,0
   1901a:	02e69d63          	bne	a3,a4,19054 <__unordtf2+0x62>
   1901e:	00f66733          	or	a4,a2,a5
   19022:	cb0d                	beqz	a4,19054 <__unordtf2+0x62>
   19024:	00d59f63          	bne	a1,a3,19042 <__unordtf2+0x50>
   19028:	01186833          	or	a6,a6,a7
   1902c:	00080663          	beqz	a6,19038 <__unordtf2+0x46>
   19030:	4705                	li	a4,1
   19032:	173e                	slli	a4,a4,0x2f
   19034:	00e8ed63          	bltu	a7,a4,1904e <__unordtf2+0x5c>
   19038:	6721                	lui	a4,0x8
   1903a:	177d                	addi	a4,a4,-1 # 7fff <exit-0x8121>
   1903c:	4505                	li	a0,1
   1903e:	00e69b63          	bne	a3,a4,19054 <__unordtf2+0x62>
   19042:	8e5d                	or	a2,a2,a5
   19044:	c619                	beqz	a2,19052 <__unordtf2+0x60>
   19046:	4705                	li	a4,1
   19048:	173e                	slli	a4,a4,0x2f
   1904a:	00e7f463          	bgeu	a5,a4,19052 <__unordtf2+0x60>
   1904e:	00186073          	csrsi	fflags,16
   19052:	4505                	li	a0,1
   19054:	8082                	ret

0000000000019056 <__fixtfsi>:
   19056:	862a                	mv	a2,a0
   19058:	002027f3          	frrm	a5
   1905c:	00159713          	slli	a4,a1,0x1
   19060:	03175693          	srli	a3,a4,0x31
   19064:	6711                	lui	a4,0x4
   19066:	01059793          	slli	a5,a1,0x10
   1906a:	1779                	addi	a4,a4,-2 # 3ffe <exit-0xc122>
   1906c:	83c1                	srli	a5,a5,0x10
   1906e:	91fd                	srli	a1,a1,0x3f
   19070:	00d74863          	blt	a4,a3,19080 <__fixtfsi+0x2a>
   19074:	e2a5                	bnez	a3,190d4 <__fixtfsi+0x7e>
   19076:	00f56633          	or	a2,a0,a5
   1907a:	4501                	li	a0,0
   1907c:	ea31                	bnez	a2,190d0 <__fixtfsi+0x7a>
   1907e:	8082                	ret
   19080:	6711                	lui	a4,0x4
   19082:	0775                	addi	a4,a4,29 # 401d <exit-0xc103>
   19084:	02d75063          	bge	a4,a3,190a4 <__fixtfsi+0x4e>
   19088:	80000537          	lui	a0,0x80000
   1908c:	c5b1                	beqz	a1,190d8 <__fixtfsi+0x82>
   1908e:	6711                	lui	a4,0x4
   19090:	0779                	addi	a4,a4,30 # 401e <exit-0xc102>
   19092:	04e69563          	bne	a3,a4,190dc <__fixtfsi+0x86>
   19096:	0117d713          	srli	a4,a5,0x11
   1909a:	e329                	bnez	a4,190dc <__fixtfsi+0x86>
   1909c:	17be                	slli	a5,a5,0x2f
   1909e:	8fd1                	or	a5,a5,a2
   190a0:	eb85                	bnez	a5,190d0 <__fixtfsi+0x7a>
   190a2:	8082                	ret
   190a4:	4705                	li	a4,1
   190a6:	1742                	slli	a4,a4,0x30
   190a8:	8fd9                	or	a5,a5,a4
   190aa:	6611                	lui	a2,0x4
   190ac:	7771                	lui	a4,0xffffc
   190ae:	2745                	addiw	a4,a4,17 # ffffffffffffc011 <__BSS_END__+0xfffffffffffe0401>
   190b0:	02f6061b          	addiw	a2,a2,47 # 402f <exit-0xc0f1>
   190b4:	9f35                	addw	a4,a4,a3
   190b6:	40d606bb          	subw	a3,a2,a3
   190ba:	00e79733          	sll	a4,a5,a4
   190be:	00d7d7b3          	srl	a5,a5,a3
   190c2:	8f49                	or	a4,a4,a0
   190c4:	0007851b          	sext.w	a0,a5
   190c8:	c199                	beqz	a1,190ce <__fixtfsi+0x78>
   190ca:	40a0053b          	negw	a0,a0
   190ce:	cb11                	beqz	a4,190e2 <__fixtfsi+0x8c>
   190d0:	4785                	li	a5,1
   190d2:	a031                	j	190de <__fixtfsi+0x88>
   190d4:	4501                	li	a0,0
   190d6:	bfed                	j	190d0 <__fixtfsi+0x7a>
   190d8:	fff54513          	not	a0,a0
   190dc:	47c1                	li	a5,16
   190de:	0017a073          	csrs	fflags,a5
   190e2:	8082                	ret

00000000000190e4 <__floatsitf>:
   190e4:	1101                	addi	sp,sp,-32
   190e6:	ec06                	sd	ra,24(sp)
   190e8:	e822                	sd	s0,16(sp)
   190ea:	e426                	sd	s1,8(sp)
   190ec:	c129                	beqz	a0,1912e <__floatsitf+0x4a>
   190ee:	41f5579b          	sraiw	a5,a0,0x1f
   190f2:	00f54433          	xor	s0,a0,a5
   190f6:	9c1d                	subw	s0,s0,a5
   190f8:	1402                	slli	s0,s0,0x20
   190fa:	9001                	srli	s0,s0,0x20
   190fc:	01f5549b          	srliw	s1,a0,0x1f
   19100:	8522                	mv	a0,s0
   19102:	0f8000ef          	jal	191fa <__clzdi2>
   19106:	6791                	lui	a5,0x4
   19108:	03e7879b          	addiw	a5,a5,62 # 403e <exit-0xc0e2>
   1910c:	9f89                	subw	a5,a5,a0
   1910e:	3545                	addiw	a0,a0,-15 # 7ffffff1 <__BSS_END__+0x7ffe43e1>
   19110:	00a41433          	sll	s0,s0,a0
   19114:	00f4959b          	slliw	a1,s1,0xf
   19118:	0442                	slli	s0,s0,0x10
   1911a:	8ddd                	or	a1,a1,a5
   1911c:	8041                	srli	s0,s0,0x10
   1911e:	15c2                	slli	a1,a1,0x30
   19120:	60e2                	ld	ra,24(sp)
   19122:	8dc1                	or	a1,a1,s0
   19124:	6442                	ld	s0,16(sp)
   19126:	64a2                	ld	s1,8(sp)
   19128:	4501                	li	a0,0
   1912a:	6105                	addi	sp,sp,32
   1912c:	8082                	ret
   1912e:	4481                	li	s1,0
   19130:	4401                	li	s0,0
   19132:	4781                	li	a5,0
   19134:	b7c5                	j	19114 <__floatsitf+0x30>

0000000000019136 <__extenddftf2>:
   19136:	1101                	addi	sp,sp,-32
   19138:	e20507d3          	fmv.x.d	a5,fa0
   1913c:	ec06                	sd	ra,24(sp)
   1913e:	e822                	sd	s0,16(sp)
   19140:	e426                	sd	s1,8(sp)
   19142:	00202773          	frrm	a4
   19146:	0347d513          	srli	a0,a5,0x34
   1914a:	7ff57513          	andi	a0,a0,2047
   1914e:	00150713          	addi	a4,a0,1
   19152:	00c79413          	slli	s0,a5,0xc
   19156:	7fe77713          	andi	a4,a4,2046
   1915a:	8031                	srli	s0,s0,0xc
   1915c:	03f7d493          	srli	s1,a5,0x3f
   19160:	cb11                	beqz	a4,19174 <__extenddftf2+0x3e>
   19162:	6711                	lui	a4,0x4
   19164:	c0070713          	addi	a4,a4,-1024 # 3c00 <exit-0xc520>
   19168:	00445793          	srli	a5,s0,0x4
   1916c:	953a                	add	a0,a0,a4
   1916e:	1472                	slli	s0,s0,0x3c
   19170:	4701                	li	a4,0
   19172:	a8b9                	j	191d0 <__extenddftf2+0x9a>
   19174:	ed1d                	bnez	a0,191b2 <__extenddftf2+0x7c>
   19176:	4781                	li	a5,0
   19178:	dc65                	beqz	s0,19170 <__extenddftf2+0x3a>
   1917a:	8522                	mv	a0,s0
   1917c:	07e000ef          	jal	191fa <__clzdi2>
   19180:	0005071b          	sext.w	a4,a0
   19184:	47b9                	li	a5,14
   19186:	02e7c063          	blt	a5,a4,191a6 <__extenddftf2+0x70>
   1918a:	47bd                	li	a5,15
   1918c:	9f89                	subw	a5,a5,a0
   1918e:	0315071b          	addiw	a4,a0,49
   19192:	00f457b3          	srl	a5,s0,a5
   19196:	00e41433          	sll	s0,s0,a4
   1919a:	6711                	lui	a4,0x4
   1919c:	c0c7071b          	addiw	a4,a4,-1012 # 3c0c <exit-0xc514>
   191a0:	40a7053b          	subw	a0,a4,a0
   191a4:	b7f1                	j	19170 <__extenddftf2+0x3a>
   191a6:	ff15079b          	addiw	a5,a0,-15
   191aa:	00f417b3          	sll	a5,s0,a5
   191ae:	4401                	li	s0,0
   191b0:	b7ed                	j	1919a <__extenddftf2+0x64>
   191b2:	c021                	beqz	s0,191f2 <__extenddftf2+0xbc>
   191b4:	4685                	li	a3,1
   191b6:	03369713          	slli	a4,a3,0x33
   191ba:	00e43733          	sltu	a4,s0,a4
   191be:	00445793          	srli	a5,s0,0x4
   191c2:	16be                	slli	a3,a3,0x2f
   191c4:	6521                	lui	a0,0x8
   191c6:	0047171b          	slliw	a4,a4,0x4
   191ca:	8fd5                	or	a5,a5,a3
   191cc:	1472                	slli	s0,s0,0x3c
   191ce:	157d                	addi	a0,a0,-1 # 7fff <exit-0x8121>
   191d0:	01079593          	slli	a1,a5,0x10
   191d4:	00f4979b          	slliw	a5,s1,0xf
   191d8:	8fc9                	or	a5,a5,a0
   191da:	17c2                	slli	a5,a5,0x30
   191dc:	81c1                	srli	a1,a1,0x10
   191de:	8ddd                	or	a1,a1,a5
   191e0:	c319                	beqz	a4,191e6 <__extenddftf2+0xb0>
   191e2:	00186073          	csrsi	fflags,16
   191e6:	60e2                	ld	ra,24(sp)
   191e8:	8522                	mv	a0,s0
   191ea:	6442                	ld	s0,16(sp)
   191ec:	64a2                	ld	s1,8(sp)
   191ee:	6105                	addi	sp,sp,32
   191f0:	8082                	ret
   191f2:	6521                	lui	a0,0x8
   191f4:	4781                	li	a5,0
   191f6:	157d                	addi	a0,a0,-1 # 7fff <exit-0x8121>
   191f8:	bfa5                	j	19170 <__extenddftf2+0x3a>

00000000000191fa <__clzdi2>:
   191fa:	03800793          	li	a5,56
   191fe:	00f55733          	srl	a4,a0,a5
   19202:	0ff77693          	zext.b	a3,a4
   19206:	ee99                	bnez	a3,19224 <__clzdi2+0x2a>
   19208:	17e1                	addi	a5,a5,-8
   1920a:	fbf5                	bnez	a5,191fe <__clzdi2+0x4>
   1920c:	04000713          	li	a4,64
   19210:	8f1d                	sub	a4,a4,a5
   19212:	67e9                	lui	a5,0x1a
   19214:	97078793          	addi	a5,a5,-1680 # 19970 <__clz_tab>
   19218:	97aa                	add	a5,a5,a0
   1921a:	0007c503          	lbu	a0,0(a5)
   1921e:	40a7053b          	subw	a0,a4,a0
   19222:	8082                	ret
   19224:	853a                	mv	a0,a4
   19226:	b7dd                	j	1920c <__clzdi2+0x12>
