
rv64ui-p-sb:     file format elf64-littleriscv


Disassembly of section .text.init:

0000000080000000 <_start>:
    80000000:	0540006f          	j	80000054 <reset_vector>

0000000080000004 <trap_vector>:
    80000004:	34202f73          	csrr	t5,mcause
    80000008:	00800f93          	li	t6,8
    8000000c:	03ff0a63          	beq	t5,t6,80000040 <write_tohost>
    80000010:	00900f93          	li	t6,9
    80000014:	03ff0663          	beq	t5,t6,80000040 <write_tohost>
    80000018:	00b00f93          	li	t6,11
    8000001c:	03ff0263          	beq	t5,t6,80000040 <write_tohost>
    80000020:	80000f17          	auipc	t5,0x80000
    80000024:	fe0f0f13          	addi	t5,t5,-32 # 0 <_start-0x80000000>
    80000028:	000f0463          	beqz	t5,80000030 <trap_vector+0x2c>
    8000002c:	000f0067          	jr	t5
    80000030:	34202f73          	csrr	t5,mcause
    80000034:	000f5463          	bgez	t5,8000003c <handle_exception>
    80000038:	0040006f          	j	8000003c <handle_exception>

000000008000003c <handle_exception>:
    8000003c:	5391e193          	ori	gp,gp,1337

0000000080000040 <write_tohost>:
    80000040:	00001f17          	auipc	t5,0x1
    80000044:	fc3f2023          	sw	gp,-64(t5) # 80001000 <tohost>
    80000048:	00001f17          	auipc	t5,0x1
    8000004c:	fa0f2e23          	sw	zero,-68(t5) # 80001004 <tohost+0x4>
    80000050:	ff1ff06f          	j	80000040 <write_tohost>

0000000080000054 <reset_vector>:
    80000054:	00000093          	li	ra,0
    80000058:	00000113          	li	sp,0
    8000005c:	00000193          	li	gp,0
    80000060:	00000213          	li	tp,0
    80000064:	00000293          	li	t0,0
    80000068:	00000313          	li	t1,0
    8000006c:	00000393          	li	t2,0
    80000070:	00000413          	li	s0,0
    80000074:	00000493          	li	s1,0
    80000078:	00000513          	li	a0,0
    8000007c:	00000593          	li	a1,0
    80000080:	00000613          	li	a2,0
    80000084:	00000693          	li	a3,0
    80000088:	00000713          	li	a4,0
    8000008c:	00000793          	li	a5,0
    80000090:	00000813          	li	a6,0
    80000094:	00000893          	li	a7,0
    80000098:	00000913          	li	s2,0
    8000009c:	00000993          	li	s3,0
    800000a0:	00000a13          	li	s4,0
    800000a4:	00000a93          	li	s5,0
    800000a8:	00000b13          	li	s6,0
    800000ac:	00000b93          	li	s7,0
    800000b0:	00000c13          	li	s8,0
    800000b4:	00000c93          	li	s9,0
    800000b8:	00000d13          	li	s10,0
    800000bc:	00000d93          	li	s11,0
    800000c0:	00000e13          	li	t3,0
    800000c4:	00000e93          	li	t4,0
    800000c8:	00000f13          	li	t5,0
    800000cc:	00000f93          	li	t6,0
    800000d0:	f1402573          	csrr	a0,mhartid
    800000d4:	00051063          	bnez	a0,800000d4 <reset_vector+0x80>
    800000d8:	00000297          	auipc	t0,0x0
    800000dc:	01028293          	addi	t0,t0,16 # 800000e8 <reset_vector+0x94>
    800000e0:	30529073          	csrw	mtvec,t0
    800000e4:	74445073          	csrwi	0x744,8
    800000e8:	00000297          	auipc	t0,0x0
    800000ec:	01028293          	addi	t0,t0,16 # 800000f8 <reset_vector+0xa4>
    800000f0:	30529073          	csrw	mtvec,t0
    800000f4:	18005073          	csrwi	sptbr,0
    800000f8:	00000297          	auipc	t0,0x0
    800000fc:	02428293          	addi	t0,t0,36 # 8000011c <reset_vector+0xc8>
    80000100:	30529073          	csrw	mtvec,t0
    80000104:	0010029b          	addiw	t0,zero,1
    80000108:	03529293          	slli	t0,t0,0x35
    8000010c:	fff28293          	addi	t0,t0,-1
    80000110:	3b029073          	csrw	pmpaddr0,t0
    80000114:	01f00293          	li	t0,31
    80000118:	3a029073          	csrw	pmpcfg0,t0
    8000011c:	30405073          	csrwi	mie,0
    80000120:	00000297          	auipc	t0,0x0
    80000124:	01428293          	addi	t0,t0,20 # 80000134 <reset_vector+0xe0>
    80000128:	30529073          	csrw	mtvec,t0
    8000012c:	30205073          	csrwi	medeleg,0
    80000130:	30305073          	csrwi	mideleg,0
    80000134:	00000193          	li	gp,0
    80000138:	00000297          	auipc	t0,0x0
    8000013c:	ecc28293          	addi	t0,t0,-308 # 80000004 <trap_vector>
    80000140:	30529073          	csrw	mtvec,t0
    80000144:	00100513          	li	a0,1
    80000148:	01f51513          	slli	a0,a0,0x1f
    8000014c:	00055c63          	bgez	a0,80000164 <reset_vector+0x110>
    80000150:	0ff0000f          	fence
    80000154:	00100193          	li	gp,1
    80000158:	05d00893          	li	a7,93
    8000015c:	00000513          	li	a0,0
    80000160:	00000073          	ecall
    80000164:	80000297          	auipc	t0,0x80000
    80000168:	e9c28293          	addi	t0,t0,-356 # 0 <_start-0x80000000>
    8000016c:	00028a63          	beqz	t0,80000180 <reset_vector+0x12c>
    80000170:	10529073          	csrw	stvec,t0
    80000174:	0000b2b7          	lui	t0,0xb
    80000178:	1092829b          	addiw	t0,t0,265
    8000017c:	30229073          	csrw	medeleg,t0
    80000180:	30005073          	csrwi	mstatus,0
    80000184:	00000297          	auipc	t0,0x0
    80000188:	01428293          	addi	t0,t0,20 # 80000198 <test_2>
    8000018c:	34129073          	csrw	mepc,t0
    80000190:	f1402573          	csrr	a0,mhartid
    80000194:	30200073          	mret

0000000080000198 <test_2>:
    80000198:	00200193          	li	gp,2
    8000019c:	00002117          	auipc	sp,0x2
    800001a0:	e6410113          	addi	sp,sp,-412 # 80002000 <begin_signature>
    800001a4:	faa00093          	li	ra,-86
    800001a8:	00000797          	auipc	a5,0x0
    800001ac:	01478793          	addi	a5,a5,20 # 800001bc <test_2+0x24>
    800001b0:	00110023          	sb	ra,0(sp)
    800001b4:	00010703          	lb	a4,0(sp)
    800001b8:	0080006f          	j	800001c0 <test_2+0x28>
    800001bc:	00008713          	mv	a4,ra
    800001c0:	faa00393          	li	t2,-86
    800001c4:	44771463          	bne	a4,t2,8000060c <fail>

00000000800001c8 <test_3>:
    800001c8:	00300193          	li	gp,3
    800001cc:	00002117          	auipc	sp,0x2
    800001d0:	e3410113          	addi	sp,sp,-460 # 80002000 <begin_signature>
    800001d4:	00000093          	li	ra,0
    800001d8:	00000797          	auipc	a5,0x0
    800001dc:	01478793          	addi	a5,a5,20 # 800001ec <test_3+0x24>
    800001e0:	001100a3          	sb	ra,1(sp)
    800001e4:	00110703          	lb	a4,1(sp)
    800001e8:	0080006f          	j	800001f0 <test_3+0x28>
    800001ec:	00008713          	mv	a4,ra
    800001f0:	00000393          	li	t2,0
    800001f4:	40771c63          	bne	a4,t2,8000060c <fail>

00000000800001f8 <test_4>:
    800001f8:	00400193          	li	gp,4
    800001fc:	00002117          	auipc	sp,0x2
    80000200:	e0410113          	addi	sp,sp,-508 # 80002000 <begin_signature>
    80000204:	fffff0b7          	lui	ra,0xfffff
    80000208:	fa00809b          	addiw	ra,ra,-96
    8000020c:	00000797          	auipc	a5,0x0
    80000210:	01478793          	addi	a5,a5,20 # 80000220 <test_4+0x28>
    80000214:	00110123          	sb	ra,2(sp)
    80000218:	00211703          	lh	a4,2(sp)
    8000021c:	0080006f          	j	80000224 <test_4+0x2c>
    80000220:	00008713          	mv	a4,ra
    80000224:	fffff3b7          	lui	t2,0xfffff
    80000228:	fa03839b          	addiw	t2,t2,-96
    8000022c:	3e771063          	bne	a4,t2,8000060c <fail>

0000000080000230 <test_5>:
    80000230:	00500193          	li	gp,5
    80000234:	00002117          	auipc	sp,0x2
    80000238:	dcc10113          	addi	sp,sp,-564 # 80002000 <begin_signature>
    8000023c:	00a00093          	li	ra,10
    80000240:	00000797          	auipc	a5,0x0
    80000244:	01478793          	addi	a5,a5,20 # 80000254 <test_5+0x24>
    80000248:	001101a3          	sb	ra,3(sp)
    8000024c:	00310703          	lb	a4,3(sp)
    80000250:	0080006f          	j	80000258 <test_5+0x28>
    80000254:	00008713          	mv	a4,ra
    80000258:	00a00393          	li	t2,10
    8000025c:	3a771863          	bne	a4,t2,8000060c <fail>

0000000080000260 <test_6>:
    80000260:	00600193          	li	gp,6
    80000264:	00002117          	auipc	sp,0x2
    80000268:	da310113          	addi	sp,sp,-605 # 80002007 <tdat8>
    8000026c:	faa00093          	li	ra,-86
    80000270:	00000797          	auipc	a5,0x0
    80000274:	01478793          	addi	a5,a5,20 # 80000284 <test_6+0x24>
    80000278:	fe110ea3          	sb	ra,-3(sp)
    8000027c:	ffd10703          	lb	a4,-3(sp)
    80000280:	0080006f          	j	80000288 <test_6+0x28>
    80000284:	00008713          	mv	a4,ra
    80000288:	faa00393          	li	t2,-86
    8000028c:	38771063          	bne	a4,t2,8000060c <fail>

0000000080000290 <test_7>:
    80000290:	00700193          	li	gp,7
    80000294:	00002117          	auipc	sp,0x2
    80000298:	d7310113          	addi	sp,sp,-653 # 80002007 <tdat8>
    8000029c:	00000093          	li	ra,0
    800002a0:	00000797          	auipc	a5,0x0
    800002a4:	01478793          	addi	a5,a5,20 # 800002b4 <test_7+0x24>
    800002a8:	fe110f23          	sb	ra,-2(sp)
    800002ac:	ffe10703          	lb	a4,-2(sp)
    800002b0:	0080006f          	j	800002b8 <test_7+0x28>
    800002b4:	00008713          	mv	a4,ra
    800002b8:	00000393          	li	t2,0
    800002bc:	34771863          	bne	a4,t2,8000060c <fail>

00000000800002c0 <test_8>:
    800002c0:	00800193          	li	gp,8
    800002c4:	00002117          	auipc	sp,0x2
    800002c8:	d4310113          	addi	sp,sp,-701 # 80002007 <tdat8>
    800002cc:	fa000093          	li	ra,-96
    800002d0:	00000797          	auipc	a5,0x0
    800002d4:	01478793          	addi	a5,a5,20 # 800002e4 <test_8+0x24>
    800002d8:	fe110fa3          	sb	ra,-1(sp)
    800002dc:	fff10703          	lb	a4,-1(sp)
    800002e0:	0080006f          	j	800002e8 <test_8+0x28>
    800002e4:	00008713          	mv	a4,ra
    800002e8:	fa000393          	li	t2,-96
    800002ec:	32771063          	bne	a4,t2,8000060c <fail>

00000000800002f0 <test_9>:
    800002f0:	00900193          	li	gp,9
    800002f4:	00002117          	auipc	sp,0x2
    800002f8:	d1310113          	addi	sp,sp,-749 # 80002007 <tdat8>
    800002fc:	00a00093          	li	ra,10
    80000300:	00000797          	auipc	a5,0x0
    80000304:	01478793          	addi	a5,a5,20 # 80000314 <test_9+0x24>
    80000308:	00110023          	sb	ra,0(sp)
    8000030c:	00010703          	lb	a4,0(sp)
    80000310:	0080006f          	j	80000318 <test_9+0x28>
    80000314:	00008713          	mv	a4,ra
    80000318:	00a00393          	li	t2,10
    8000031c:	2e771863          	bne	a4,t2,8000060c <fail>

0000000080000320 <test_10>:
    80000320:	00a00193          	li	gp,10
    80000324:	00002097          	auipc	ra,0x2
    80000328:	ce408093          	addi	ra,ra,-796 # 80002008 <tdat9>
    8000032c:	12345137          	lui	sp,0x12345
    80000330:	6781011b          	addiw	sp,sp,1656
    80000334:	fe008213          	addi	tp,ra,-32
    80000338:	02220023          	sb	sp,32(tp) # 20 <_start-0x7fffffe0>
    8000033c:	00008283          	lb	t0,0(ra)
    80000340:	07800393          	li	t2,120
    80000344:	2c729463          	bne	t0,t2,8000060c <fail>

0000000080000348 <test_11>:
    80000348:	00b00193          	li	gp,11
    8000034c:	00002097          	auipc	ra,0x2
    80000350:	cbc08093          	addi	ra,ra,-836 # 80002008 <tdat9>
    80000354:	00003137          	lui	sp,0x3
    80000358:	0981011b          	addiw	sp,sp,152
    8000035c:	ffa08093          	addi	ra,ra,-6
    80000360:	002083a3          	sb	sp,7(ra)
    80000364:	00002217          	auipc	tp,0x2
    80000368:	ca520213          	addi	tp,tp,-859 # 80002009 <tdat10>
    8000036c:	00020283          	lb	t0,0(tp) # 0 <_start-0x80000000>
    80000370:	f9800393          	li	t2,-104
    80000374:	28729c63          	bne	t0,t2,8000060c <fail>

0000000080000378 <test_12>:
    80000378:	00c00193          	li	gp,12
    8000037c:	00000213          	li	tp,0
    80000380:	fdd00693          	li	a3,-35
    80000384:	00002617          	auipc	a2,0x2
    80000388:	c7c60613          	addi	a2,a2,-900 # 80002000 <begin_signature>
    8000038c:	00d60023          	sb	a3,0(a2)
    80000390:	00060703          	lb	a4,0(a2)
    80000394:	fdd00393          	li	t2,-35
    80000398:	26771a63          	bne	a4,t2,8000060c <fail>
    8000039c:	00120213          	addi	tp,tp,1 # 1 <_start-0x7fffffff>
    800003a0:	00200293          	li	t0,2
    800003a4:	fc521ee3          	bne	tp,t0,80000380 <test_12+0x8>

00000000800003a8 <test_13>:
    800003a8:	00d00193          	li	gp,13
    800003ac:	00000213          	li	tp,0
    800003b0:	fcd00693          	li	a3,-51
    800003b4:	00002617          	auipc	a2,0x2
    800003b8:	c4c60613          	addi	a2,a2,-948 # 80002000 <begin_signature>
    800003bc:	00000013          	nop
    800003c0:	00d600a3          	sb	a3,1(a2)
    800003c4:	00160703          	lb	a4,1(a2)
    800003c8:	fcd00393          	li	t2,-51
    800003cc:	24771063          	bne	a4,t2,8000060c <fail>
    800003d0:	00120213          	addi	tp,tp,1 # 1 <_start-0x7fffffff>
    800003d4:	00200293          	li	t0,2
    800003d8:	fc521ce3          	bne	tp,t0,800003b0 <test_13+0x8>

00000000800003dc <test_14>:
    800003dc:	00e00193          	li	gp,14
    800003e0:	00000213          	li	tp,0
    800003e4:	fcc00693          	li	a3,-52
    800003e8:	00002617          	auipc	a2,0x2
    800003ec:	c1860613          	addi	a2,a2,-1000 # 80002000 <begin_signature>
    800003f0:	00000013          	nop
    800003f4:	00000013          	nop
    800003f8:	00d60123          	sb	a3,2(a2)
    800003fc:	00260703          	lb	a4,2(a2)
    80000400:	fcc00393          	li	t2,-52
    80000404:	20771463          	bne	a4,t2,8000060c <fail>
    80000408:	00120213          	addi	tp,tp,1 # 1 <_start-0x7fffffff>
    8000040c:	00200293          	li	t0,2
    80000410:	fc521ae3          	bne	tp,t0,800003e4 <test_14+0x8>

0000000080000414 <test_15>:
    80000414:	00f00193          	li	gp,15
    80000418:	00000213          	li	tp,0
    8000041c:	fbc00693          	li	a3,-68
    80000420:	00000013          	nop
    80000424:	00002617          	auipc	a2,0x2
    80000428:	bdc60613          	addi	a2,a2,-1060 # 80002000 <begin_signature>
    8000042c:	00d601a3          	sb	a3,3(a2)
    80000430:	00360703          	lb	a4,3(a2)
    80000434:	fbc00393          	li	t2,-68
    80000438:	1c771a63          	bne	a4,t2,8000060c <fail>
    8000043c:	00120213          	addi	tp,tp,1 # 1 <_start-0x7fffffff>
    80000440:	00200293          	li	t0,2
    80000444:	fc521ce3          	bne	tp,t0,8000041c <test_15+0x8>

0000000080000448 <test_16>:
    80000448:	01000193          	li	gp,16
    8000044c:	00000213          	li	tp,0
    80000450:	fbb00693          	li	a3,-69
    80000454:	00000013          	nop
    80000458:	00002617          	auipc	a2,0x2
    8000045c:	ba860613          	addi	a2,a2,-1112 # 80002000 <begin_signature>
    80000460:	00000013          	nop
    80000464:	00d60223          	sb	a3,4(a2)
    80000468:	00460703          	lb	a4,4(a2)
    8000046c:	fbb00393          	li	t2,-69
    80000470:	18771e63          	bne	a4,t2,8000060c <fail>
    80000474:	00120213          	addi	tp,tp,1 # 1 <_start-0x7fffffff>
    80000478:	00200293          	li	t0,2
    8000047c:	fc521ae3          	bne	tp,t0,80000450 <test_16+0x8>

0000000080000480 <test_17>:
    80000480:	01100193          	li	gp,17
    80000484:	00000213          	li	tp,0
    80000488:	fab00693          	li	a3,-85
    8000048c:	00000013          	nop
    80000490:	00000013          	nop
    80000494:	00002617          	auipc	a2,0x2
    80000498:	b6c60613          	addi	a2,a2,-1172 # 80002000 <begin_signature>
    8000049c:	00d602a3          	sb	a3,5(a2)
    800004a0:	00560703          	lb	a4,5(a2)
    800004a4:	fab00393          	li	t2,-85
    800004a8:	16771263          	bne	a4,t2,8000060c <fail>
    800004ac:	00120213          	addi	tp,tp,1 # 1 <_start-0x7fffffff>
    800004b0:	00200293          	li	t0,2
    800004b4:	fc521ae3          	bne	tp,t0,80000488 <test_17+0x8>

00000000800004b8 <test_18>:
    800004b8:	01200193          	li	gp,18
    800004bc:	00000213          	li	tp,0
    800004c0:	00002117          	auipc	sp,0x2
    800004c4:	b4010113          	addi	sp,sp,-1216 # 80002000 <begin_signature>
    800004c8:	03300093          	li	ra,51
    800004cc:	00110023          	sb	ra,0(sp)
    800004d0:	00010703          	lb	a4,0(sp)
    800004d4:	03300393          	li	t2,51
    800004d8:	12771a63          	bne	a4,t2,8000060c <fail>
    800004dc:	00120213          	addi	tp,tp,1 # 1 <_start-0x7fffffff>
    800004e0:	00200293          	li	t0,2
    800004e4:	fc521ee3          	bne	tp,t0,800004c0 <test_18+0x8>

00000000800004e8 <test_19>:
    800004e8:	01300193          	li	gp,19
    800004ec:	00000213          	li	tp,0
    800004f0:	00002117          	auipc	sp,0x2
    800004f4:	b1010113          	addi	sp,sp,-1264 # 80002000 <begin_signature>
    800004f8:	02300093          	li	ra,35
    800004fc:	00000013          	nop
    80000500:	001100a3          	sb	ra,1(sp)
    80000504:	00110703          	lb	a4,1(sp)
    80000508:	02300393          	li	t2,35
    8000050c:	10771063          	bne	a4,t2,8000060c <fail>
    80000510:	00120213          	addi	tp,tp,1 # 1 <_start-0x7fffffff>
    80000514:	00200293          	li	t0,2
    80000518:	fc521ce3          	bne	tp,t0,800004f0 <test_19+0x8>

000000008000051c <test_20>:
    8000051c:	01400193          	li	gp,20
    80000520:	00000213          	li	tp,0
    80000524:	00002117          	auipc	sp,0x2
    80000528:	adc10113          	addi	sp,sp,-1316 # 80002000 <begin_signature>
    8000052c:	02200093          	li	ra,34
    80000530:	00000013          	nop
    80000534:	00000013          	nop
    80000538:	00110123          	sb	ra,2(sp)
    8000053c:	00210703          	lb	a4,2(sp)
    80000540:	02200393          	li	t2,34
    80000544:	0c771463          	bne	a4,t2,8000060c <fail>
    80000548:	00120213          	addi	tp,tp,1 # 1 <_start-0x7fffffff>
    8000054c:	00200293          	li	t0,2
    80000550:	fc521ae3          	bne	tp,t0,80000524 <test_20+0x8>

0000000080000554 <test_21>:
    80000554:	01500193          	li	gp,21
    80000558:	00000213          	li	tp,0
    8000055c:	00002117          	auipc	sp,0x2
    80000560:	aa410113          	addi	sp,sp,-1372 # 80002000 <begin_signature>
    80000564:	00000013          	nop
    80000568:	01200093          	li	ra,18
    8000056c:	001101a3          	sb	ra,3(sp)
    80000570:	00310703          	lb	a4,3(sp)
    80000574:	01200393          	li	t2,18
    80000578:	08771a63          	bne	a4,t2,8000060c <fail>
    8000057c:	00120213          	addi	tp,tp,1 # 1 <_start-0x7fffffff>
    80000580:	00200293          	li	t0,2
    80000584:	fc521ce3          	bne	tp,t0,8000055c <test_21+0x8>

0000000080000588 <test_22>:
    80000588:	01600193          	li	gp,22
    8000058c:	00000213          	li	tp,0
    80000590:	00002117          	auipc	sp,0x2
    80000594:	a7010113          	addi	sp,sp,-1424 # 80002000 <begin_signature>
    80000598:	00000013          	nop
    8000059c:	01100093          	li	ra,17
    800005a0:	00000013          	nop
    800005a4:	00110223          	sb	ra,4(sp)
    800005a8:	00410703          	lb	a4,4(sp)
    800005ac:	01100393          	li	t2,17
    800005b0:	04771e63          	bne	a4,t2,8000060c <fail>
    800005b4:	00120213          	addi	tp,tp,1 # 1 <_start-0x7fffffff>
    800005b8:	00200293          	li	t0,2
    800005bc:	fc521ae3          	bne	tp,t0,80000590 <test_22+0x8>

00000000800005c0 <test_23>:
    800005c0:	01700193          	li	gp,23
    800005c4:	00000213          	li	tp,0
    800005c8:	00002117          	auipc	sp,0x2
    800005cc:	a3810113          	addi	sp,sp,-1480 # 80002000 <begin_signature>
    800005d0:	00000013          	nop
    800005d4:	00000013          	nop
    800005d8:	00100093          	li	ra,1
    800005dc:	001102a3          	sb	ra,5(sp)
    800005e0:	00510703          	lb	a4,5(sp)
    800005e4:	00100393          	li	t2,1
    800005e8:	02771263          	bne	a4,t2,8000060c <fail>
    800005ec:	00120213          	addi	tp,tp,1 # 1 <_start-0x7fffffff>
    800005f0:	00200293          	li	t0,2
    800005f4:	fc521ae3          	bne	tp,t0,800005c8 <test_23+0x8>
    800005f8:	0ef00513          	li	a0,239
    800005fc:	00002597          	auipc	a1,0x2
    80000600:	a0458593          	addi	a1,a1,-1532 # 80002000 <begin_signature>
    80000604:	00a581a3          	sb	a0,3(a1)
    80000608:	02301063          	bne	zero,gp,80000628 <pass>

000000008000060c <fail>:
    8000060c:	0ff0000f          	fence
    80000610:	00018063          	beqz	gp,80000610 <fail+0x4>
    80000614:	00119193          	slli	gp,gp,0x1
    80000618:	0011e193          	ori	gp,gp,1
    8000061c:	05d00893          	li	a7,93
    80000620:	00018513          	mv	a0,gp
    80000624:	00000073          	ecall

0000000080000628 <pass>:
    80000628:	0ff0000f          	fence
    8000062c:	00100193          	li	gp,1
    80000630:	05d00893          	li	a7,93
    80000634:	00000513          	li	a0,0
    80000638:	00000073          	ecall
    8000063c:	c0001073          	unimp
    80000640:	0000                	unimp
    80000642:	0000                	unimp
    80000644:	0000                	unimp
    80000646:	0000                	unimp
    80000648:	0000                	unimp
    8000064a:	0000                	unimp
    8000064c:	0000                	unimp
    8000064e:	0000                	unimp
    80000650:	0000                	unimp
    80000652:	0000                	unimp
    80000654:	0000                	unimp
    80000656:	0000                	unimp
    80000658:	0000                	unimp
    8000065a:	0000                	unimp
    8000065c:	0000                	unimp
    8000065e:	0000                	unimp
    80000660:	0000                	unimp
    80000662:	0000                	unimp
    80000664:	0000                	unimp
    80000666:	0000                	unimp
    80000668:	0000                	unimp
    8000066a:	0000                	unimp
    8000066c:	0000                	unimp
    8000066e:	0000                	unimp
    80000670:	0000                	unimp
