
rv64ui-p-lhu:     file format elf64-littleriscv


Disassembly of section .text.init:

0000000080000000 <_start>:
    80000000:	0540006f          	j	80000054 <reset_vector>

0000000080000004 <trap_vector>:
    80000004:	34202f73          	csrr	t5,mcause
    80000008:	00800f93          	li	t6,8
    8000000c:	03ff0a63          	beq	t5,t6,80000040 <write_tohost>
    80000010:	00900f93          	li	t6,9
    80000014:	03ff0663          	beq	t5,t6,80000040 <write_tohost>
    80000018:	00b00f93          	li	t6,11
    8000001c:	03ff0263          	beq	t5,t6,80000040 <write_tohost>
    80000020:	80000f17          	auipc	t5,0x80000
    80000024:	fe0f0f13          	addi	t5,t5,-32 # 0 <_start-0x80000000>
    80000028:	000f0463          	beqz	t5,80000030 <trap_vector+0x2c>
    8000002c:	000f0067          	jr	t5
    80000030:	34202f73          	csrr	t5,mcause
    80000034:	000f5463          	bgez	t5,8000003c <handle_exception>
    80000038:	0040006f          	j	8000003c <handle_exception>

000000008000003c <handle_exception>:
    8000003c:	5391e193          	ori	gp,gp,1337

0000000080000040 <write_tohost>:
    80000040:	00001f17          	auipc	t5,0x1
    80000044:	fc3f2023          	sw	gp,-64(t5) # 80001000 <tohost>
    80000048:	00001f17          	auipc	t5,0x1
    8000004c:	fa0f2e23          	sw	zero,-68(t5) # 80001004 <tohost+0x4>
    80000050:	ff1ff06f          	j	80000040 <write_tohost>

0000000080000054 <reset_vector>:
    80000054:	00000093          	li	ra,0
    80000058:	00000113          	li	sp,0
    8000005c:	00000193          	li	gp,0
    80000060:	00000213          	li	tp,0
    80000064:	00000293          	li	t0,0
    80000068:	00000313          	li	t1,0
    8000006c:	00000393          	li	t2,0
    80000070:	00000413          	li	s0,0
    80000074:	00000493          	li	s1,0
    80000078:	00000513          	li	a0,0
    8000007c:	00000593          	li	a1,0
    80000080:	00000613          	li	a2,0
    80000084:	00000693          	li	a3,0
    80000088:	00000713          	li	a4,0
    8000008c:	00000793          	li	a5,0
    80000090:	00000813          	li	a6,0
    80000094:	00000893          	li	a7,0
    80000098:	00000913          	li	s2,0
    8000009c:	00000993          	li	s3,0
    800000a0:	00000a13          	li	s4,0
    800000a4:	00000a93          	li	s5,0
    800000a8:	00000b13          	li	s6,0
    800000ac:	00000b93          	li	s7,0
    800000b0:	00000c13          	li	s8,0
    800000b4:	00000c93          	li	s9,0
    800000b8:	00000d13          	li	s10,0
    800000bc:	00000d93          	li	s11,0
    800000c0:	00000e13          	li	t3,0
    800000c4:	00000e93          	li	t4,0
    800000c8:	00000f13          	li	t5,0
    800000cc:	00000f93          	li	t6,0
    800000d0:	f1402573          	csrr	a0,mhartid
    800000d4:	00051063          	bnez	a0,800000d4 <reset_vector+0x80>
    800000d8:	00000297          	auipc	t0,0x0
    800000dc:	01028293          	addi	t0,t0,16 # 800000e8 <reset_vector+0x94>
    800000e0:	30529073          	csrw	mtvec,t0
    800000e4:	74445073          	csrwi	0x744,8
    800000e8:	00000297          	auipc	t0,0x0
    800000ec:	01028293          	addi	t0,t0,16 # 800000f8 <reset_vector+0xa4>
    800000f0:	30529073          	csrw	mtvec,t0
    800000f4:	18005073          	csrwi	sptbr,0
    800000f8:	00000297          	auipc	t0,0x0
    800000fc:	02428293          	addi	t0,t0,36 # 8000011c <reset_vector+0xc8>
    80000100:	30529073          	csrw	mtvec,t0
    80000104:	0010029b          	addiw	t0,zero,1
    80000108:	03529293          	slli	t0,t0,0x35
    8000010c:	fff28293          	addi	t0,t0,-1
    80000110:	3b029073          	csrw	pmpaddr0,t0
    80000114:	01f00293          	li	t0,31
    80000118:	3a029073          	csrw	pmpcfg0,t0
    8000011c:	30405073          	csrwi	mie,0
    80000120:	00000297          	auipc	t0,0x0
    80000124:	01428293          	addi	t0,t0,20 # 80000134 <reset_vector+0xe0>
    80000128:	30529073          	csrw	mtvec,t0
    8000012c:	30205073          	csrwi	medeleg,0
    80000130:	30305073          	csrwi	mideleg,0
    80000134:	00000193          	li	gp,0
    80000138:	00000297          	auipc	t0,0x0
    8000013c:	ecc28293          	addi	t0,t0,-308 # 80000004 <trap_vector>
    80000140:	30529073          	csrw	mtvec,t0
    80000144:	00100513          	li	a0,1
    80000148:	01f51513          	slli	a0,a0,0x1f
    8000014c:	00055c63          	bgez	a0,80000164 <reset_vector+0x110>
    80000150:	0ff0000f          	fence
    80000154:	00100193          	li	gp,1
    80000158:	05d00893          	li	a7,93
    8000015c:	00000513          	li	a0,0
    80000160:	00000073          	ecall
    80000164:	80000297          	auipc	t0,0x80000
    80000168:	e9c28293          	addi	t0,t0,-356 # 0 <_start-0x80000000>
    8000016c:	00028a63          	beqz	t0,80000180 <reset_vector+0x12c>
    80000170:	10529073          	csrw	stvec,t0
    80000174:	0000b2b7          	lui	t0,0xb
    80000178:	1092829b          	addiw	t0,t0,265
    8000017c:	30229073          	csrw	medeleg,t0
    80000180:	30005073          	csrwi	mstatus,0
    80000184:	00000297          	auipc	t0,0x0
    80000188:	01428293          	addi	t0,t0,20 # 80000198 <test_2>
    8000018c:	34129073          	csrw	mepc,t0
    80000190:	f1402573          	csrr	a0,mhartid
    80000194:	30200073          	mret

0000000080000198 <test_2>:
    80000198:	00200193          	li	gp,2
    8000019c:	0ff00793          	li	a5,255
    800001a0:	00002117          	auipc	sp,0x2
    800001a4:	e6010113          	addi	sp,sp,-416 # 80002000 <begin_signature>
    800001a8:	00015703          	lhu	a4,0(sp)
    800001ac:	0ff00393          	li	t2,255
    800001b0:	2a771063          	bne	a4,t2,80000450 <fail>

00000000800001b4 <test_3>:
    800001b4:	00300193          	li	gp,3
    800001b8:	000107b7          	lui	a5,0x10
    800001bc:	f007879b          	addiw	a5,a5,-256
    800001c0:	00002117          	auipc	sp,0x2
    800001c4:	e4010113          	addi	sp,sp,-448 # 80002000 <begin_signature>
    800001c8:	00215703          	lhu	a4,2(sp)
    800001cc:	000103b7          	lui	t2,0x10
    800001d0:	f003839b          	addiw	t2,t2,-256
    800001d4:	26771e63          	bne	a4,t2,80000450 <fail>

00000000800001d8 <test_4>:
    800001d8:	00400193          	li	gp,4
    800001dc:	000017b7          	lui	a5,0x1
    800001e0:	ff07879b          	addiw	a5,a5,-16
    800001e4:	00002117          	auipc	sp,0x2
    800001e8:	e1c10113          	addi	sp,sp,-484 # 80002000 <begin_signature>
    800001ec:	00415703          	lhu	a4,4(sp)
    800001f0:	000013b7          	lui	t2,0x1
    800001f4:	ff03839b          	addiw	t2,t2,-16
    800001f8:	24771c63          	bne	a4,t2,80000450 <fail>

00000000800001fc <test_5>:
    800001fc:	00500193          	li	gp,5
    80000200:	0000f7b7          	lui	a5,0xf
    80000204:	00f7879b          	addiw	a5,a5,15
    80000208:	00002117          	auipc	sp,0x2
    8000020c:	df810113          	addi	sp,sp,-520 # 80002000 <begin_signature>
    80000210:	00615703          	lhu	a4,6(sp)
    80000214:	0000f3b7          	lui	t2,0xf
    80000218:	00f3839b          	addiw	t2,t2,15
    8000021c:	22771a63          	bne	a4,t2,80000450 <fail>

0000000080000220 <test_6>:
    80000220:	00600193          	li	gp,6
    80000224:	0ff00793          	li	a5,255
    80000228:	00002117          	auipc	sp,0x2
    8000022c:	dde10113          	addi	sp,sp,-546 # 80002006 <tdat4>
    80000230:	ffa15703          	lhu	a4,-6(sp)
    80000234:	0ff00393          	li	t2,255
    80000238:	20771c63          	bne	a4,t2,80000450 <fail>

000000008000023c <test_7>:
    8000023c:	00700193          	li	gp,7
    80000240:	000107b7          	lui	a5,0x10
    80000244:	f007879b          	addiw	a5,a5,-256
    80000248:	00002117          	auipc	sp,0x2
    8000024c:	dbe10113          	addi	sp,sp,-578 # 80002006 <tdat4>
    80000250:	ffc15703          	lhu	a4,-4(sp)
    80000254:	000103b7          	lui	t2,0x10
    80000258:	f003839b          	addiw	t2,t2,-256
    8000025c:	1e771a63          	bne	a4,t2,80000450 <fail>

0000000080000260 <test_8>:
    80000260:	00800193          	li	gp,8
    80000264:	000017b7          	lui	a5,0x1
    80000268:	ff07879b          	addiw	a5,a5,-16
    8000026c:	00002117          	auipc	sp,0x2
    80000270:	d9a10113          	addi	sp,sp,-614 # 80002006 <tdat4>
    80000274:	ffe15703          	lhu	a4,-2(sp)
    80000278:	000013b7          	lui	t2,0x1
    8000027c:	ff03839b          	addiw	t2,t2,-16
    80000280:	1c771863          	bne	a4,t2,80000450 <fail>

0000000080000284 <test_9>:
    80000284:	00900193          	li	gp,9
    80000288:	0000f7b7          	lui	a5,0xf
    8000028c:	00f7879b          	addiw	a5,a5,15
    80000290:	00002117          	auipc	sp,0x2
    80000294:	d7610113          	addi	sp,sp,-650 # 80002006 <tdat4>
    80000298:	00015703          	lhu	a4,0(sp)
    8000029c:	0000f3b7          	lui	t2,0xf
    800002a0:	00f3839b          	addiw	t2,t2,15
    800002a4:	1a771663          	bne	a4,t2,80000450 <fail>

00000000800002a8 <test_10>:
    800002a8:	00a00193          	li	gp,10
    800002ac:	00002097          	auipc	ra,0x2
    800002b0:	d5408093          	addi	ra,ra,-684 # 80002000 <begin_signature>
    800002b4:	fe008093          	addi	ra,ra,-32
    800002b8:	0200d283          	lhu	t0,32(ra)
    800002bc:	0ff00393          	li	t2,255
    800002c0:	18729863          	bne	t0,t2,80000450 <fail>

00000000800002c4 <test_11>:
    800002c4:	00b00193          	li	gp,11
    800002c8:	00002097          	auipc	ra,0x2
    800002cc:	d3808093          	addi	ra,ra,-712 # 80002000 <begin_signature>
    800002d0:	ffb08093          	addi	ra,ra,-5
    800002d4:	0070d283          	lhu	t0,7(ra)
    800002d8:	000103b7          	lui	t2,0x10
    800002dc:	f003839b          	addiw	t2,t2,-256
    800002e0:	16729863          	bne	t0,t2,80000450 <fail>

00000000800002e4 <test_12>:
    800002e4:	00c00193          	li	gp,12
    800002e8:	00000213          	li	tp,0
    800002ec:	00002697          	auipc	a3,0x2
    800002f0:	d1668693          	addi	a3,a3,-746 # 80002002 <tdat2>
    800002f4:	0026d703          	lhu	a4,2(a3)
    800002f8:	00070313          	mv	t1,a4
    800002fc:	000013b7          	lui	t2,0x1
    80000300:	ff03839b          	addiw	t2,t2,-16
    80000304:	14731663          	bne	t1,t2,80000450 <fail>
    80000308:	00120213          	addi	tp,tp,1 # 1 <_start-0x7fffffff>
    8000030c:	00200293          	li	t0,2
    80000310:	fc521ee3          	bne	tp,t0,800002ec <test_12+0x8>

0000000080000314 <test_13>:
    80000314:	00d00193          	li	gp,13
    80000318:	00000213          	li	tp,0
    8000031c:	00002697          	auipc	a3,0x2
    80000320:	ce868693          	addi	a3,a3,-792 # 80002004 <tdat3>
    80000324:	0026d703          	lhu	a4,2(a3)
    80000328:	00000013          	nop
    8000032c:	00070313          	mv	t1,a4
    80000330:	0000f3b7          	lui	t2,0xf
    80000334:	00f3839b          	addiw	t2,t2,15
    80000338:	10731c63          	bne	t1,t2,80000450 <fail>
    8000033c:	00120213          	addi	tp,tp,1 # 1 <_start-0x7fffffff>
    80000340:	00200293          	li	t0,2
    80000344:	fc521ce3          	bne	tp,t0,8000031c <test_13+0x8>

0000000080000348 <test_14>:
    80000348:	00e00193          	li	gp,14
    8000034c:	00000213          	li	tp,0
    80000350:	00002697          	auipc	a3,0x2
    80000354:	cb068693          	addi	a3,a3,-848 # 80002000 <begin_signature>
    80000358:	0026d703          	lhu	a4,2(a3)
    8000035c:	00000013          	nop
    80000360:	00000013          	nop
    80000364:	00070313          	mv	t1,a4
    80000368:	000103b7          	lui	t2,0x10
    8000036c:	f003839b          	addiw	t2,t2,-256
    80000370:	0e731063          	bne	t1,t2,80000450 <fail>
    80000374:	00120213          	addi	tp,tp,1 # 1 <_start-0x7fffffff>
    80000378:	00200293          	li	t0,2
    8000037c:	fc521ae3          	bne	tp,t0,80000350 <test_14+0x8>

0000000080000380 <test_15>:
    80000380:	00f00193          	li	gp,15
    80000384:	00000213          	li	tp,0
    80000388:	00002697          	auipc	a3,0x2
    8000038c:	c7a68693          	addi	a3,a3,-902 # 80002002 <tdat2>
    80000390:	0026d703          	lhu	a4,2(a3)
    80000394:	000013b7          	lui	t2,0x1
    80000398:	ff03839b          	addiw	t2,t2,-16
    8000039c:	0a771a63          	bne	a4,t2,80000450 <fail>
    800003a0:	00120213          	addi	tp,tp,1 # 1 <_start-0x7fffffff>
    800003a4:	00200293          	li	t0,2
    800003a8:	fe5210e3          	bne	tp,t0,80000388 <test_15+0x8>

00000000800003ac <test_16>:
    800003ac:	01000193          	li	gp,16
    800003b0:	00000213          	li	tp,0
    800003b4:	00002697          	auipc	a3,0x2
    800003b8:	c5068693          	addi	a3,a3,-944 # 80002004 <tdat3>
    800003bc:	00000013          	nop
    800003c0:	0026d703          	lhu	a4,2(a3)
    800003c4:	0000f3b7          	lui	t2,0xf
    800003c8:	00f3839b          	addiw	t2,t2,15
    800003cc:	08771263          	bne	a4,t2,80000450 <fail>
    800003d0:	00120213          	addi	tp,tp,1 # 1 <_start-0x7fffffff>
    800003d4:	00200293          	li	t0,2
    800003d8:	fc521ee3          	bne	tp,t0,800003b4 <test_16+0x8>

00000000800003dc <test_17>:
    800003dc:	01100193          	li	gp,17
    800003e0:	00000213          	li	tp,0
    800003e4:	00002697          	auipc	a3,0x2
    800003e8:	c1c68693          	addi	a3,a3,-996 # 80002000 <begin_signature>
    800003ec:	00000013          	nop
    800003f0:	00000013          	nop
    800003f4:	0026d703          	lhu	a4,2(a3)
    800003f8:	000103b7          	lui	t2,0x10
    800003fc:	f003839b          	addiw	t2,t2,-256
    80000400:	04771863          	bne	a4,t2,80000450 <fail>
    80000404:	00120213          	addi	tp,tp,1 # 1 <_start-0x7fffffff>
    80000408:	00200293          	li	t0,2
    8000040c:	fc521ce3          	bne	tp,t0,800003e4 <test_17+0x8>

0000000080000410 <test_18>:
    80000410:	01200193          	li	gp,18
    80000414:	00002297          	auipc	t0,0x2
    80000418:	bec28293          	addi	t0,t0,-1044 # 80002000 <begin_signature>
    8000041c:	0002d103          	lhu	sp,0(t0)
    80000420:	00200113          	li	sp,2
    80000424:	00200393          	li	t2,2
    80000428:	02711463          	bne	sp,t2,80000450 <fail>

000000008000042c <test_19>:
    8000042c:	01300193          	li	gp,19
    80000430:	00002297          	auipc	t0,0x2
    80000434:	bd028293          	addi	t0,t0,-1072 # 80002000 <begin_signature>
    80000438:	0002d103          	lhu	sp,0(t0)
    8000043c:	00000013          	nop
    80000440:	00200113          	li	sp,2
    80000444:	00200393          	li	t2,2
    80000448:	00711463          	bne	sp,t2,80000450 <fail>
    8000044c:	02301063          	bne	zero,gp,8000046c <pass>

0000000080000450 <fail>:
    80000450:	0ff0000f          	fence
    80000454:	00018063          	beqz	gp,80000454 <fail+0x4>
    80000458:	00119193          	slli	gp,gp,0x1
    8000045c:	0011e193          	ori	gp,gp,1
    80000460:	05d00893          	li	a7,93
    80000464:	00018513          	mv	a0,gp
    80000468:	00000073          	ecall

000000008000046c <pass>:
    8000046c:	0ff0000f          	fence
    80000470:	00100193          	li	gp,1
    80000474:	05d00893          	li	a7,93
    80000478:	00000513          	li	a0,0
    8000047c:	00000073          	ecall
    80000480:	c0001073          	unimp
    80000484:	0000                	unimp
    80000486:	0000                	unimp
    80000488:	0000                	unimp
    8000048a:	0000                	unimp
    8000048c:	0000                	unimp
    8000048e:	0000                	unimp
    80000490:	0000                	unimp
    80000492:	0000                	unimp
    80000494:	0000                	unimp
    80000496:	0000                	unimp
    80000498:	0000                	unimp
    8000049a:	0000                	unimp
    8000049c:	0000                	unimp
    8000049e:	0000                	unimp
    800004a0:	0000                	unimp
    800004a2:	0000                	unimp
    800004a4:	0000                	unimp
    800004a6:	0000                	unimp
    800004a8:	0000                	unimp
    800004aa:	0000                	unimp
    800004ac:	0000                	unimp
    800004ae:	0000                	unimp
    800004b0:	0000                	unimp
