
rv64ud-p-fmadd:     file format elf64-littleriscv


Disassembly of section .text.init:

0000000080000000 <_start>:
    80000000:	0540006f          	j	80000054 <reset_vector>

0000000080000004 <trap_vector>:
    80000004:	34202f73          	csrr	t5,mcause
    80000008:	00800f93          	li	t6,8
    8000000c:	03ff0a63          	beq	t5,t6,80000040 <write_tohost>
    80000010:	00900f93          	li	t6,9
    80000014:	03ff0663          	beq	t5,t6,80000040 <write_tohost>
    80000018:	00b00f93          	li	t6,11
    8000001c:	03ff0263          	beq	t5,t6,80000040 <write_tohost>
    80000020:	80000f17          	auipc	t5,0x80000
    80000024:	fe0f0f13          	addi	t5,t5,-32 # 0 <_start-0x80000000>
    80000028:	000f0463          	beqz	t5,80000030 <trap_vector+0x2c>
    8000002c:	000f0067          	jr	t5
    80000030:	34202f73          	csrr	t5,mcause
    80000034:	000f5463          	bgez	t5,8000003c <handle_exception>
    80000038:	0040006f          	j	8000003c <handle_exception>

000000008000003c <handle_exception>:
    8000003c:	5391e193          	ori	gp,gp,1337

0000000080000040 <write_tohost>:
    80000040:	00001f17          	auipc	t5,0x1
    80000044:	fc3f2023          	sw	gp,-64(t5) # 80001000 <tohost>
    80000048:	00001f17          	auipc	t5,0x1
    8000004c:	fa0f2e23          	sw	zero,-68(t5) # 80001004 <tohost+0x4>
    80000050:	ff1ff06f          	j	80000040 <write_tohost>

0000000080000054 <reset_vector>:
    80000054:	00000093          	li	ra,0
    80000058:	00000113          	li	sp,0
    8000005c:	00000193          	li	gp,0
    80000060:	00000213          	li	tp,0
    80000064:	00000293          	li	t0,0
    80000068:	00000313          	li	t1,0
    8000006c:	00000393          	li	t2,0
    80000070:	00000413          	li	s0,0
    80000074:	00000493          	li	s1,0
    80000078:	00000513          	li	a0,0
    8000007c:	00000593          	li	a1,0
    80000080:	00000613          	li	a2,0
    80000084:	00000693          	li	a3,0
    80000088:	00000713          	li	a4,0
    8000008c:	00000793          	li	a5,0
    80000090:	00000813          	li	a6,0
    80000094:	00000893          	li	a7,0
    80000098:	00000913          	li	s2,0
    8000009c:	00000993          	li	s3,0
    800000a0:	00000a13          	li	s4,0
    800000a4:	00000a93          	li	s5,0
    800000a8:	00000b13          	li	s6,0
    800000ac:	00000b93          	li	s7,0
    800000b0:	00000c13          	li	s8,0
    800000b4:	00000c93          	li	s9,0
    800000b8:	00000d13          	li	s10,0
    800000bc:	00000d93          	li	s11,0
    800000c0:	00000e13          	li	t3,0
    800000c4:	00000e93          	li	t4,0
    800000c8:	00000f13          	li	t5,0
    800000cc:	00000f93          	li	t6,0
    800000d0:	f1402573          	csrr	a0,mhartid
    800000d4:	00051063          	bnez	a0,800000d4 <reset_vector+0x80>
    800000d8:	00000297          	auipc	t0,0x0
    800000dc:	01028293          	addi	t0,t0,16 # 800000e8 <reset_vector+0x94>
    800000e0:	30529073          	csrw	mtvec,t0
    800000e4:	74445073          	csrwi	0x744,8
    800000e8:	00000297          	auipc	t0,0x0
    800000ec:	01028293          	addi	t0,t0,16 # 800000f8 <reset_vector+0xa4>
    800000f0:	30529073          	csrw	mtvec,t0
    800000f4:	18005073          	csrwi	sptbr,0
    800000f8:	00000297          	auipc	t0,0x0
    800000fc:	02428293          	addi	t0,t0,36 # 8000011c <reset_vector+0xc8>
    80000100:	30529073          	csrw	mtvec,t0
    80000104:	0010029b          	addiw	t0,zero,1
    80000108:	03529293          	slli	t0,t0,0x35
    8000010c:	fff28293          	addi	t0,t0,-1
    80000110:	3b029073          	csrw	pmpaddr0,t0
    80000114:	01f00293          	li	t0,31
    80000118:	3a029073          	csrw	pmpcfg0,t0
    8000011c:	30405073          	csrwi	mie,0
    80000120:	00000297          	auipc	t0,0x0
    80000124:	01428293          	addi	t0,t0,20 # 80000134 <reset_vector+0xe0>
    80000128:	30529073          	csrw	mtvec,t0
    8000012c:	30205073          	csrwi	medeleg,0
    80000130:	30305073          	csrwi	mideleg,0
    80000134:	00000193          	li	gp,0
    80000138:	00000297          	auipc	t0,0x0
    8000013c:	ecc28293          	addi	t0,t0,-308 # 80000004 <trap_vector>
    80000140:	30529073          	csrw	mtvec,t0
    80000144:	00100513          	li	a0,1
    80000148:	01f51513          	slli	a0,a0,0x1f
    8000014c:	00055c63          	bgez	a0,80000164 <reset_vector+0x110>
    80000150:	0ff0000f          	fence
    80000154:	00100193          	li	gp,1
    80000158:	05d00893          	li	a7,93
    8000015c:	00000513          	li	a0,0
    80000160:	00000073          	ecall
    80000164:	80000297          	auipc	t0,0x80000
    80000168:	e9c28293          	addi	t0,t0,-356 # 0 <_start-0x80000000>
    8000016c:	00028a63          	beqz	t0,80000180 <reset_vector+0x12c>
    80000170:	10529073          	csrw	stvec,t0
    80000174:	0000b2b7          	lui	t0,0xb
    80000178:	1092829b          	addiw	t0,t0,265
    8000017c:	30229073          	csrw	medeleg,t0
    80000180:	30005073          	csrwi	mstatus,0
    80000184:	00002537          	lui	a0,0x2
    80000188:	30052073          	csrs	mstatus,a0
    8000018c:	00305073          	csrwi	fcsr,0
    80000190:	00000297          	auipc	t0,0x0
    80000194:	01428293          	addi	t0,t0,20 # 800001a4 <test_2>
    80000198:	34129073          	csrw	mepc,t0
    8000019c:	f1402573          	csrr	a0,mhartid
    800001a0:	30200073          	mret

00000000800001a4 <test_2>:
    800001a4:	00200193          	li	gp,2
    800001a8:	00002517          	auipc	a0,0x2
    800001ac:	e5850513          	addi	a0,a0,-424 # 80002000 <test_2_data>
    800001b0:	00053507          	fld	fa0,0(a0)
    800001b4:	00853587          	fld	fa1,8(a0)
    800001b8:	01053607          	fld	fa2,16(a0)
    800001bc:	01853683          	ld	a3,24(a0)
    800001c0:	62b576c3          	fmadd.d	fa3,fa0,fa1,fa2
    800001c4:	e2068553          	fmv.x.d	a0,fa3
    800001c8:	001015f3          	fsflags	a1,zero
    800001cc:	00000613          	li	a2,0
    800001d0:	24d51463          	bne	a0,a3,80000418 <fail>
    800001d4:	24c59263          	bne	a1,a2,80000418 <fail>

00000000800001d8 <test_3>:
    800001d8:	00300193          	li	gp,3
    800001dc:	00002517          	auipc	a0,0x2
    800001e0:	e4450513          	addi	a0,a0,-444 # 80002020 <test_3_data>
    800001e4:	00053507          	fld	fa0,0(a0)
    800001e8:	00853587          	fld	fa1,8(a0)
    800001ec:	01053607          	fld	fa2,16(a0)
    800001f0:	01853683          	ld	a3,24(a0)
    800001f4:	62b576c3          	fmadd.d	fa3,fa0,fa1,fa2
    800001f8:	e2068553          	fmv.x.d	a0,fa3
    800001fc:	001015f3          	fsflags	a1,zero
    80000200:	00100613          	li	a2,1
    80000204:	20d51a63          	bne	a0,a3,80000418 <fail>
    80000208:	20c59863          	bne	a1,a2,80000418 <fail>

000000008000020c <test_4>:
    8000020c:	00400193          	li	gp,4
    80000210:	00002517          	auipc	a0,0x2
    80000214:	e3050513          	addi	a0,a0,-464 # 80002040 <test_4_data>
    80000218:	00053507          	fld	fa0,0(a0)
    8000021c:	00853587          	fld	fa1,8(a0)
    80000220:	01053607          	fld	fa2,16(a0)
    80000224:	01853683          	ld	a3,24(a0)
    80000228:	62b576c3          	fmadd.d	fa3,fa0,fa1,fa2
    8000022c:	e2068553          	fmv.x.d	a0,fa3
    80000230:	001015f3          	fsflags	a1,zero
    80000234:	00000613          	li	a2,0
    80000238:	1ed51063          	bne	a0,a3,80000418 <fail>
    8000023c:	1cc59e63          	bne	a1,a2,80000418 <fail>

0000000080000240 <test_5>:
    80000240:	00500193          	li	gp,5
    80000244:	00002517          	auipc	a0,0x2
    80000248:	e1c50513          	addi	a0,a0,-484 # 80002060 <test_5_data>
    8000024c:	00053507          	fld	fa0,0(a0)
    80000250:	00853587          	fld	fa1,8(a0)
    80000254:	01053607          	fld	fa2,16(a0)
    80000258:	01853683          	ld	a3,24(a0)
    8000025c:	62b576cf          	fnmadd.d	fa3,fa0,fa1,fa2
    80000260:	e2068553          	fmv.x.d	a0,fa3
    80000264:	001015f3          	fsflags	a1,zero
    80000268:	00000613          	li	a2,0
    8000026c:	1ad51663          	bne	a0,a3,80000418 <fail>
    80000270:	1ac59463          	bne	a1,a2,80000418 <fail>

0000000080000274 <test_6>:
    80000274:	00600193          	li	gp,6
    80000278:	00002517          	auipc	a0,0x2
    8000027c:	e0850513          	addi	a0,a0,-504 # 80002080 <test_6_data>
    80000280:	00053507          	fld	fa0,0(a0)
    80000284:	00853587          	fld	fa1,8(a0)
    80000288:	01053607          	fld	fa2,16(a0)
    8000028c:	01853683          	ld	a3,24(a0)
    80000290:	62b576cf          	fnmadd.d	fa3,fa0,fa1,fa2
    80000294:	e2068553          	fmv.x.d	a0,fa3
    80000298:	001015f3          	fsflags	a1,zero
    8000029c:	00100613          	li	a2,1
    800002a0:	16d51c63          	bne	a0,a3,80000418 <fail>
    800002a4:	16c59a63          	bne	a1,a2,80000418 <fail>

00000000800002a8 <test_7>:
    800002a8:	00700193          	li	gp,7
    800002ac:	00002517          	auipc	a0,0x2
    800002b0:	df450513          	addi	a0,a0,-524 # 800020a0 <test_7_data>
    800002b4:	00053507          	fld	fa0,0(a0)
    800002b8:	00853587          	fld	fa1,8(a0)
    800002bc:	01053607          	fld	fa2,16(a0)
    800002c0:	01853683          	ld	a3,24(a0)
    800002c4:	62b576cf          	fnmadd.d	fa3,fa0,fa1,fa2
    800002c8:	e2068553          	fmv.x.d	a0,fa3
    800002cc:	001015f3          	fsflags	a1,zero
    800002d0:	00000613          	li	a2,0
    800002d4:	14d51263          	bne	a0,a3,80000418 <fail>
    800002d8:	14c59063          	bne	a1,a2,80000418 <fail>

00000000800002dc <test_8>:
    800002dc:	00800193          	li	gp,8
    800002e0:	00002517          	auipc	a0,0x2
    800002e4:	de050513          	addi	a0,a0,-544 # 800020c0 <test_8_data>
    800002e8:	00053507          	fld	fa0,0(a0)
    800002ec:	00853587          	fld	fa1,8(a0)
    800002f0:	01053607          	fld	fa2,16(a0)
    800002f4:	01853683          	ld	a3,24(a0)
    800002f8:	62b576c7          	fmsub.d	fa3,fa0,fa1,fa2
    800002fc:	e2068553          	fmv.x.d	a0,fa3
    80000300:	001015f3          	fsflags	a1,zero
    80000304:	00000613          	li	a2,0
    80000308:	10d51863          	bne	a0,a3,80000418 <fail>
    8000030c:	10c59663          	bne	a1,a2,80000418 <fail>

0000000080000310 <test_9>:
    80000310:	00900193          	li	gp,9
    80000314:	00002517          	auipc	a0,0x2
    80000318:	dcc50513          	addi	a0,a0,-564 # 800020e0 <test_9_data>
    8000031c:	00053507          	fld	fa0,0(a0)
    80000320:	00853587          	fld	fa1,8(a0)
    80000324:	01053607          	fld	fa2,16(a0)
    80000328:	01853683          	ld	a3,24(a0)
    8000032c:	62b576c7          	fmsub.d	fa3,fa0,fa1,fa2
    80000330:	e2068553          	fmv.x.d	a0,fa3
    80000334:	001015f3          	fsflags	a1,zero
    80000338:	00100613          	li	a2,1
    8000033c:	0cd51e63          	bne	a0,a3,80000418 <fail>
    80000340:	0cc59c63          	bne	a1,a2,80000418 <fail>

0000000080000344 <test_10>:
    80000344:	00a00193          	li	gp,10
    80000348:	00002517          	auipc	a0,0x2
    8000034c:	db850513          	addi	a0,a0,-584 # 80002100 <test_10_data>
    80000350:	00053507          	fld	fa0,0(a0)
    80000354:	00853587          	fld	fa1,8(a0)
    80000358:	01053607          	fld	fa2,16(a0)
    8000035c:	01853683          	ld	a3,24(a0)
    80000360:	62b576c7          	fmsub.d	fa3,fa0,fa1,fa2
    80000364:	e2068553          	fmv.x.d	a0,fa3
    80000368:	001015f3          	fsflags	a1,zero
    8000036c:	00000613          	li	a2,0
    80000370:	0ad51463          	bne	a0,a3,80000418 <fail>
    80000374:	0ac59263          	bne	a1,a2,80000418 <fail>

0000000080000378 <test_11>:
    80000378:	00b00193          	li	gp,11
    8000037c:	00002517          	auipc	a0,0x2
    80000380:	da450513          	addi	a0,a0,-604 # 80002120 <test_11_data>
    80000384:	00053507          	fld	fa0,0(a0)
    80000388:	00853587          	fld	fa1,8(a0)
    8000038c:	01053607          	fld	fa2,16(a0)
    80000390:	01853683          	ld	a3,24(a0)
    80000394:	62b576cb          	fnmsub.d	fa3,fa0,fa1,fa2
    80000398:	e2068553          	fmv.x.d	a0,fa3
    8000039c:	001015f3          	fsflags	a1,zero
    800003a0:	00000613          	li	a2,0
    800003a4:	06d51a63          	bne	a0,a3,80000418 <fail>
    800003a8:	06c59863          	bne	a1,a2,80000418 <fail>

00000000800003ac <test_12>:
    800003ac:	00c00193          	li	gp,12
    800003b0:	00002517          	auipc	a0,0x2
    800003b4:	d9050513          	addi	a0,a0,-624 # 80002140 <test_12_data>
    800003b8:	00053507          	fld	fa0,0(a0)
    800003bc:	00853587          	fld	fa1,8(a0)
    800003c0:	01053607          	fld	fa2,16(a0)
    800003c4:	01853683          	ld	a3,24(a0)
    800003c8:	62b576cb          	fnmsub.d	fa3,fa0,fa1,fa2
    800003cc:	e2068553          	fmv.x.d	a0,fa3
    800003d0:	001015f3          	fsflags	a1,zero
    800003d4:	00100613          	li	a2,1
    800003d8:	04d51063          	bne	a0,a3,80000418 <fail>
    800003dc:	02c59e63          	bne	a1,a2,80000418 <fail>

00000000800003e0 <test_13>:
    800003e0:	00d00193          	li	gp,13
    800003e4:	00002517          	auipc	a0,0x2
    800003e8:	d7c50513          	addi	a0,a0,-644 # 80002160 <test_13_data>
    800003ec:	00053507          	fld	fa0,0(a0)
    800003f0:	00853587          	fld	fa1,8(a0)
    800003f4:	01053607          	fld	fa2,16(a0)
    800003f8:	01853683          	ld	a3,24(a0)
    800003fc:	62b576cb          	fnmsub.d	fa3,fa0,fa1,fa2
    80000400:	e2068553          	fmv.x.d	a0,fa3
    80000404:	001015f3          	fsflags	a1,zero
    80000408:	00000613          	li	a2,0
    8000040c:	00d51663          	bne	a0,a3,80000418 <fail>
    80000410:	00c59463          	bne	a1,a2,80000418 <fail>
    80000414:	02301063          	bne	zero,gp,80000434 <pass>

0000000080000418 <fail>:
    80000418:	0ff0000f          	fence
    8000041c:	00018063          	beqz	gp,8000041c <fail+0x4>
    80000420:	00119193          	slli	gp,gp,0x1
    80000424:	0011e193          	ori	gp,gp,1
    80000428:	05d00893          	li	a7,93
    8000042c:	00018513          	mv	a0,gp
    80000430:	00000073          	ecall

0000000080000434 <pass>:
    80000434:	0ff0000f          	fence
    80000438:	00100193          	li	gp,1
    8000043c:	05d00893          	li	a7,93
    80000440:	00000513          	li	a0,0
    80000444:	00000073          	ecall
    80000448:	c0001073          	unimp
    8000044c:	0000                	unimp
    8000044e:	0000                	unimp
    80000450:	0000                	unimp
    80000452:	0000                	unimp
    80000454:	0000                	unimp
    80000456:	0000                	unimp
    80000458:	0000                	unimp
    8000045a:	0000                	unimp
    8000045c:	0000                	unimp
    8000045e:	0000                	unimp
    80000460:	0000                	unimp
    80000462:	0000                	unimp
    80000464:	0000                	unimp
    80000466:	0000                	unimp
    80000468:	0000                	unimp
    8000046a:	0000                	unimp
    8000046c:	0000                	unimp
    8000046e:	0000                	unimp
    80000470:	0000                	unimp
