
rv64mi-p-ld-misaligned:     file format elf64-littleriscv


Disassembly of section .text.init:

0000000080000000 <_start>:
    80000000:	0540006f          	j	80000054 <reset_vector>

0000000080000004 <trap_vector>:
    80000004:	34202f73          	csrr	t5,mcause
    80000008:	00800f93          	li	t6,8
    8000000c:	03ff0a63          	beq	t5,t6,80000040 <write_tohost>
    80000010:	00900f93          	li	t6,9
    80000014:	03ff0663          	beq	t5,t6,80000040 <write_tohost>
    80000018:	00b00f93          	li	t6,11
    8000001c:	03ff0263          	beq	t5,t6,80000040 <write_tohost>
    80000020:	00000f17          	auipc	t5,0x0
    80000024:	408f0f13          	addi	t5,t5,1032 # 80000428 <mtvec_handler>
    80000028:	000f0463          	beqz	t5,80000030 <trap_vector+0x2c>
    8000002c:	000f0067          	jr	t5
    80000030:	34202f73          	csrr	t5,mcause
    80000034:	000f5463          	bgez	t5,8000003c <handle_exception>
    80000038:	0040006f          	j	8000003c <handle_exception>

000000008000003c <handle_exception>:
    8000003c:	5391e193          	ori	gp,gp,1337

0000000080000040 <write_tohost>:
    80000040:	00001f17          	auipc	t5,0x1
    80000044:	fc3f2023          	sw	gp,-64(t5) # 80001000 <tohost>
    80000048:	00001f17          	auipc	t5,0x1
    8000004c:	fa0f2e23          	sw	zero,-68(t5) # 80001004 <tohost+0x4>
    80000050:	ff1ff06f          	j	80000040 <write_tohost>

0000000080000054 <reset_vector>:
    80000054:	00000093          	li	ra,0
    80000058:	00000113          	li	sp,0
    8000005c:	00000193          	li	gp,0
    80000060:	00000213          	li	tp,0
    80000064:	00000293          	li	t0,0
    80000068:	00000313          	li	t1,0
    8000006c:	00000393          	li	t2,0
    80000070:	00000413          	li	s0,0
    80000074:	00000493          	li	s1,0
    80000078:	00000513          	li	a0,0
    8000007c:	00000593          	li	a1,0
    80000080:	00000613          	li	a2,0
    80000084:	00000693          	li	a3,0
    80000088:	00000713          	li	a4,0
    8000008c:	00000793          	li	a5,0
    80000090:	00000813          	li	a6,0
    80000094:	00000893          	li	a7,0
    80000098:	00000913          	li	s2,0
    8000009c:	00000993          	li	s3,0
    800000a0:	00000a13          	li	s4,0
    800000a4:	00000a93          	li	s5,0
    800000a8:	00000b13          	li	s6,0
    800000ac:	00000b93          	li	s7,0
    800000b0:	00000c13          	li	s8,0
    800000b4:	00000c93          	li	s9,0
    800000b8:	00000d13          	li	s10,0
    800000bc:	00000d93          	li	s11,0
    800000c0:	00000e13          	li	t3,0
    800000c4:	00000e93          	li	t4,0
    800000c8:	00000f13          	li	t5,0
    800000cc:	00000f93          	li	t6,0
    800000d0:	f1402573          	csrr	a0,mhartid
    800000d4:	00051063          	bnez	a0,800000d4 <reset_vector+0x80>
    800000d8:	00000297          	auipc	t0,0x0
    800000dc:	01028293          	addi	t0,t0,16 # 800000e8 <reset_vector+0x94>
    800000e0:	30529073          	csrw	mtvec,t0
    800000e4:	74445073          	csrwi	0x744,8
    800000e8:	00000297          	auipc	t0,0x0
    800000ec:	01028293          	addi	t0,t0,16 # 800000f8 <reset_vector+0xa4>
    800000f0:	30529073          	csrw	mtvec,t0
    800000f4:	18005073          	csrwi	sptbr,0
    800000f8:	00000297          	auipc	t0,0x0
    800000fc:	02428293          	addi	t0,t0,36 # 8000011c <reset_vector+0xc8>
    80000100:	30529073          	csrw	mtvec,t0
    80000104:	0010029b          	addiw	t0,zero,1
    80000108:	03529293          	slli	t0,t0,0x35
    8000010c:	fff28293          	addi	t0,t0,-1
    80000110:	3b029073          	csrw	pmpaddr0,t0
    80000114:	01f00293          	li	t0,31
    80000118:	3a029073          	csrw	pmpcfg0,t0
    8000011c:	30405073          	csrwi	mie,0
    80000120:	00000297          	auipc	t0,0x0
    80000124:	01428293          	addi	t0,t0,20 # 80000134 <reset_vector+0xe0>
    80000128:	30529073          	csrw	mtvec,t0
    8000012c:	30205073          	csrwi	medeleg,0
    80000130:	30305073          	csrwi	mideleg,0
    80000134:	00000193          	li	gp,0
    80000138:	00000297          	auipc	t0,0x0
    8000013c:	ecc28293          	addi	t0,t0,-308 # 80000004 <trap_vector>
    80000140:	30529073          	csrw	mtvec,t0
    80000144:	00100513          	li	a0,1
    80000148:	01f51513          	slli	a0,a0,0x1f
    8000014c:	00055c63          	bgez	a0,80000164 <reset_vector+0x110>
    80000150:	0ff0000f          	fence
    80000154:	00100193          	li	gp,1
    80000158:	05d00893          	li	a7,93
    8000015c:	00000513          	li	a0,0
    80000160:	00000073          	ecall
    80000164:	80000297          	auipc	t0,0x80000
    80000168:	e9c28293          	addi	t0,t0,-356 # 0 <_start-0x80000000>
    8000016c:	00028a63          	beqz	t0,80000180 <reset_vector+0x12c>
    80000170:	10529073          	csrw	stvec,t0
    80000174:	0000b2b7          	lui	t0,0xb
    80000178:	1092829b          	addiw	t0,t0,265
    8000017c:	30229073          	csrw	medeleg,t0
    80000180:	30005073          	csrwi	mstatus,0
    80000184:	00002537          	lui	a0,0x2
    80000188:	8005051b          	addiw	a0,a0,-2048
    8000018c:	30052073          	csrs	mstatus,a0
    80000190:	00000297          	auipc	t0,0x0
    80000194:	01428293          	addi	t0,t0,20 # 800001a4 <test_2>
    80000198:	34129073          	csrw	mepc,t0
    8000019c:	f1402573          	csrr	a0,mhartid
    800001a0:	30200073          	mret

00000000800001a4 <test_2>:
    800001a4:	00200193          	li	gp,2
    800001a8:	080707b7          	lui	a5,0x8070
    800001ac:	6057879b          	addiw	a5,a5,1541
    800001b0:	01079793          	slli	a5,a5,0x10
    800001b4:	40378793          	addi	a5,a5,1027 # 8070403 <_start-0x77f8fbfd>
    800001b8:	01079793          	slli	a5,a5,0x10
    800001bc:	20178793          	addi	a5,a5,513
    800001c0:	00002117          	auipc	sp,0x2
    800001c4:	e4010113          	addi	sp,sp,-448 # 80002000 <begin_signature>
    800001c8:	00013703          	ld	a4,0(sp)
    800001cc:	080703b7          	lui	t2,0x8070
    800001d0:	6053839b          	addiw	t2,t2,1541
    800001d4:	01039393          	slli	t2,t2,0x10
    800001d8:	40338393          	addi	t2,t2,1027 # 8070403 <_start-0x77f8fbfd>
    800001dc:	01039393          	slli	t2,t2,0x10
    800001e0:	20138393          	addi	t2,t2,513
    800001e4:	20771a63          	bne	a4,t2,800003f8 <fail>

00000000800001e8 <test_3>:
    800001e8:	00300193          	li	gp,3
    800001ec:	048407b7          	lui	a5,0x4840
    800001f0:	3837879b          	addiw	a5,a5,899
    800001f4:	00f79793          	slli	a5,a5,0xf
    800001f8:	14178793          	addi	a5,a5,321 # 4840141 <_start-0x7b7bfebf>
    800001fc:	01279793          	slli	a5,a5,0x12
    80000200:	30278793          	addi	a5,a5,770
    80000204:	00002117          	auipc	sp,0x2
    80000208:	dfc10113          	addi	sp,sp,-516 # 80002000 <begin_signature>
    8000020c:	00113703          	ld	a4,1(sp)
    80000210:	048403b7          	lui	t2,0x4840
    80000214:	3833839b          	addiw	t2,t2,899
    80000218:	00f39393          	slli	t2,t2,0xf
    8000021c:	14138393          	addi	t2,t2,321 # 4840141 <_start-0x7b7bfebf>
    80000220:	01239393          	slli	t2,t2,0x12
    80000224:	30238393          	addi	t2,t2,770
    80000228:	1c771863          	bne	a4,t2,800003f8 <fail>

000000008000022c <test_4>:
    8000022c:	00400193          	li	gp,4
    80000230:	0a0917b7          	lui	a5,0xa091
    80000234:	8077879b          	addiw	a5,a5,-2041
    80000238:	01079793          	slli	a5,a5,0x10
    8000023c:	60578793          	addi	a5,a5,1541 # a091605 <_start-0x75f6e9fb>
    80000240:	01079793          	slli	a5,a5,0x10
    80000244:	40378793          	addi	a5,a5,1027
    80000248:	00002117          	auipc	sp,0x2
    8000024c:	db810113          	addi	sp,sp,-584 # 80002000 <begin_signature>
    80000250:	00213703          	ld	a4,2(sp)
    80000254:	0a0913b7          	lui	t2,0xa091
    80000258:	8073839b          	addiw	t2,t2,-2041
    8000025c:	01039393          	slli	t2,t2,0x10
    80000260:	60538393          	addi	t2,t2,1541 # a091605 <_start-0x75f6e9fb>
    80000264:	01039393          	slli	t2,t2,0x10
    80000268:	40338393          	addi	t2,t2,1027
    8000026c:	18771663          	bne	a4,t2,800003f8 <fail>

0000000080000270 <test_5>:
    80000270:	00500193          	li	gp,5
    80000274:	016147b7          	lui	a5,0x1614
    80000278:	1217879b          	addiw	a5,a5,289
    8000027c:	01279793          	slli	a5,a5,0x12
    80000280:	38378793          	addi	a5,a5,899 # 1614383 <_start-0x7e9ebc7d>
    80000284:	01179793          	slli	a5,a5,0x11
    80000288:	50478793          	addi	a5,a5,1284
    8000028c:	00002117          	auipc	sp,0x2
    80000290:	d7410113          	addi	sp,sp,-652 # 80002000 <begin_signature>
    80000294:	00313703          	ld	a4,3(sp)
    80000298:	016143b7          	lui	t2,0x1614
    8000029c:	1213839b          	addiw	t2,t2,289
    800002a0:	01239393          	slli	t2,t2,0x12
    800002a4:	38338393          	addi	t2,t2,899 # 1614383 <_start-0x7e9ebc7d>
    800002a8:	01139393          	slli	t2,t2,0x11
    800002ac:	50438393          	addi	t2,t2,1284
    800002b0:	14771463          	bne	a4,t2,800003f8 <fail>

00000000800002b4 <test_6>:
    800002b4:	00600193          	li	gp,6
    800002b8:	000607b7          	lui	a5,0x60
    800002bc:	5857879b          	addiw	a5,a5,1413
    800002c0:	00d79793          	slli	a5,a5,0xd
    800002c4:	09178793          	addi	a5,a5,145 # 60091 <_start-0x7ff9ff6f>
    800002c8:	00c79793          	slli	a5,a5,0xc
    800002cc:	80778793          	addi	a5,a5,-2041
    800002d0:	01079793          	slli	a5,a5,0x10
    800002d4:	60578793          	addi	a5,a5,1541
    800002d8:	00002117          	auipc	sp,0x2
    800002dc:	d2810113          	addi	sp,sp,-728 # 80002000 <begin_signature>
    800002e0:	00413703          	ld	a4,4(sp)
    800002e4:	000603b7          	lui	t2,0x60
    800002e8:	5853839b          	addiw	t2,t2,1413
    800002ec:	00d39393          	slli	t2,t2,0xd
    800002f0:	09138393          	addi	t2,t2,145 # 60091 <_start-0x7ff9ff6f>
    800002f4:	00c39393          	slli	t2,t2,0xc
    800002f8:	80738393          	addi	t2,t2,-2041
    800002fc:	01039393          	slli	t2,t2,0x10
    80000300:	60538393          	addi	t2,t2,1541
    80000304:	0e771a63          	bne	a4,t2,800003f8 <fail>

0000000080000308 <test_7>:
    80000308:	00700193          	li	gp,7
    8000030c:	068607b7          	lui	a5,0x6860
    80000310:	5857879b          	addiw	a5,a5,1413
    80000314:	00e79793          	slli	a5,a5,0xe
    80000318:	12178793          	addi	a5,a5,289 # 6860121 <_start-0x7979fedf>
    8000031c:	01379793          	slli	a5,a5,0x13
    80000320:	70678793          	addi	a5,a5,1798
    80000324:	00002117          	auipc	sp,0x2
    80000328:	cdc10113          	addi	sp,sp,-804 # 80002000 <begin_signature>
    8000032c:	00513703          	ld	a4,5(sp)
    80000330:	068603b7          	lui	t2,0x6860
    80000334:	5853839b          	addiw	t2,t2,1413
    80000338:	00e39393          	slli	t2,t2,0xe
    8000033c:	12138393          	addi	t2,t2,289 # 6860121 <_start-0x7979fedf>
    80000340:	01339393          	slli	t2,t2,0x13
    80000344:	70638393          	addi	t2,t2,1798
    80000348:	0a771863          	bne	a4,t2,800003f8 <fail>

000000008000034c <test_8>:
    8000034c:	00800193          	li	gp,8
    80000350:	000387b7          	lui	a5,0x38
    80000354:	3437879b          	addiw	a5,a5,835
    80000358:	01179793          	slli	a5,a5,0x11
    8000035c:	58578793          	addi	a5,a5,1413 # 38585 <_start-0x7ffc7a7b>
    80000360:	00d79793          	slli	a5,a5,0xd
    80000364:	09178793          	addi	a5,a5,145
    80000368:	00c79793          	slli	a5,a5,0xc
    8000036c:	80778793          	addi	a5,a5,-2041
    80000370:	00002117          	auipc	sp,0x2
    80000374:	c9010113          	addi	sp,sp,-880 # 80002000 <begin_signature>
    80000378:	00613703          	ld	a4,6(sp)
    8000037c:	000383b7          	lui	t2,0x38
    80000380:	3433839b          	addiw	t2,t2,835
    80000384:	01139393          	slli	t2,t2,0x11
    80000388:	58538393          	addi	t2,t2,1413 # 38585 <_start-0x7ffc7a7b>
    8000038c:	00d39393          	slli	t2,t2,0xd
    80000390:	09138393          	addi	t2,t2,145
    80000394:	00c39393          	slli	t2,t2,0xc
    80000398:	80738393          	addi	t2,t2,-2041
    8000039c:	04771e63          	bne	a4,t2,800003f8 <fail>

00000000800003a0 <test_9>:
    800003a0:	00900193          	li	gp,9
    800003a4:	00f0e7b7          	lui	a5,0xf0e
    800003a8:	0d17879b          	addiw	a5,a5,209
    800003ac:	00c79793          	slli	a5,a5,0xc
    800003b0:	c0b78793          	addi	a5,a5,-1013 # f0dc0b <_start-0x7f0f23f5>
    800003b4:	00c79793          	slli	a5,a5,0xc
    800003b8:	0a178793          	addi	a5,a5,161
    800003bc:	00c79793          	slli	a5,a5,0xc
    800003c0:	90878793          	addi	a5,a5,-1784
    800003c4:	00002117          	auipc	sp,0x2
    800003c8:	c3c10113          	addi	sp,sp,-964 # 80002000 <begin_signature>
    800003cc:	00713703          	ld	a4,7(sp)
    800003d0:	00f0e3b7          	lui	t2,0xf0e
    800003d4:	0d13839b          	addiw	t2,t2,209
    800003d8:	00c39393          	slli	t2,t2,0xc
    800003dc:	c0b38393          	addi	t2,t2,-1013 # f0dc0b <_start-0x7f0f23f5>
    800003e0:	00c39393          	slli	t2,t2,0xc
    800003e4:	0a138393          	addi	t2,t2,161
    800003e8:	00c39393          	slli	t2,t2,0xc
    800003ec:	90838393          	addi	t2,t2,-1784
    800003f0:	00771463          	bne	a4,t2,800003f8 <fail>
    800003f4:	02301063          	bne	zero,gp,80000414 <pass>

00000000800003f8 <fail>:
    800003f8:	0ff0000f          	fence
    800003fc:	00018063          	beqz	gp,800003fc <fail+0x4>
    80000400:	00119193          	slli	gp,gp,0x1
    80000404:	0011e193          	ori	gp,gp,1
    80000408:	05d00893          	li	a7,93
    8000040c:	00018513          	mv	a0,gp
    80000410:	00000073          	ecall

0000000080000414 <pass>:
    80000414:	0ff0000f          	fence
    80000418:	00100193          	li	gp,1
    8000041c:	05d00893          	li	a7,93
    80000420:	00000513          	li	a0,0
    80000424:	00000073          	ecall

0000000080000428 <mtvec_handler>:
    80000428:	00400293          	li	t0,4
    8000042c:	34202373          	csrr	t1,mcause
    80000430:	fc6294e3          	bne	t0,t1,800003f8 <fail>
    80000434:	00078713          	mv	a4,a5
    80000438:	341022f3          	csrr	t0,mepc
    8000043c:	00428293          	addi	t0,t0,4
    80000440:	34129073          	csrw	mepc,t0
    80000444:	30200073          	mret
    80000448:	c0001073          	unimp
    8000044c:	0000                	unimp
    8000044e:	0000                	unimp
    80000450:	0000                	unimp
    80000452:	0000                	unimp
    80000454:	0000                	unimp
    80000456:	0000                	unimp
    80000458:	0000                	unimp
    8000045a:	0000                	unimp
    8000045c:	0000                	unimp
    8000045e:	0000                	unimp
    80000460:	0000                	unimp
    80000462:	0000                	unimp
    80000464:	0000                	unimp
    80000466:	0000                	unimp
    80000468:	0000                	unimp
    8000046a:	0000                	unimp
    8000046c:	0000                	unimp
    8000046e:	00              	Address 0x000000008000046e is out of bounds.

