
rv64ui-p-st_ld:     file format elf64-littleriscv


Disassembly of section .text.init:

0000000080000000 <_start>:
    80000000:	0540006f          	j	80000054 <reset_vector>

0000000080000004 <trap_vector>:
    80000004:	34202f73          	csrr	t5,mcause
    80000008:	00800f93          	li	t6,8
    8000000c:	03ff0a63          	beq	t5,t6,80000040 <write_tohost>
    80000010:	00900f93          	li	t6,9
    80000014:	03ff0663          	beq	t5,t6,80000040 <write_tohost>
    80000018:	00b00f93          	li	t6,11
    8000001c:	03ff0263          	beq	t5,t6,80000040 <write_tohost>
    80000020:	80000f17          	auipc	t5,0x80000
    80000024:	fe0f0f13          	addi	t5,t5,-32 # 0 <_start-0x80000000>
    80000028:	000f0463          	beqz	t5,80000030 <trap_vector+0x2c>
    8000002c:	000f0067          	jr	t5
    80000030:	34202f73          	csrr	t5,mcause
    80000034:	000f5463          	bgez	t5,8000003c <handle_exception>
    80000038:	0040006f          	j	8000003c <handle_exception>

000000008000003c <handle_exception>:
    8000003c:	5391e193          	ori	gp,gp,1337

0000000080000040 <write_tohost>:
    80000040:	00001f17          	auipc	t5,0x1
    80000044:	fc3f2023          	sw	gp,-64(t5) # 80001000 <tohost>
    80000048:	00001f17          	auipc	t5,0x1
    8000004c:	fa0f2e23          	sw	zero,-68(t5) # 80001004 <tohost+0x4>
    80000050:	ff1ff06f          	j	80000040 <write_tohost>

0000000080000054 <reset_vector>:
    80000054:	00000093          	li	ra,0
    80000058:	00000113          	li	sp,0
    8000005c:	00000193          	li	gp,0
    80000060:	00000213          	li	tp,0
    80000064:	00000293          	li	t0,0
    80000068:	00000313          	li	t1,0
    8000006c:	00000393          	li	t2,0
    80000070:	00000413          	li	s0,0
    80000074:	00000493          	li	s1,0
    80000078:	00000513          	li	a0,0
    8000007c:	00000593          	li	a1,0
    80000080:	00000613          	li	a2,0
    80000084:	00000693          	li	a3,0
    80000088:	00000713          	li	a4,0
    8000008c:	00000793          	li	a5,0
    80000090:	00000813          	li	a6,0
    80000094:	00000893          	li	a7,0
    80000098:	00000913          	li	s2,0
    8000009c:	00000993          	li	s3,0
    800000a0:	00000a13          	li	s4,0
    800000a4:	00000a93          	li	s5,0
    800000a8:	00000b13          	li	s6,0
    800000ac:	00000b93          	li	s7,0
    800000b0:	00000c13          	li	s8,0
    800000b4:	00000c93          	li	s9,0
    800000b8:	00000d13          	li	s10,0
    800000bc:	00000d93          	li	s11,0
    800000c0:	00000e13          	li	t3,0
    800000c4:	00000e93          	li	t4,0
    800000c8:	00000f13          	li	t5,0
    800000cc:	00000f93          	li	t6,0
    800000d0:	f1402573          	csrr	a0,mhartid
    800000d4:	00051063          	bnez	a0,800000d4 <reset_vector+0x80>
    800000d8:	00000297          	auipc	t0,0x0
    800000dc:	01028293          	addi	t0,t0,16 # 800000e8 <reset_vector+0x94>
    800000e0:	30529073          	csrw	mtvec,t0
    800000e4:	74445073          	csrwi	0x744,8
    800000e8:	00000297          	auipc	t0,0x0
    800000ec:	01028293          	addi	t0,t0,16 # 800000f8 <reset_vector+0xa4>
    800000f0:	30529073          	csrw	mtvec,t0
    800000f4:	18005073          	csrwi	sptbr,0
    800000f8:	00000297          	auipc	t0,0x0
    800000fc:	02428293          	addi	t0,t0,36 # 8000011c <reset_vector+0xc8>
    80000100:	30529073          	csrw	mtvec,t0
    80000104:	0010029b          	addiw	t0,zero,1
    80000108:	03529293          	slli	t0,t0,0x35
    8000010c:	fff28293          	addi	t0,t0,-1
    80000110:	3b029073          	csrw	pmpaddr0,t0
    80000114:	01f00293          	li	t0,31
    80000118:	3a029073          	csrw	pmpcfg0,t0
    8000011c:	30405073          	csrwi	mie,0
    80000120:	00000297          	auipc	t0,0x0
    80000124:	01428293          	addi	t0,t0,20 # 80000134 <reset_vector+0xe0>
    80000128:	30529073          	csrw	mtvec,t0
    8000012c:	30205073          	csrwi	medeleg,0
    80000130:	30305073          	csrwi	mideleg,0
    80000134:	00000193          	li	gp,0
    80000138:	00000297          	auipc	t0,0x0
    8000013c:	ecc28293          	addi	t0,t0,-308 # 80000004 <trap_vector>
    80000140:	30529073          	csrw	mtvec,t0
    80000144:	00100513          	li	a0,1
    80000148:	01f51513          	slli	a0,a0,0x1f
    8000014c:	00055c63          	bgez	a0,80000164 <reset_vector+0x110>
    80000150:	0ff0000f          	fence
    80000154:	00100193          	li	gp,1
    80000158:	05d00893          	li	a7,93
    8000015c:	00000513          	li	a0,0
    80000160:	00000073          	ecall
    80000164:	80000297          	auipc	t0,0x80000
    80000168:	e9c28293          	addi	t0,t0,-356 # 0 <_start-0x80000000>
    8000016c:	00028a63          	beqz	t0,80000180 <reset_vector+0x12c>
    80000170:	10529073          	csrw	stvec,t0
    80000174:	0000b2b7          	lui	t0,0xb
    80000178:	1092829b          	addiw	t0,t0,265
    8000017c:	30229073          	csrw	medeleg,t0
    80000180:	30005073          	csrwi	mstatus,0
    80000184:	00000297          	auipc	t0,0x0
    80000188:	01428293          	addi	t0,t0,20 # 80000198 <test_2>
    8000018c:	34129073          	csrw	mepc,t0
    80000190:	f1402573          	csrr	a0,mhartid
    80000194:	30200073          	mret

0000000080000198 <test_2>:
    80000198:	00200193          	li	gp,2
    8000019c:	00002117          	auipc	sp,0x2
    800001a0:	e6410113          	addi	sp,sp,-412 # 80002000 <begin_signature>
    800001a4:	fdd00093          	li	ra,-35
    800001a8:	00110023          	sb	ra,0(sp)
    800001ac:	00010703          	lb	a4,0(sp)
    800001b0:	fdd00393          	li	t2,-35
    800001b4:	28771ae3          	bne	a4,t2,80000c48 <fail>

00000000800001b8 <test_3>:
    800001b8:	00300193          	li	gp,3
    800001bc:	00002117          	auipc	sp,0x2
    800001c0:	e4410113          	addi	sp,sp,-444 # 80002000 <begin_signature>
    800001c4:	fcd00093          	li	ra,-51
    800001c8:	001100a3          	sb	ra,1(sp)
    800001cc:	00110703          	lb	a4,1(sp)
    800001d0:	fcd00393          	li	t2,-51
    800001d4:	26771ae3          	bne	a4,t2,80000c48 <fail>

00000000800001d8 <test_4>:
    800001d8:	00400193          	li	gp,4
    800001dc:	00002117          	auipc	sp,0x2
    800001e0:	e2410113          	addi	sp,sp,-476 # 80002000 <begin_signature>
    800001e4:	fcc00093          	li	ra,-52
    800001e8:	00110123          	sb	ra,2(sp)
    800001ec:	00210703          	lb	a4,2(sp)
    800001f0:	fcc00393          	li	t2,-52
    800001f4:	24771ae3          	bne	a4,t2,80000c48 <fail>

00000000800001f8 <test_5>:
    800001f8:	00500193          	li	gp,5
    800001fc:	00002117          	auipc	sp,0x2
    80000200:	e0410113          	addi	sp,sp,-508 # 80002000 <begin_signature>
    80000204:	fbc00093          	li	ra,-68
    80000208:	001101a3          	sb	ra,3(sp)
    8000020c:	00310703          	lb	a4,3(sp)
    80000210:	fbc00393          	li	t2,-68
    80000214:	22771ae3          	bne	a4,t2,80000c48 <fail>

0000000080000218 <test_6>:
    80000218:	00600193          	li	gp,6
    8000021c:	00002117          	auipc	sp,0x2
    80000220:	de410113          	addi	sp,sp,-540 # 80002000 <begin_signature>
    80000224:	fbb00093          	li	ra,-69
    80000228:	00110223          	sb	ra,4(sp)
    8000022c:	00410703          	lb	a4,4(sp)
    80000230:	fbb00393          	li	t2,-69
    80000234:	20771ae3          	bne	a4,t2,80000c48 <fail>

0000000080000238 <test_7>:
    80000238:	00700193          	li	gp,7
    8000023c:	00002117          	auipc	sp,0x2
    80000240:	dc410113          	addi	sp,sp,-572 # 80002000 <begin_signature>
    80000244:	fab00093          	li	ra,-85
    80000248:	001102a3          	sb	ra,5(sp)
    8000024c:	00510703          	lb	a4,5(sp)
    80000250:	fab00393          	li	t2,-85
    80000254:	1e771ae3          	bne	a4,t2,80000c48 <fail>

0000000080000258 <test_8>:
    80000258:	00800193          	li	gp,8
    8000025c:	00002117          	auipc	sp,0x2
    80000260:	da410113          	addi	sp,sp,-604 # 80002000 <begin_signature>
    80000264:	03300093          	li	ra,51
    80000268:	00110023          	sb	ra,0(sp)
    8000026c:	00010703          	lb	a4,0(sp)
    80000270:	03300393          	li	t2,51
    80000274:	1c771ae3          	bne	a4,t2,80000c48 <fail>

0000000080000278 <test_9>:
    80000278:	00900193          	li	gp,9
    8000027c:	00002117          	auipc	sp,0x2
    80000280:	d8410113          	addi	sp,sp,-636 # 80002000 <begin_signature>
    80000284:	02300093          	li	ra,35
    80000288:	001100a3          	sb	ra,1(sp)
    8000028c:	00110703          	lb	a4,1(sp)
    80000290:	02300393          	li	t2,35
    80000294:	1a771ae3          	bne	a4,t2,80000c48 <fail>

0000000080000298 <test_10>:
    80000298:	00a00193          	li	gp,10
    8000029c:	00002117          	auipc	sp,0x2
    800002a0:	d6410113          	addi	sp,sp,-668 # 80002000 <begin_signature>
    800002a4:	02200093          	li	ra,34
    800002a8:	00110123          	sb	ra,2(sp)
    800002ac:	00210703          	lb	a4,2(sp)
    800002b0:	02200393          	li	t2,34
    800002b4:	18771ae3          	bne	a4,t2,80000c48 <fail>

00000000800002b8 <test_11>:
    800002b8:	00b00193          	li	gp,11
    800002bc:	00002117          	auipc	sp,0x2
    800002c0:	d4410113          	addi	sp,sp,-700 # 80002000 <begin_signature>
    800002c4:	01200093          	li	ra,18
    800002c8:	001101a3          	sb	ra,3(sp)
    800002cc:	00310703          	lb	a4,3(sp)
    800002d0:	01200393          	li	t2,18
    800002d4:	16771ae3          	bne	a4,t2,80000c48 <fail>

00000000800002d8 <test_12>:
    800002d8:	00c00193          	li	gp,12
    800002dc:	00002117          	auipc	sp,0x2
    800002e0:	d2410113          	addi	sp,sp,-732 # 80002000 <begin_signature>
    800002e4:	01100093          	li	ra,17
    800002e8:	00110223          	sb	ra,4(sp)
    800002ec:	00410703          	lb	a4,4(sp)
    800002f0:	01100393          	li	t2,17
    800002f4:	14771ae3          	bne	a4,t2,80000c48 <fail>

00000000800002f8 <test_13>:
    800002f8:	00d00193          	li	gp,13
    800002fc:	00002117          	auipc	sp,0x2
    80000300:	d0410113          	addi	sp,sp,-764 # 80002000 <begin_signature>
    80000304:	00100093          	li	ra,1
    80000308:	001102a3          	sb	ra,5(sp)
    8000030c:	00510703          	lb	a4,5(sp)
    80000310:	00100393          	li	t2,1
    80000314:	12771ae3          	bne	a4,t2,80000c48 <fail>

0000000080000318 <test_14>:
    80000318:	00e00193          	li	gp,14
    8000031c:	00002117          	auipc	sp,0x2
    80000320:	ce410113          	addi	sp,sp,-796 # 80002000 <begin_signature>
    80000324:	03300093          	li	ra,51
    80000328:	00110023          	sb	ra,0(sp)
    8000032c:	00014703          	lbu	a4,0(sp)
    80000330:	03300393          	li	t2,51
    80000334:	10771ae3          	bne	a4,t2,80000c48 <fail>

0000000080000338 <test_15>:
    80000338:	00f00193          	li	gp,15
    8000033c:	00002117          	auipc	sp,0x2
    80000340:	cc410113          	addi	sp,sp,-828 # 80002000 <begin_signature>
    80000344:	02300093          	li	ra,35
    80000348:	001100a3          	sb	ra,1(sp)
    8000034c:	00114703          	lbu	a4,1(sp)
    80000350:	02300393          	li	t2,35
    80000354:	0e771ae3          	bne	a4,t2,80000c48 <fail>

0000000080000358 <test_16>:
    80000358:	01000193          	li	gp,16
    8000035c:	00002117          	auipc	sp,0x2
    80000360:	ca410113          	addi	sp,sp,-860 # 80002000 <begin_signature>
    80000364:	02200093          	li	ra,34
    80000368:	00110123          	sb	ra,2(sp)
    8000036c:	00214703          	lbu	a4,2(sp)
    80000370:	02200393          	li	t2,34
    80000374:	0c771ae3          	bne	a4,t2,80000c48 <fail>

0000000080000378 <test_17>:
    80000378:	01100193          	li	gp,17
    8000037c:	00002117          	auipc	sp,0x2
    80000380:	c8410113          	addi	sp,sp,-892 # 80002000 <begin_signature>
    80000384:	01200093          	li	ra,18
    80000388:	001101a3          	sb	ra,3(sp)
    8000038c:	00314703          	lbu	a4,3(sp)
    80000390:	01200393          	li	t2,18
    80000394:	0a771ae3          	bne	a4,t2,80000c48 <fail>

0000000080000398 <test_18>:
    80000398:	01200193          	li	gp,18
    8000039c:	00002117          	auipc	sp,0x2
    800003a0:	c6410113          	addi	sp,sp,-924 # 80002000 <begin_signature>
    800003a4:	01100093          	li	ra,17
    800003a8:	00110223          	sb	ra,4(sp)
    800003ac:	00414703          	lbu	a4,4(sp)
    800003b0:	01100393          	li	t2,17
    800003b4:	08771ae3          	bne	a4,t2,80000c48 <fail>

00000000800003b8 <test_19>:
    800003b8:	01300193          	li	gp,19
    800003bc:	00002117          	auipc	sp,0x2
    800003c0:	c4410113          	addi	sp,sp,-956 # 80002000 <begin_signature>
    800003c4:	00100093          	li	ra,1
    800003c8:	001102a3          	sb	ra,5(sp)
    800003cc:	00514703          	lbu	a4,5(sp)
    800003d0:	00100393          	li	t2,1
    800003d4:	06771ae3          	bne	a4,t2,80000c48 <fail>

00000000800003d8 <test_20>:
    800003d8:	01400193          	li	gp,20
    800003dc:	00002117          	auipc	sp,0x2
    800003e0:	c2410113          	addi	sp,sp,-988 # 80002000 <begin_signature>
    800003e4:	aabbd0b7          	lui	ra,0xaabbd
    800003e8:	cdd0809b          	addiw	ra,ra,-803
    800003ec:	00112023          	sw	ra,0(sp)
    800003f0:	00012703          	lw	a4,0(sp)
    800003f4:	aabbd3b7          	lui	t2,0xaabbd
    800003f8:	cdd3839b          	addiw	t2,t2,-803
    800003fc:	047716e3          	bne	a4,t2,80000c48 <fail>

0000000080000400 <test_21>:
    80000400:	01500193          	li	gp,21
    80000404:	00002117          	auipc	sp,0x2
    80000408:	bfc10113          	addi	sp,sp,-1028 # 80002000 <begin_signature>
    8000040c:	daabc0b7          	lui	ra,0xdaabc
    80000410:	ccd0809b          	addiw	ra,ra,-819
    80000414:	00112223          	sw	ra,4(sp)
    80000418:	00412703          	lw	a4,4(sp)
    8000041c:	daabc3b7          	lui	t2,0xdaabc
    80000420:	ccd3839b          	addiw	t2,t2,-819
    80000424:	027712e3          	bne	a4,t2,80000c48 <fail>

0000000080000428 <test_22>:
    80000428:	01600193          	li	gp,22
    8000042c:	00002117          	auipc	sp,0x2
    80000430:	bd410113          	addi	sp,sp,-1068 # 80002000 <begin_signature>
    80000434:	ddaac0b7          	lui	ra,0xddaac
    80000438:	bcc0809b          	addiw	ra,ra,-1076
    8000043c:	00112423          	sw	ra,8(sp)
    80000440:	00812703          	lw	a4,8(sp)
    80000444:	ddaac3b7          	lui	t2,0xddaac
    80000448:	bcc3839b          	addiw	t2,t2,-1076
    8000044c:	7e771e63          	bne	a4,t2,80000c48 <fail>

0000000080000450 <test_23>:
    80000450:	01700193          	li	gp,23
    80000454:	00002117          	auipc	sp,0x2
    80000458:	bac10113          	addi	sp,sp,-1108 # 80002000 <begin_signature>
    8000045c:	cddab0b7          	lui	ra,0xcddab
    80000460:	bbc0809b          	addiw	ra,ra,-1092
    80000464:	00112623          	sw	ra,12(sp)
    80000468:	00c12703          	lw	a4,12(sp)
    8000046c:	cddab3b7          	lui	t2,0xcddab
    80000470:	bbc3839b          	addiw	t2,t2,-1092
    80000474:	7c771a63          	bne	a4,t2,80000c48 <fail>

0000000080000478 <test_24>:
    80000478:	01800193          	li	gp,24
    8000047c:	00002117          	auipc	sp,0x2
    80000480:	b8410113          	addi	sp,sp,-1148 # 80002000 <begin_signature>
    80000484:	ccddb0b7          	lui	ra,0xccddb
    80000488:	abb0809b          	addiw	ra,ra,-1349
    8000048c:	00112823          	sw	ra,16(sp)
    80000490:	01012703          	lw	a4,16(sp)
    80000494:	ccddb3b7          	lui	t2,0xccddb
    80000498:	abb3839b          	addiw	t2,t2,-1349
    8000049c:	7a771663          	bne	a4,t2,80000c48 <fail>

00000000800004a0 <test_25>:
    800004a0:	01900193          	li	gp,25
    800004a4:	00002117          	auipc	sp,0x2
    800004a8:	b5c10113          	addi	sp,sp,-1188 # 80002000 <begin_signature>
    800004ac:	bccde0b7          	lui	ra,0xbccde
    800004b0:	aab0809b          	addiw	ra,ra,-1365
    800004b4:	00112a23          	sw	ra,20(sp)
    800004b8:	01412703          	lw	a4,20(sp)
    800004bc:	bccde3b7          	lui	t2,0xbccde
    800004c0:	aab3839b          	addiw	t2,t2,-1365
    800004c4:	78771263          	bne	a4,t2,80000c48 <fail>

00000000800004c8 <test_26>:
    800004c8:	01a00193          	li	gp,26
    800004cc:	00002117          	auipc	sp,0x2
    800004d0:	b3410113          	addi	sp,sp,-1228 # 80002000 <begin_signature>
    800004d4:	001120b7          	lui	ra,0x112
    800004d8:	2330809b          	addiw	ra,ra,563
    800004dc:	00112023          	sw	ra,0(sp)
    800004e0:	00012703          	lw	a4,0(sp)
    800004e4:	001123b7          	lui	t2,0x112
    800004e8:	2333839b          	addiw	t2,t2,563
    800004ec:	74771e63          	bne	a4,t2,80000c48 <fail>

00000000800004f0 <test_27>:
    800004f0:	01b00193          	li	gp,27
    800004f4:	00002117          	auipc	sp,0x2
    800004f8:	b0c10113          	addi	sp,sp,-1268 # 80002000 <begin_signature>
    800004fc:	300110b7          	lui	ra,0x30011
    80000500:	2230809b          	addiw	ra,ra,547
    80000504:	00112223          	sw	ra,4(sp)
    80000508:	00412703          	lw	a4,4(sp)
    8000050c:	300113b7          	lui	t2,0x30011
    80000510:	2233839b          	addiw	t2,t2,547
    80000514:	72771a63          	bne	a4,t2,80000c48 <fail>

0000000080000518 <test_28>:
    80000518:	01c00193          	li	gp,28
    8000051c:	00002117          	auipc	sp,0x2
    80000520:	ae410113          	addi	sp,sp,-1308 # 80002000 <begin_signature>
    80000524:	330010b7          	lui	ra,0x33001
    80000528:	1220809b          	addiw	ra,ra,290
    8000052c:	00112423          	sw	ra,8(sp)
    80000530:	00812703          	lw	a4,8(sp)
    80000534:	330013b7          	lui	t2,0x33001
    80000538:	1223839b          	addiw	t2,t2,290
    8000053c:	70771663          	bne	a4,t2,80000c48 <fail>

0000000080000540 <test_29>:
    80000540:	01d00193          	li	gp,29
    80000544:	00002117          	auipc	sp,0x2
    80000548:	abc10113          	addi	sp,sp,-1348 # 80002000 <begin_signature>
    8000054c:	233000b7          	lui	ra,0x23300
    80000550:	1120809b          	addiw	ra,ra,274
    80000554:	00112623          	sw	ra,12(sp)
    80000558:	00c12703          	lw	a4,12(sp)
    8000055c:	233003b7          	lui	t2,0x23300
    80000560:	1123839b          	addiw	t2,t2,274
    80000564:	6e771263          	bne	a4,t2,80000c48 <fail>

0000000080000568 <test_30>:
    80000568:	01e00193          	li	gp,30
    8000056c:	00002117          	auipc	sp,0x2
    80000570:	a9410113          	addi	sp,sp,-1388 # 80002000 <begin_signature>
    80000574:	223300b7          	lui	ra,0x22330
    80000578:	0110809b          	addiw	ra,ra,17
    8000057c:	00112823          	sw	ra,16(sp)
    80000580:	01012703          	lw	a4,16(sp)
    80000584:	223303b7          	lui	t2,0x22330
    80000588:	0113839b          	addiw	t2,t2,17
    8000058c:	6a771e63          	bne	a4,t2,80000c48 <fail>

0000000080000590 <test_31>:
    80000590:	01f00193          	li	gp,31
    80000594:	00002117          	auipc	sp,0x2
    80000598:	a6c10113          	addi	sp,sp,-1428 # 80002000 <begin_signature>
    8000059c:	122330b7          	lui	ra,0x12233
    800005a0:	0010809b          	addiw	ra,ra,1
    800005a4:	00112a23          	sw	ra,20(sp)
    800005a8:	01412703          	lw	a4,20(sp)
    800005ac:	122333b7          	lui	t2,0x12233
    800005b0:	0013839b          	addiw	t2,t2,1
    800005b4:	68771a63          	bne	a4,t2,80000c48 <fail>

00000000800005b8 <test_32>:
    800005b8:	02000193          	li	gp,32
    800005bc:	00002117          	auipc	sp,0x2
    800005c0:	a4410113          	addi	sp,sp,-1468 # 80002000 <begin_signature>
    800005c4:	ffffd0b7          	lui	ra,0xffffd
    800005c8:	cdd0809b          	addiw	ra,ra,-803
    800005cc:	00111023          	sh	ra,0(sp)
    800005d0:	00011703          	lh	a4,0(sp)
    800005d4:	ffffd3b7          	lui	t2,0xffffd
    800005d8:	cdd3839b          	addiw	t2,t2,-803
    800005dc:	66771663          	bne	a4,t2,80000c48 <fail>

00000000800005e0 <test_33>:
    800005e0:	02100193          	li	gp,33
    800005e4:	00002117          	auipc	sp,0x2
    800005e8:	a1c10113          	addi	sp,sp,-1508 # 80002000 <begin_signature>
    800005ec:	ffffc0b7          	lui	ra,0xffffc
    800005f0:	ccd0809b          	addiw	ra,ra,-819
    800005f4:	00111123          	sh	ra,2(sp)
    800005f8:	00211703          	lh	a4,2(sp)
    800005fc:	ffffc3b7          	lui	t2,0xffffc
    80000600:	ccd3839b          	addiw	t2,t2,-819
    80000604:	64771263          	bne	a4,t2,80000c48 <fail>

0000000080000608 <test_34>:
    80000608:	02200193          	li	gp,34
    8000060c:	00002117          	auipc	sp,0x2
    80000610:	9f410113          	addi	sp,sp,-1548 # 80002000 <begin_signature>
    80000614:	ffffc0b7          	lui	ra,0xffffc
    80000618:	bcc0809b          	addiw	ra,ra,-1076
    8000061c:	00111223          	sh	ra,4(sp)
    80000620:	00411703          	lh	a4,4(sp)
    80000624:	ffffc3b7          	lui	t2,0xffffc
    80000628:	bcc3839b          	addiw	t2,t2,-1076
    8000062c:	60771e63          	bne	a4,t2,80000c48 <fail>

0000000080000630 <test_35>:
    80000630:	02300193          	li	gp,35
    80000634:	00002117          	auipc	sp,0x2
    80000638:	9cc10113          	addi	sp,sp,-1588 # 80002000 <begin_signature>
    8000063c:	ffffb0b7          	lui	ra,0xffffb
    80000640:	bbc0809b          	addiw	ra,ra,-1092
    80000644:	00111323          	sh	ra,6(sp)
    80000648:	00611703          	lh	a4,6(sp)
    8000064c:	ffffb3b7          	lui	t2,0xffffb
    80000650:	bbc3839b          	addiw	t2,t2,-1092
    80000654:	5e771a63          	bne	a4,t2,80000c48 <fail>

0000000080000658 <test_36>:
    80000658:	02400193          	li	gp,36
    8000065c:	00002117          	auipc	sp,0x2
    80000660:	9a410113          	addi	sp,sp,-1628 # 80002000 <begin_signature>
    80000664:	ffffb0b7          	lui	ra,0xffffb
    80000668:	abb0809b          	addiw	ra,ra,-1349
    8000066c:	00111423          	sh	ra,8(sp)
    80000670:	00811703          	lh	a4,8(sp)
    80000674:	ffffb3b7          	lui	t2,0xffffb
    80000678:	abb3839b          	addiw	t2,t2,-1349
    8000067c:	5c771663          	bne	a4,t2,80000c48 <fail>

0000000080000680 <test_37>:
    80000680:	02500193          	li	gp,37
    80000684:	00002117          	auipc	sp,0x2
    80000688:	97c10113          	addi	sp,sp,-1668 # 80002000 <begin_signature>
    8000068c:	ffffe0b7          	lui	ra,0xffffe
    80000690:	aab0809b          	addiw	ra,ra,-1365
    80000694:	00111523          	sh	ra,10(sp)
    80000698:	00a11703          	lh	a4,10(sp)
    8000069c:	ffffe3b7          	lui	t2,0xffffe
    800006a0:	aab3839b          	addiw	t2,t2,-1365
    800006a4:	5a771263          	bne	a4,t2,80000c48 <fail>

00000000800006a8 <test_38>:
    800006a8:	02600193          	li	gp,38
    800006ac:	00002117          	auipc	sp,0x2
    800006b0:	95410113          	addi	sp,sp,-1708 # 80002000 <begin_signature>
    800006b4:	000020b7          	lui	ra,0x2
    800006b8:	2330809b          	addiw	ra,ra,563
    800006bc:	00111023          	sh	ra,0(sp)
    800006c0:	00011703          	lh	a4,0(sp)
    800006c4:	000023b7          	lui	t2,0x2
    800006c8:	2333839b          	addiw	t2,t2,563
    800006cc:	56771e63          	bne	a4,t2,80000c48 <fail>

00000000800006d0 <test_39>:
    800006d0:	02700193          	li	gp,39
    800006d4:	00002117          	auipc	sp,0x2
    800006d8:	92c10113          	addi	sp,sp,-1748 # 80002000 <begin_signature>
    800006dc:	000010b7          	lui	ra,0x1
    800006e0:	2230809b          	addiw	ra,ra,547
    800006e4:	00111123          	sh	ra,2(sp)
    800006e8:	00211703          	lh	a4,2(sp)
    800006ec:	000013b7          	lui	t2,0x1
    800006f0:	2233839b          	addiw	t2,t2,547
    800006f4:	54771a63          	bne	a4,t2,80000c48 <fail>

00000000800006f8 <test_40>:
    800006f8:	02800193          	li	gp,40
    800006fc:	00002117          	auipc	sp,0x2
    80000700:	90410113          	addi	sp,sp,-1788 # 80002000 <begin_signature>
    80000704:	000010b7          	lui	ra,0x1
    80000708:	1220809b          	addiw	ra,ra,290
    8000070c:	00111223          	sh	ra,4(sp)
    80000710:	00411703          	lh	a4,4(sp)
    80000714:	000013b7          	lui	t2,0x1
    80000718:	1223839b          	addiw	t2,t2,290
    8000071c:	52771663          	bne	a4,t2,80000c48 <fail>

0000000080000720 <test_41>:
    80000720:	02900193          	li	gp,41
    80000724:	00002117          	auipc	sp,0x2
    80000728:	8dc10113          	addi	sp,sp,-1828 # 80002000 <begin_signature>
    8000072c:	11200093          	li	ra,274
    80000730:	00111323          	sh	ra,6(sp)
    80000734:	00611703          	lh	a4,6(sp)
    80000738:	11200393          	li	t2,274
    8000073c:	50771663          	bne	a4,t2,80000c48 <fail>

0000000080000740 <test_42>:
    80000740:	02a00193          	li	gp,42
    80000744:	00002117          	auipc	sp,0x2
    80000748:	8bc10113          	addi	sp,sp,-1860 # 80002000 <begin_signature>
    8000074c:	01100093          	li	ra,17
    80000750:	00111423          	sh	ra,8(sp)
    80000754:	00811703          	lh	a4,8(sp)
    80000758:	01100393          	li	t2,17
    8000075c:	4e771663          	bne	a4,t2,80000c48 <fail>

0000000080000760 <test_43>:
    80000760:	02b00193          	li	gp,43
    80000764:	00002117          	auipc	sp,0x2
    80000768:	89c10113          	addi	sp,sp,-1892 # 80002000 <begin_signature>
    8000076c:	000030b7          	lui	ra,0x3
    80000770:	0010809b          	addiw	ra,ra,1
    80000774:	00111523          	sh	ra,10(sp)
    80000778:	00a11703          	lh	a4,10(sp)
    8000077c:	000033b7          	lui	t2,0x3
    80000780:	0013839b          	addiw	t2,t2,1
    80000784:	4c771263          	bne	a4,t2,80000c48 <fail>

0000000080000788 <test_44>:
    80000788:	02c00193          	li	gp,44
    8000078c:	00002117          	auipc	sp,0x2
    80000790:	87410113          	addi	sp,sp,-1932 # 80002000 <begin_signature>
    80000794:	000020b7          	lui	ra,0x2
    80000798:	2330809b          	addiw	ra,ra,563
    8000079c:	00111023          	sh	ra,0(sp)
    800007a0:	00015703          	lhu	a4,0(sp)
    800007a4:	000023b7          	lui	t2,0x2
    800007a8:	2333839b          	addiw	t2,t2,563
    800007ac:	48771e63          	bne	a4,t2,80000c48 <fail>

00000000800007b0 <test_45>:
    800007b0:	02d00193          	li	gp,45
    800007b4:	00002117          	auipc	sp,0x2
    800007b8:	84c10113          	addi	sp,sp,-1972 # 80002000 <begin_signature>
    800007bc:	000010b7          	lui	ra,0x1
    800007c0:	2230809b          	addiw	ra,ra,547
    800007c4:	00111123          	sh	ra,2(sp)
    800007c8:	00215703          	lhu	a4,2(sp)
    800007cc:	000013b7          	lui	t2,0x1
    800007d0:	2233839b          	addiw	t2,t2,547
    800007d4:	46771a63          	bne	a4,t2,80000c48 <fail>

00000000800007d8 <test_46>:
    800007d8:	02e00193          	li	gp,46
    800007dc:	00002117          	auipc	sp,0x2
    800007e0:	82410113          	addi	sp,sp,-2012 # 80002000 <begin_signature>
    800007e4:	000010b7          	lui	ra,0x1
    800007e8:	1220809b          	addiw	ra,ra,290
    800007ec:	00111223          	sh	ra,4(sp)
    800007f0:	00415703          	lhu	a4,4(sp)
    800007f4:	000013b7          	lui	t2,0x1
    800007f8:	1223839b          	addiw	t2,t2,290
    800007fc:	44771663          	bne	a4,t2,80000c48 <fail>

0000000080000800 <test_47>:
    80000800:	02f00193          	li	gp,47
    80000804:	00001117          	auipc	sp,0x1
    80000808:	7fc10113          	addi	sp,sp,2044 # 80002000 <begin_signature>
    8000080c:	11200093          	li	ra,274
    80000810:	00111323          	sh	ra,6(sp)
    80000814:	00615703          	lhu	a4,6(sp)
    80000818:	11200393          	li	t2,274
    8000081c:	42771663          	bne	a4,t2,80000c48 <fail>

0000000080000820 <test_48>:
    80000820:	03000193          	li	gp,48
    80000824:	00001117          	auipc	sp,0x1
    80000828:	7dc10113          	addi	sp,sp,2012 # 80002000 <begin_signature>
    8000082c:	01100093          	li	ra,17
    80000830:	00111423          	sh	ra,8(sp)
    80000834:	00815703          	lhu	a4,8(sp)
    80000838:	01100393          	li	t2,17
    8000083c:	40771663          	bne	a4,t2,80000c48 <fail>

0000000080000840 <test_49>:
    80000840:	03100193          	li	gp,49
    80000844:	00001117          	auipc	sp,0x1
    80000848:	7bc10113          	addi	sp,sp,1980 # 80002000 <begin_signature>
    8000084c:	000030b7          	lui	ra,0x3
    80000850:	0010809b          	addiw	ra,ra,1
    80000854:	00111523          	sh	ra,10(sp)
    80000858:	00a15703          	lhu	a4,10(sp)
    8000085c:	000033b7          	lui	t2,0x3
    80000860:	0013839b          	addiw	t2,t2,1
    80000864:	3e771263          	bne	a4,t2,80000c48 <fail>

0000000080000868 <test_50>:
    80000868:	03200193          	li	gp,50
    8000086c:	00001117          	auipc	sp,0x1
    80000870:	79410113          	addi	sp,sp,1940 # 80002000 <begin_signature>
    80000874:	044890b7          	lui	ra,0x4489
    80000878:	cd10809b          	addiw	ra,ra,-815
    8000087c:	00d09093          	slli	ra,ra,0xd
    80000880:	2ab08093          	addi	ra,ra,683 # 44892ab <_start-0x7bb76d55>
    80000884:	00d09093          	slli	ra,ra,0xd
    80000888:	67708093          	addi	ra,ra,1655
    8000088c:	00113023          	sd	ra,0(sp)
    80000890:	00013703          	ld	a4,0(sp)
    80000894:	044893b7          	lui	t2,0x4489
    80000898:	cd13839b          	addiw	t2,t2,-815
    8000089c:	00d39393          	slli	t2,t2,0xd
    800008a0:	2ab38393          	addi	t2,t2,683 # 44892ab <_start-0x7bb76d55>
    800008a4:	00d39393          	slli	t2,t2,0xd
    800008a8:	67738393          	addi	t2,t2,1655
    800008ac:	38771e63          	bne	a4,t2,80000c48 <fail>

00000000800008b0 <test_51>:
    800008b0:	03300193          	li	gp,51
    800008b4:	00001117          	auipc	sp,0x1
    800008b8:	74c10113          	addi	sp,sp,1868 # 80002000 <begin_signature>
    800008bc:	004490b7          	lui	ra,0x449
    800008c0:	8cd0809b          	addiw	ra,ra,-1843
    800008c4:	00e09093          	slli	ra,ra,0xe
    800008c8:	45508093          	addi	ra,ra,1109 # 449455 <_start-0x7fbb6bab>
    800008cc:	00c09093          	slli	ra,ra,0xc
    800008d0:	66708093          	addi	ra,ra,1639
    800008d4:	00c09093          	slli	ra,ra,0xc
    800008d8:	78808093          	addi	ra,ra,1928
    800008dc:	00113423          	sd	ra,8(sp)
    800008e0:	00813703          	ld	a4,8(sp)
    800008e4:	004493b7          	lui	t2,0x449
    800008e8:	8cd3839b          	addiw	t2,t2,-1843
    800008ec:	00e39393          	slli	t2,t2,0xe
    800008f0:	45538393          	addi	t2,t2,1109 # 449455 <_start-0x7fbb6bab>
    800008f4:	00c39393          	slli	t2,t2,0xc
    800008f8:	66738393          	addi	t2,t2,1639
    800008fc:	00c39393          	slli	t2,t2,0xc
    80000900:	78838393          	addi	t2,t2,1928
    80000904:	34771263          	bne	a4,t2,80000c48 <fail>

0000000080000908 <test_52>:
    80000908:	03400193          	li	gp,52
    8000090c:	00001117          	auipc	sp,0x1
    80000910:	6f410113          	addi	sp,sp,1780 # 80002000 <begin_signature>
    80000914:	0111a0b7          	lui	ra,0x111a
    80000918:	a230809b          	addiw	ra,ra,-1501
    8000091c:	00c09093          	slli	ra,ra,0xc
    80000920:	ab308093          	addi	ra,ra,-1357 # 1119ab3 <_start-0x7eee654d>
    80000924:	00d09093          	slli	ra,ra,0xd
    80000928:	77908093          	addi	ra,ra,1913
    8000092c:	00c09093          	slli	ra,ra,0xc
    80000930:	89908093          	addi	ra,ra,-1895
    80000934:	00113823          	sd	ra,16(sp)
    80000938:	01013703          	ld	a4,16(sp)
    8000093c:	0111a3b7          	lui	t2,0x111a
    80000940:	a233839b          	addiw	t2,t2,-1501
    80000944:	00c39393          	slli	t2,t2,0xc
    80000948:	ab338393          	addi	t2,t2,-1357 # 1119ab3 <_start-0x7eee654d>
    8000094c:	00d39393          	slli	t2,t2,0xd
    80000950:	77938393          	addi	t2,t2,1913
    80000954:	00c39393          	slli	t2,t2,0xc
    80000958:	89938393          	addi	t2,t2,-1895
    8000095c:	2e771663          	bne	a4,t2,80000c48 <fail>

0000000080000960 <test_53>:
    80000960:	03500193          	li	gp,53
    80000964:	00001117          	auipc	sp,0x1
    80000968:	69c10113          	addi	sp,sp,1692 # 80002000 <begin_signature>
    8000096c:	0abbd0b7          	lui	ra,0xabbd
    80000970:	cdd0809b          	addiw	ra,ra,-803
    80000974:	00113023          	sd	ra,0(sp)
    80000978:	00013703          	ld	a4,0(sp)
    8000097c:	0abbd3b7          	lui	t2,0xabbd
    80000980:	cdd3839b          	addiw	t2,t2,-803
    80000984:	2c771263          	bne	a4,t2,80000c48 <fail>

0000000080000988 <test_54>:
    80000988:	03600193          	li	gp,54
    8000098c:	00001117          	auipc	sp,0x1
    80000990:	67410113          	addi	sp,sp,1652 # 80002000 <begin_signature>
    80000994:	0aabc0b7          	lui	ra,0xaabc
    80000998:	ccd0809b          	addiw	ra,ra,-819
    8000099c:	00113423          	sd	ra,8(sp)
    800009a0:	00813703          	ld	a4,8(sp)
    800009a4:	0aabc3b7          	lui	t2,0xaabc
    800009a8:	ccd3839b          	addiw	t2,t2,-819
    800009ac:	28771e63          	bne	a4,t2,80000c48 <fail>

00000000800009b0 <test_55>:
    800009b0:	03700193          	li	gp,55
    800009b4:	00001117          	auipc	sp,0x1
    800009b8:	64c10113          	addi	sp,sp,1612 # 80002000 <begin_signature>
    800009bc:	0daac0b7          	lui	ra,0xdaac
    800009c0:	bcc0809b          	addiw	ra,ra,-1076
    800009c4:	00113823          	sd	ra,16(sp)
    800009c8:	01013703          	ld	a4,16(sp)
    800009cc:	0daac3b7          	lui	t2,0xdaac
    800009d0:	bcc3839b          	addiw	t2,t2,-1076
    800009d4:	26771a63          	bne	a4,t2,80000c48 <fail>

00000000800009d8 <test_56>:
    800009d8:	03800193          	li	gp,56
    800009dc:	00001117          	auipc	sp,0x1
    800009e0:	62410113          	addi	sp,sp,1572 # 80002000 <begin_signature>
    800009e4:	0ddab0b7          	lui	ra,0xddab
    800009e8:	bbc0809b          	addiw	ra,ra,-1092
    800009ec:	00113c23          	sd	ra,24(sp)
    800009f0:	01813703          	ld	a4,24(sp)
    800009f4:	0ddab3b7          	lui	t2,0xddab
    800009f8:	bbc3839b          	addiw	t2,t2,-1092
    800009fc:	24771663          	bne	a4,t2,80000c48 <fail>

0000000080000a00 <test_57>:
    80000a00:	03900193          	li	gp,57
    80000a04:	00001117          	auipc	sp,0x1
    80000a08:	5fc10113          	addi	sp,sp,1532 # 80002000 <begin_signature>
    80000a0c:	0cddb0b7          	lui	ra,0xcddb
    80000a10:	abb0809b          	addiw	ra,ra,-1349
    80000a14:	02113023          	sd	ra,32(sp)
    80000a18:	02013703          	ld	a4,32(sp)
    80000a1c:	0cddb3b7          	lui	t2,0xcddb
    80000a20:	abb3839b          	addiw	t2,t2,-1349
    80000a24:	22771263          	bne	a4,t2,80000c48 <fail>

0000000080000a28 <test_58>:
    80000a28:	03a00193          	li	gp,58
    80000a2c:	00001117          	auipc	sp,0x1
    80000a30:	5d410113          	addi	sp,sp,1492 # 80002000 <begin_signature>
    80000a34:	0ccde0b7          	lui	ra,0xccde
    80000a38:	aab0809b          	addiw	ra,ra,-1365
    80000a3c:	02113423          	sd	ra,40(sp)
    80000a40:	02813703          	ld	a4,40(sp)
    80000a44:	0ccde3b7          	lui	t2,0xccde
    80000a48:	aab3839b          	addiw	t2,t2,-1365
    80000a4c:	1e771e63          	bne	a4,t2,80000c48 <fail>

0000000080000a50 <test_59>:
    80000a50:	03b00193          	li	gp,59
    80000a54:	00001117          	auipc	sp,0x1
    80000a58:	5ac10113          	addi	sp,sp,1452 # 80002000 <begin_signature>
    80000a5c:	001120b7          	lui	ra,0x112
    80000a60:	2330809b          	addiw	ra,ra,563
    80000a64:	00113023          	sd	ra,0(sp)
    80000a68:	00013703          	ld	a4,0(sp)
    80000a6c:	001123b7          	lui	t2,0x112
    80000a70:	2333839b          	addiw	t2,t2,563
    80000a74:	1c771a63          	bne	a4,t2,80000c48 <fail>

0000000080000a78 <test_60>:
    80000a78:	03c00193          	li	gp,60
    80000a7c:	00001117          	auipc	sp,0x1
    80000a80:	58410113          	addi	sp,sp,1412 # 80002000 <begin_signature>
    80000a84:	300110b7          	lui	ra,0x30011
    80000a88:	2230809b          	addiw	ra,ra,547
    80000a8c:	00113423          	sd	ra,8(sp)
    80000a90:	00813703          	ld	a4,8(sp)
    80000a94:	300113b7          	lui	t2,0x30011
    80000a98:	2233839b          	addiw	t2,t2,547
    80000a9c:	1a771663          	bne	a4,t2,80000c48 <fail>

0000000080000aa0 <test_61>:
    80000aa0:	03d00193          	li	gp,61
    80000aa4:	00001117          	auipc	sp,0x1
    80000aa8:	55c10113          	addi	sp,sp,1372 # 80002000 <begin_signature>
    80000aac:	330010b7          	lui	ra,0x33001
    80000ab0:	1220809b          	addiw	ra,ra,290
    80000ab4:	00113823          	sd	ra,16(sp)
    80000ab8:	01013703          	ld	a4,16(sp)
    80000abc:	330013b7          	lui	t2,0x33001
    80000ac0:	1223839b          	addiw	t2,t2,290
    80000ac4:	18771263          	bne	a4,t2,80000c48 <fail>

0000000080000ac8 <test_62>:
    80000ac8:	03e00193          	li	gp,62
    80000acc:	00001117          	auipc	sp,0x1
    80000ad0:	53410113          	addi	sp,sp,1332 # 80002000 <begin_signature>
    80000ad4:	233000b7          	lui	ra,0x23300
    80000ad8:	1120809b          	addiw	ra,ra,274
    80000adc:	00113c23          	sd	ra,24(sp)
    80000ae0:	01813703          	ld	a4,24(sp)
    80000ae4:	233003b7          	lui	t2,0x23300
    80000ae8:	1123839b          	addiw	t2,t2,274
    80000aec:	14771e63          	bne	a4,t2,80000c48 <fail>

0000000080000af0 <test_63>:
    80000af0:	03f00193          	li	gp,63
    80000af4:	00001117          	auipc	sp,0x1
    80000af8:	50c10113          	addi	sp,sp,1292 # 80002000 <begin_signature>
    80000afc:	223300b7          	lui	ra,0x22330
    80000b00:	0110809b          	addiw	ra,ra,17
    80000b04:	02113023          	sd	ra,32(sp)
    80000b08:	02013703          	ld	a4,32(sp)
    80000b0c:	223303b7          	lui	t2,0x22330
    80000b10:	0113839b          	addiw	t2,t2,17
    80000b14:	12771a63          	bne	a4,t2,80000c48 <fail>

0000000080000b18 <test_64>:
    80000b18:	04000193          	li	gp,64
    80000b1c:	00001117          	auipc	sp,0x1
    80000b20:	4e410113          	addi	sp,sp,1252 # 80002000 <begin_signature>
    80000b24:	122330b7          	lui	ra,0x12233
    80000b28:	0010809b          	addiw	ra,ra,1
    80000b2c:	02113423          	sd	ra,40(sp)
    80000b30:	02813703          	ld	a4,40(sp)
    80000b34:	122333b7          	lui	t2,0x12233
    80000b38:	0013839b          	addiw	t2,t2,1
    80000b3c:	10771663          	bne	a4,t2,80000c48 <fail>

0000000080000b40 <test_65>:
    80000b40:	04100193          	li	gp,65
    80000b44:	00001117          	auipc	sp,0x1
    80000b48:	4bc10113          	addi	sp,sp,1212 # 80002000 <begin_signature>
    80000b4c:	001120b7          	lui	ra,0x112
    80000b50:	2330809b          	addiw	ra,ra,563
    80000b54:	00112023          	sw	ra,0(sp)
    80000b58:	00016703          	lwu	a4,0(sp)
    80000b5c:	001123b7          	lui	t2,0x112
    80000b60:	2333839b          	addiw	t2,t2,563
    80000b64:	0e771263          	bne	a4,t2,80000c48 <fail>

0000000080000b68 <test_66>:
    80000b68:	04200193          	li	gp,66
    80000b6c:	00001117          	auipc	sp,0x1
    80000b70:	49410113          	addi	sp,sp,1172 # 80002000 <begin_signature>
    80000b74:	330010b7          	lui	ra,0x33001
    80000b78:	1220809b          	addiw	ra,ra,290
    80000b7c:	00112423          	sw	ra,8(sp)
    80000b80:	00816703          	lwu	a4,8(sp)
    80000b84:	330013b7          	lui	t2,0x33001
    80000b88:	1223839b          	addiw	t2,t2,290
    80000b8c:	0a771e63          	bne	a4,t2,80000c48 <fail>

0000000080000b90 <test_67>:
    80000b90:	04300193          	li	gp,67
    80000b94:	00001117          	auipc	sp,0x1
    80000b98:	46c10113          	addi	sp,sp,1132 # 80002000 <begin_signature>
    80000b9c:	300110b7          	lui	ra,0x30011
    80000ba0:	2230809b          	addiw	ra,ra,547
    80000ba4:	00112223          	sw	ra,4(sp)
    80000ba8:	00416703          	lwu	a4,4(sp)
    80000bac:	300113b7          	lui	t2,0x30011
    80000bb0:	2233839b          	addiw	t2,t2,547
    80000bb4:	08771a63          	bne	a4,t2,80000c48 <fail>

0000000080000bb8 <test_68>:
    80000bb8:	04400193          	li	gp,68
    80000bbc:	00001117          	auipc	sp,0x1
    80000bc0:	44410113          	addi	sp,sp,1092 # 80002000 <begin_signature>
    80000bc4:	233000b7          	lui	ra,0x23300
    80000bc8:	1120809b          	addiw	ra,ra,274
    80000bcc:	00112623          	sw	ra,12(sp)
    80000bd0:	00c16703          	lwu	a4,12(sp)
    80000bd4:	233003b7          	lui	t2,0x23300
    80000bd8:	1123839b          	addiw	t2,t2,274
    80000bdc:	06771663          	bne	a4,t2,80000c48 <fail>

0000000080000be0 <test_69>:
    80000be0:	04500193          	li	gp,69
    80000be4:	00001117          	auipc	sp,0x1
    80000be8:	41c10113          	addi	sp,sp,1052 # 80002000 <begin_signature>
    80000bec:	223300b7          	lui	ra,0x22330
    80000bf0:	0110809b          	addiw	ra,ra,17
    80000bf4:	00112823          	sw	ra,16(sp)
    80000bf8:	01016703          	lwu	a4,16(sp)
    80000bfc:	223303b7          	lui	t2,0x22330
    80000c00:	0113839b          	addiw	t2,t2,17
    80000c04:	04771263          	bne	a4,t2,80000c48 <fail>

0000000080000c08 <test_70>:
    80000c08:	04600193          	li	gp,70
    80000c0c:	00001117          	auipc	sp,0x1
    80000c10:	3f410113          	addi	sp,sp,1012 # 80002000 <begin_signature>
    80000c14:	122330b7          	lui	ra,0x12233
    80000c18:	0010809b          	addiw	ra,ra,1
    80000c1c:	00112a23          	sw	ra,20(sp)
    80000c20:	01416703          	lwu	a4,20(sp)
    80000c24:	122333b7          	lui	t2,0x12233
    80000c28:	0013839b          	addiw	t2,t2,1
    80000c2c:	00771e63          	bne	a4,t2,80000c48 <fail>
    80000c30:	0ef00513          	li	a0,239
    80000c34:	00001597          	auipc	a1,0x1
    80000c38:	3cc58593          	addi	a1,a1,972 # 80002000 <begin_signature>
    80000c3c:	00a581a3          	sb	a0,3(a1)
    80000c40:	00358603          	lb	a2,3(a1)
    80000c44:	02301063          	bne	zero,gp,80000c64 <pass>

0000000080000c48 <fail>:
    80000c48:	0ff0000f          	fence
    80000c4c:	00018063          	beqz	gp,80000c4c <fail+0x4>
    80000c50:	00119193          	slli	gp,gp,0x1
    80000c54:	0011e193          	ori	gp,gp,1
    80000c58:	05d00893          	li	a7,93
    80000c5c:	00018513          	mv	a0,gp
    80000c60:	00000073          	ecall

0000000080000c64 <pass>:
    80000c64:	0ff0000f          	fence
    80000c68:	00100193          	li	gp,1
    80000c6c:	05d00893          	li	a7,93
    80000c70:	00000513          	li	a0,0
    80000c74:	00000073          	ecall
    80000c78:	c0001073          	unimp
    80000c7c:	0000                	unimp
    80000c7e:	0000                	unimp
    80000c80:	0000                	unimp
    80000c82:	0000                	unimp
    80000c84:	0000                	unimp
    80000c86:	0000                	unimp
    80000c88:	0000                	unimp
    80000c8a:	0000                	unimp
    80000c8c:	0000                	unimp
    80000c8e:	0000                	unimp
    80000c90:	0000                	unimp
    80000c92:	0000                	unimp
    80000c94:	0000                	unimp
    80000c96:	0000                	unimp
    80000c98:	0000                	unimp
    80000c9a:	0000                	unimp
    80000c9c:	0000                	unimp
    80000c9e:	0000                	unimp
    80000ca0:	0000                	unimp
    80000ca2:	0000                	unimp
    80000ca4:	0000                	unimp
    80000ca6:	0000                	unimp
    80000ca8:	0000                	unimp
    80000caa:	0000                	unimp
    80000cac:	0000                	unimp
    80000cae:	0000                	unimp
    80000cb0:	0000                	unimp
