
rv64ui-p-ld_st:     file format elf64-littleriscv


Disassembly of section .text.init:

0000000080000000 <_start>:
    80000000:	0540006f          	j	80000054 <reset_vector>

0000000080000004 <trap_vector>:
    80000004:	34202f73          	csrr	t5,mcause
    80000008:	00800f93          	li	t6,8
    8000000c:	03ff0a63          	beq	t5,t6,80000040 <write_tohost>
    80000010:	00900f93          	li	t6,9
    80000014:	03ff0663          	beq	t5,t6,80000040 <write_tohost>
    80000018:	00b00f93          	li	t6,11
    8000001c:	03ff0263          	beq	t5,t6,80000040 <write_tohost>
    80000020:	80000f17          	auipc	t5,0x80000
    80000024:	fe0f0f13          	addi	t5,t5,-32 # 0 <_start-0x80000000>
    80000028:	000f0463          	beqz	t5,80000030 <trap_vector+0x2c>
    8000002c:	000f0067          	jr	t5
    80000030:	34202f73          	csrr	t5,mcause
    80000034:	000f5463          	bgez	t5,8000003c <handle_exception>
    80000038:	0040006f          	j	8000003c <handle_exception>

000000008000003c <handle_exception>:
    8000003c:	5391e193          	ori	gp,gp,1337

0000000080000040 <write_tohost>:
    80000040:	00002f17          	auipc	t5,0x2
    80000044:	fc3f2023          	sw	gp,-64(t5) # 80002000 <tohost>
    80000048:	00002f17          	auipc	t5,0x2
    8000004c:	fa0f2e23          	sw	zero,-68(t5) # 80002004 <tohost+0x4>
    80000050:	ff1ff06f          	j	80000040 <write_tohost>

0000000080000054 <reset_vector>:
    80000054:	00000093          	li	ra,0
    80000058:	00000113          	li	sp,0
    8000005c:	00000193          	li	gp,0
    80000060:	00000213          	li	tp,0
    80000064:	00000293          	li	t0,0
    80000068:	00000313          	li	t1,0
    8000006c:	00000393          	li	t2,0
    80000070:	00000413          	li	s0,0
    80000074:	00000493          	li	s1,0
    80000078:	00000513          	li	a0,0
    8000007c:	00000593          	li	a1,0
    80000080:	00000613          	li	a2,0
    80000084:	00000693          	li	a3,0
    80000088:	00000713          	li	a4,0
    8000008c:	00000793          	li	a5,0
    80000090:	00000813          	li	a6,0
    80000094:	00000893          	li	a7,0
    80000098:	00000913          	li	s2,0
    8000009c:	00000993          	li	s3,0
    800000a0:	00000a13          	li	s4,0
    800000a4:	00000a93          	li	s5,0
    800000a8:	00000b13          	li	s6,0
    800000ac:	00000b93          	li	s7,0
    800000b0:	00000c13          	li	s8,0
    800000b4:	00000c93          	li	s9,0
    800000b8:	00000d13          	li	s10,0
    800000bc:	00000d93          	li	s11,0
    800000c0:	00000e13          	li	t3,0
    800000c4:	00000e93          	li	t4,0
    800000c8:	00000f13          	li	t5,0
    800000cc:	00000f93          	li	t6,0
    800000d0:	f1402573          	csrr	a0,mhartid
    800000d4:	00051063          	bnez	a0,800000d4 <reset_vector+0x80>
    800000d8:	00000297          	auipc	t0,0x0
    800000dc:	01028293          	addi	t0,t0,16 # 800000e8 <reset_vector+0x94>
    800000e0:	30529073          	csrw	mtvec,t0
    800000e4:	74445073          	csrwi	0x744,8
    800000e8:	00000297          	auipc	t0,0x0
    800000ec:	01028293          	addi	t0,t0,16 # 800000f8 <reset_vector+0xa4>
    800000f0:	30529073          	csrw	mtvec,t0
    800000f4:	18005073          	csrwi	sptbr,0
    800000f8:	00000297          	auipc	t0,0x0
    800000fc:	02428293          	addi	t0,t0,36 # 8000011c <reset_vector+0xc8>
    80000100:	30529073          	csrw	mtvec,t0
    80000104:	0010029b          	addiw	t0,zero,1
    80000108:	03529293          	slli	t0,t0,0x35
    8000010c:	fff28293          	addi	t0,t0,-1
    80000110:	3b029073          	csrw	pmpaddr0,t0
    80000114:	01f00293          	li	t0,31
    80000118:	3a029073          	csrw	pmpcfg0,t0
    8000011c:	30405073          	csrwi	mie,0
    80000120:	00000297          	auipc	t0,0x0
    80000124:	01428293          	addi	t0,t0,20 # 80000134 <reset_vector+0xe0>
    80000128:	30529073          	csrw	mtvec,t0
    8000012c:	30205073          	csrwi	medeleg,0
    80000130:	30305073          	csrwi	mideleg,0
    80000134:	00000193          	li	gp,0
    80000138:	00000297          	auipc	t0,0x0
    8000013c:	ecc28293          	addi	t0,t0,-308 # 80000004 <trap_vector>
    80000140:	30529073          	csrw	mtvec,t0
    80000144:	00100513          	li	a0,1
    80000148:	01f51513          	slli	a0,a0,0x1f
    8000014c:	00055c63          	bgez	a0,80000164 <reset_vector+0x110>
    80000150:	0ff0000f          	fence
    80000154:	00100193          	li	gp,1
    80000158:	05d00893          	li	a7,93
    8000015c:	00000513          	li	a0,0
    80000160:	00000073          	ecall
    80000164:	80000297          	auipc	t0,0x80000
    80000168:	e9c28293          	addi	t0,t0,-356 # 0 <_start-0x80000000>
    8000016c:	00028a63          	beqz	t0,80000180 <reset_vector+0x12c>
    80000170:	10529073          	csrw	stvec,t0
    80000174:	0000b2b7          	lui	t0,0xb
    80000178:	1092829b          	addiw	t0,t0,265
    8000017c:	30229073          	csrw	medeleg,t0
    80000180:	30005073          	csrwi	mstatus,0
    80000184:	00000297          	auipc	t0,0x0
    80000188:	01428293          	addi	t0,t0,20 # 80000198 <test_2>
    8000018c:	34129073          	csrw	mepc,t0
    80000190:	f1402573          	csrr	a0,mhartid
    80000194:	30200073          	mret

0000000080000198 <test_2>:
    80000198:	00200193          	li	gp,2
    8000019c:	00003117          	auipc	sp,0x3
    800001a0:	e6410113          	addi	sp,sp,-412 # 80003000 <begin_signature>
    800001a4:	fdd00093          	li	ra,-35
    800001a8:	00110023          	sb	ra,0(sp)
    800001ac:	00010703          	lb	a4,0(sp)
    800001b0:	00e10023          	sb	a4,0(sp)
    800001b4:	00010103          	lb	sp,0(sp)
    800001b8:	fdd00393          	li	t2,-35
    800001bc:	00710463          	beq	sp,t2,800001c4 <test_2+0x2c>
    800001c0:	6340106f          	j	800017f4 <fail>
    800001c4:	00003117          	auipc	sp,0x3
    800001c8:	e3c10113          	addi	sp,sp,-452 # 80003000 <begin_signature>
    800001cc:	00213423          	sd	sp,8(sp)
    800001d0:	00813203          	ld	tp,8(sp)
    800001d4:	00120023          	sb	ra,0(tp) # 0 <_start-0x80000000>
    800001d8:	00220463          	beq	tp,sp,800001e0 <test_2+0x48>
    800001dc:	6180106f          	j	800017f4 <fail>
    800001e0:	00020703          	lb	a4,0(tp) # 0 <_start-0x80000000>
    800001e4:	00770463          	beq	a4,t2,800001ec <test_3>
    800001e8:	60c0106f          	j	800017f4 <fail>

00000000800001ec <test_3>:
    800001ec:	00300193          	li	gp,3
    800001f0:	00003117          	auipc	sp,0x3
    800001f4:	e1010113          	addi	sp,sp,-496 # 80003000 <begin_signature>
    800001f8:	fcd00093          	li	ra,-51
    800001fc:	001100a3          	sb	ra,1(sp)
    80000200:	00110703          	lb	a4,1(sp)
    80000204:	00e100a3          	sb	a4,1(sp)
    80000208:	00110103          	lb	sp,1(sp)
    8000020c:	fcd00393          	li	t2,-51
    80000210:	00710463          	beq	sp,t2,80000218 <test_3+0x2c>
    80000214:	5e00106f          	j	800017f4 <fail>
    80000218:	00003117          	auipc	sp,0x3
    8000021c:	de810113          	addi	sp,sp,-536 # 80003000 <begin_signature>
    80000220:	00213423          	sd	sp,8(sp)
    80000224:	00813203          	ld	tp,8(sp)
    80000228:	001200a3          	sb	ra,1(tp) # 1 <_start-0x7fffffff>
    8000022c:	00220463          	beq	tp,sp,80000234 <test_3+0x48>
    80000230:	5c40106f          	j	800017f4 <fail>
    80000234:	00120703          	lb	a4,1(tp) # 1 <_start-0x7fffffff>
    80000238:	00770463          	beq	a4,t2,80000240 <test_4>
    8000023c:	5b80106f          	j	800017f4 <fail>

0000000080000240 <test_4>:
    80000240:	00400193          	li	gp,4
    80000244:	00003117          	auipc	sp,0x3
    80000248:	dbc10113          	addi	sp,sp,-580 # 80003000 <begin_signature>
    8000024c:	fcc00093          	li	ra,-52
    80000250:	00110123          	sb	ra,2(sp)
    80000254:	00210703          	lb	a4,2(sp)
    80000258:	00e10123          	sb	a4,2(sp)
    8000025c:	00210103          	lb	sp,2(sp)
    80000260:	fcc00393          	li	t2,-52
    80000264:	00710463          	beq	sp,t2,8000026c <test_4+0x2c>
    80000268:	58c0106f          	j	800017f4 <fail>
    8000026c:	00003117          	auipc	sp,0x3
    80000270:	d9410113          	addi	sp,sp,-620 # 80003000 <begin_signature>
    80000274:	00213423          	sd	sp,8(sp)
    80000278:	00813203          	ld	tp,8(sp)
    8000027c:	00120123          	sb	ra,2(tp) # 2 <_start-0x7ffffffe>
    80000280:	00220463          	beq	tp,sp,80000288 <test_4+0x48>
    80000284:	5700106f          	j	800017f4 <fail>
    80000288:	00220703          	lb	a4,2(tp) # 2 <_start-0x7ffffffe>
    8000028c:	00770463          	beq	a4,t2,80000294 <test_5>
    80000290:	5640106f          	j	800017f4 <fail>

0000000080000294 <test_5>:
    80000294:	00500193          	li	gp,5
    80000298:	00003117          	auipc	sp,0x3
    8000029c:	d6810113          	addi	sp,sp,-664 # 80003000 <begin_signature>
    800002a0:	fbc00093          	li	ra,-68
    800002a4:	001101a3          	sb	ra,3(sp)
    800002a8:	00310703          	lb	a4,3(sp)
    800002ac:	00e101a3          	sb	a4,3(sp)
    800002b0:	00310103          	lb	sp,3(sp)
    800002b4:	fbc00393          	li	t2,-68
    800002b8:	00710463          	beq	sp,t2,800002c0 <test_5+0x2c>
    800002bc:	5380106f          	j	800017f4 <fail>
    800002c0:	00003117          	auipc	sp,0x3
    800002c4:	d4010113          	addi	sp,sp,-704 # 80003000 <begin_signature>
    800002c8:	00213423          	sd	sp,8(sp)
    800002cc:	00813203          	ld	tp,8(sp)
    800002d0:	001201a3          	sb	ra,3(tp) # 3 <_start-0x7ffffffd>
    800002d4:	00220463          	beq	tp,sp,800002dc <test_5+0x48>
    800002d8:	51c0106f          	j	800017f4 <fail>
    800002dc:	00320703          	lb	a4,3(tp) # 3 <_start-0x7ffffffd>
    800002e0:	00770463          	beq	a4,t2,800002e8 <test_6>
    800002e4:	5100106f          	j	800017f4 <fail>

00000000800002e8 <test_6>:
    800002e8:	00600193          	li	gp,6
    800002ec:	00003117          	auipc	sp,0x3
    800002f0:	d1410113          	addi	sp,sp,-748 # 80003000 <begin_signature>
    800002f4:	fbb00093          	li	ra,-69
    800002f8:	00110223          	sb	ra,4(sp)
    800002fc:	00410703          	lb	a4,4(sp)
    80000300:	00e10223          	sb	a4,4(sp)
    80000304:	00410103          	lb	sp,4(sp)
    80000308:	fbb00393          	li	t2,-69
    8000030c:	00710463          	beq	sp,t2,80000314 <test_6+0x2c>
    80000310:	4e40106f          	j	800017f4 <fail>
    80000314:	00003117          	auipc	sp,0x3
    80000318:	cec10113          	addi	sp,sp,-788 # 80003000 <begin_signature>
    8000031c:	00213423          	sd	sp,8(sp)
    80000320:	00813203          	ld	tp,8(sp)
    80000324:	00120223          	sb	ra,4(tp) # 4 <_start-0x7ffffffc>
    80000328:	00220463          	beq	tp,sp,80000330 <test_6+0x48>
    8000032c:	4c80106f          	j	800017f4 <fail>
    80000330:	00420703          	lb	a4,4(tp) # 4 <_start-0x7ffffffc>
    80000334:	00770463          	beq	a4,t2,8000033c <test_7>
    80000338:	4bc0106f          	j	800017f4 <fail>

000000008000033c <test_7>:
    8000033c:	00700193          	li	gp,7
    80000340:	00003117          	auipc	sp,0x3
    80000344:	cc010113          	addi	sp,sp,-832 # 80003000 <begin_signature>
    80000348:	fab00093          	li	ra,-85
    8000034c:	001102a3          	sb	ra,5(sp)
    80000350:	00510703          	lb	a4,5(sp)
    80000354:	00e102a3          	sb	a4,5(sp)
    80000358:	00510103          	lb	sp,5(sp)
    8000035c:	fab00393          	li	t2,-85
    80000360:	00710463          	beq	sp,t2,80000368 <test_7+0x2c>
    80000364:	4900106f          	j	800017f4 <fail>
    80000368:	00003117          	auipc	sp,0x3
    8000036c:	c9810113          	addi	sp,sp,-872 # 80003000 <begin_signature>
    80000370:	00213423          	sd	sp,8(sp)
    80000374:	00813203          	ld	tp,8(sp)
    80000378:	001202a3          	sb	ra,5(tp) # 5 <_start-0x7ffffffb>
    8000037c:	00220463          	beq	tp,sp,80000384 <test_7+0x48>
    80000380:	4740106f          	j	800017f4 <fail>
    80000384:	00520703          	lb	a4,5(tp) # 5 <_start-0x7ffffffb>
    80000388:	00770463          	beq	a4,t2,80000390 <test_8>
    8000038c:	4680106f          	j	800017f4 <fail>

0000000080000390 <test_8>:
    80000390:	00800193          	li	gp,8
    80000394:	00003117          	auipc	sp,0x3
    80000398:	c6c10113          	addi	sp,sp,-916 # 80003000 <begin_signature>
    8000039c:	03300093          	li	ra,51
    800003a0:	00110023          	sb	ra,0(sp)
    800003a4:	00010703          	lb	a4,0(sp)
    800003a8:	00e10023          	sb	a4,0(sp)
    800003ac:	00010103          	lb	sp,0(sp)
    800003b0:	03300393          	li	t2,51
    800003b4:	00710463          	beq	sp,t2,800003bc <test_8+0x2c>
    800003b8:	43c0106f          	j	800017f4 <fail>
    800003bc:	00003117          	auipc	sp,0x3
    800003c0:	c4410113          	addi	sp,sp,-956 # 80003000 <begin_signature>
    800003c4:	00213423          	sd	sp,8(sp)
    800003c8:	00813203          	ld	tp,8(sp)
    800003cc:	00120023          	sb	ra,0(tp) # 0 <_start-0x80000000>
    800003d0:	00220463          	beq	tp,sp,800003d8 <test_8+0x48>
    800003d4:	4200106f          	j	800017f4 <fail>
    800003d8:	00020703          	lb	a4,0(tp) # 0 <_start-0x80000000>
    800003dc:	00770463          	beq	a4,t2,800003e4 <test_9>
    800003e0:	4140106f          	j	800017f4 <fail>

00000000800003e4 <test_9>:
    800003e4:	00900193          	li	gp,9
    800003e8:	00003117          	auipc	sp,0x3
    800003ec:	c1810113          	addi	sp,sp,-1000 # 80003000 <begin_signature>
    800003f0:	02300093          	li	ra,35
    800003f4:	001100a3          	sb	ra,1(sp)
    800003f8:	00110703          	lb	a4,1(sp)
    800003fc:	00e100a3          	sb	a4,1(sp)
    80000400:	00110103          	lb	sp,1(sp)
    80000404:	02300393          	li	t2,35
    80000408:	00710463          	beq	sp,t2,80000410 <test_9+0x2c>
    8000040c:	3e80106f          	j	800017f4 <fail>
    80000410:	00003117          	auipc	sp,0x3
    80000414:	bf010113          	addi	sp,sp,-1040 # 80003000 <begin_signature>
    80000418:	00213423          	sd	sp,8(sp)
    8000041c:	00813203          	ld	tp,8(sp)
    80000420:	001200a3          	sb	ra,1(tp) # 1 <_start-0x7fffffff>
    80000424:	00220463          	beq	tp,sp,8000042c <test_9+0x48>
    80000428:	3cc0106f          	j	800017f4 <fail>
    8000042c:	00120703          	lb	a4,1(tp) # 1 <_start-0x7fffffff>
    80000430:	00770463          	beq	a4,t2,80000438 <test_10>
    80000434:	3c00106f          	j	800017f4 <fail>

0000000080000438 <test_10>:
    80000438:	00a00193          	li	gp,10
    8000043c:	00003117          	auipc	sp,0x3
    80000440:	bc410113          	addi	sp,sp,-1084 # 80003000 <begin_signature>
    80000444:	02200093          	li	ra,34
    80000448:	00110123          	sb	ra,2(sp)
    8000044c:	00210703          	lb	a4,2(sp)
    80000450:	00e10123          	sb	a4,2(sp)
    80000454:	00210103          	lb	sp,2(sp)
    80000458:	02200393          	li	t2,34
    8000045c:	00710463          	beq	sp,t2,80000464 <test_10+0x2c>
    80000460:	3940106f          	j	800017f4 <fail>
    80000464:	00003117          	auipc	sp,0x3
    80000468:	b9c10113          	addi	sp,sp,-1124 # 80003000 <begin_signature>
    8000046c:	00213423          	sd	sp,8(sp)
    80000470:	00813203          	ld	tp,8(sp)
    80000474:	00120123          	sb	ra,2(tp) # 2 <_start-0x7ffffffe>
    80000478:	00220463          	beq	tp,sp,80000480 <test_10+0x48>
    8000047c:	3780106f          	j	800017f4 <fail>
    80000480:	00220703          	lb	a4,2(tp) # 2 <_start-0x7ffffffe>
    80000484:	00770463          	beq	a4,t2,8000048c <test_11>
    80000488:	36c0106f          	j	800017f4 <fail>

000000008000048c <test_11>:
    8000048c:	00b00193          	li	gp,11
    80000490:	00003117          	auipc	sp,0x3
    80000494:	b7010113          	addi	sp,sp,-1168 # 80003000 <begin_signature>
    80000498:	01200093          	li	ra,18
    8000049c:	001101a3          	sb	ra,3(sp)
    800004a0:	00310703          	lb	a4,3(sp)
    800004a4:	00e101a3          	sb	a4,3(sp)
    800004a8:	00310103          	lb	sp,3(sp)
    800004ac:	01200393          	li	t2,18
    800004b0:	00710463          	beq	sp,t2,800004b8 <test_11+0x2c>
    800004b4:	3400106f          	j	800017f4 <fail>
    800004b8:	00003117          	auipc	sp,0x3
    800004bc:	b4810113          	addi	sp,sp,-1208 # 80003000 <begin_signature>
    800004c0:	00213423          	sd	sp,8(sp)
    800004c4:	00813203          	ld	tp,8(sp)
    800004c8:	001201a3          	sb	ra,3(tp) # 3 <_start-0x7ffffffd>
    800004cc:	00220463          	beq	tp,sp,800004d4 <test_11+0x48>
    800004d0:	3240106f          	j	800017f4 <fail>
    800004d4:	00320703          	lb	a4,3(tp) # 3 <_start-0x7ffffffd>
    800004d8:	00770463          	beq	a4,t2,800004e0 <test_12>
    800004dc:	3180106f          	j	800017f4 <fail>

00000000800004e0 <test_12>:
    800004e0:	00c00193          	li	gp,12
    800004e4:	00003117          	auipc	sp,0x3
    800004e8:	b1c10113          	addi	sp,sp,-1252 # 80003000 <begin_signature>
    800004ec:	01100093          	li	ra,17
    800004f0:	00110223          	sb	ra,4(sp)
    800004f4:	00410703          	lb	a4,4(sp)
    800004f8:	00e10223          	sb	a4,4(sp)
    800004fc:	00410103          	lb	sp,4(sp)
    80000500:	01100393          	li	t2,17
    80000504:	00710463          	beq	sp,t2,8000050c <test_12+0x2c>
    80000508:	2ec0106f          	j	800017f4 <fail>
    8000050c:	00003117          	auipc	sp,0x3
    80000510:	af410113          	addi	sp,sp,-1292 # 80003000 <begin_signature>
    80000514:	00213423          	sd	sp,8(sp)
    80000518:	00813203          	ld	tp,8(sp)
    8000051c:	00120223          	sb	ra,4(tp) # 4 <_start-0x7ffffffc>
    80000520:	00220463          	beq	tp,sp,80000528 <test_12+0x48>
    80000524:	2d00106f          	j	800017f4 <fail>
    80000528:	00420703          	lb	a4,4(tp) # 4 <_start-0x7ffffffc>
    8000052c:	00770463          	beq	a4,t2,80000534 <test_13>
    80000530:	2c40106f          	j	800017f4 <fail>

0000000080000534 <test_13>:
    80000534:	00d00193          	li	gp,13
    80000538:	00003117          	auipc	sp,0x3
    8000053c:	ac810113          	addi	sp,sp,-1336 # 80003000 <begin_signature>
    80000540:	00100093          	li	ra,1
    80000544:	001102a3          	sb	ra,5(sp)
    80000548:	00510703          	lb	a4,5(sp)
    8000054c:	00e102a3          	sb	a4,5(sp)
    80000550:	00510103          	lb	sp,5(sp)
    80000554:	00100393          	li	t2,1
    80000558:	00710463          	beq	sp,t2,80000560 <test_13+0x2c>
    8000055c:	2980106f          	j	800017f4 <fail>
    80000560:	00003117          	auipc	sp,0x3
    80000564:	aa010113          	addi	sp,sp,-1376 # 80003000 <begin_signature>
    80000568:	00213423          	sd	sp,8(sp)
    8000056c:	00813203          	ld	tp,8(sp)
    80000570:	001202a3          	sb	ra,5(tp) # 5 <_start-0x7ffffffb>
    80000574:	00220463          	beq	tp,sp,8000057c <test_13+0x48>
    80000578:	27c0106f          	j	800017f4 <fail>
    8000057c:	00520703          	lb	a4,5(tp) # 5 <_start-0x7ffffffb>
    80000580:	00770463          	beq	a4,t2,80000588 <test_14>
    80000584:	2700106f          	j	800017f4 <fail>

0000000080000588 <test_14>:
    80000588:	00e00193          	li	gp,14
    8000058c:	00003117          	auipc	sp,0x3
    80000590:	a7410113          	addi	sp,sp,-1420 # 80003000 <begin_signature>
    80000594:	03300093          	li	ra,51
    80000598:	00110023          	sb	ra,0(sp)
    8000059c:	00014703          	lbu	a4,0(sp)
    800005a0:	00e10023          	sb	a4,0(sp)
    800005a4:	00014103          	lbu	sp,0(sp)
    800005a8:	03300393          	li	t2,51
    800005ac:	00710463          	beq	sp,t2,800005b4 <test_14+0x2c>
    800005b0:	2440106f          	j	800017f4 <fail>
    800005b4:	00003117          	auipc	sp,0x3
    800005b8:	a4c10113          	addi	sp,sp,-1460 # 80003000 <begin_signature>
    800005bc:	00213423          	sd	sp,8(sp)
    800005c0:	00813203          	ld	tp,8(sp)
    800005c4:	00120023          	sb	ra,0(tp) # 0 <_start-0x80000000>
    800005c8:	00220463          	beq	tp,sp,800005d0 <test_14+0x48>
    800005cc:	2280106f          	j	800017f4 <fail>
    800005d0:	00024703          	lbu	a4,0(tp) # 0 <_start-0x80000000>
    800005d4:	00770463          	beq	a4,t2,800005dc <test_15>
    800005d8:	21c0106f          	j	800017f4 <fail>

00000000800005dc <test_15>:
    800005dc:	00f00193          	li	gp,15
    800005e0:	00003117          	auipc	sp,0x3
    800005e4:	a2010113          	addi	sp,sp,-1504 # 80003000 <begin_signature>
    800005e8:	02300093          	li	ra,35
    800005ec:	001100a3          	sb	ra,1(sp)
    800005f0:	00114703          	lbu	a4,1(sp)
    800005f4:	00e100a3          	sb	a4,1(sp)
    800005f8:	00114103          	lbu	sp,1(sp)
    800005fc:	02300393          	li	t2,35
    80000600:	00710463          	beq	sp,t2,80000608 <test_15+0x2c>
    80000604:	1f00106f          	j	800017f4 <fail>
    80000608:	00003117          	auipc	sp,0x3
    8000060c:	9f810113          	addi	sp,sp,-1544 # 80003000 <begin_signature>
    80000610:	00213423          	sd	sp,8(sp)
    80000614:	00813203          	ld	tp,8(sp)
    80000618:	001200a3          	sb	ra,1(tp) # 1 <_start-0x7fffffff>
    8000061c:	00220463          	beq	tp,sp,80000624 <test_15+0x48>
    80000620:	1d40106f          	j	800017f4 <fail>
    80000624:	00124703          	lbu	a4,1(tp) # 1 <_start-0x7fffffff>
    80000628:	00770463          	beq	a4,t2,80000630 <test_16>
    8000062c:	1c80106f          	j	800017f4 <fail>

0000000080000630 <test_16>:
    80000630:	01000193          	li	gp,16
    80000634:	00003117          	auipc	sp,0x3
    80000638:	9cc10113          	addi	sp,sp,-1588 # 80003000 <begin_signature>
    8000063c:	02200093          	li	ra,34
    80000640:	00110123          	sb	ra,2(sp)
    80000644:	00214703          	lbu	a4,2(sp)
    80000648:	00e10123          	sb	a4,2(sp)
    8000064c:	00214103          	lbu	sp,2(sp)
    80000650:	02200393          	li	t2,34
    80000654:	00710463          	beq	sp,t2,8000065c <test_16+0x2c>
    80000658:	19c0106f          	j	800017f4 <fail>
    8000065c:	00003117          	auipc	sp,0x3
    80000660:	9a410113          	addi	sp,sp,-1628 # 80003000 <begin_signature>
    80000664:	00213423          	sd	sp,8(sp)
    80000668:	00813203          	ld	tp,8(sp)
    8000066c:	00120123          	sb	ra,2(tp) # 2 <_start-0x7ffffffe>
    80000670:	00220463          	beq	tp,sp,80000678 <test_16+0x48>
    80000674:	1800106f          	j	800017f4 <fail>
    80000678:	00224703          	lbu	a4,2(tp) # 2 <_start-0x7ffffffe>
    8000067c:	00770463          	beq	a4,t2,80000684 <test_17>
    80000680:	1740106f          	j	800017f4 <fail>

0000000080000684 <test_17>:
    80000684:	01100193          	li	gp,17
    80000688:	00003117          	auipc	sp,0x3
    8000068c:	97810113          	addi	sp,sp,-1672 # 80003000 <begin_signature>
    80000690:	01200093          	li	ra,18
    80000694:	001101a3          	sb	ra,3(sp)
    80000698:	00314703          	lbu	a4,3(sp)
    8000069c:	00e101a3          	sb	a4,3(sp)
    800006a0:	00314103          	lbu	sp,3(sp)
    800006a4:	01200393          	li	t2,18
    800006a8:	00710463          	beq	sp,t2,800006b0 <test_17+0x2c>
    800006ac:	1480106f          	j	800017f4 <fail>
    800006b0:	00003117          	auipc	sp,0x3
    800006b4:	95010113          	addi	sp,sp,-1712 # 80003000 <begin_signature>
    800006b8:	00213423          	sd	sp,8(sp)
    800006bc:	00813203          	ld	tp,8(sp)
    800006c0:	001201a3          	sb	ra,3(tp) # 3 <_start-0x7ffffffd>
    800006c4:	00220463          	beq	tp,sp,800006cc <test_17+0x48>
    800006c8:	12c0106f          	j	800017f4 <fail>
    800006cc:	00324703          	lbu	a4,3(tp) # 3 <_start-0x7ffffffd>
    800006d0:	00770463          	beq	a4,t2,800006d8 <test_18>
    800006d4:	1200106f          	j	800017f4 <fail>

00000000800006d8 <test_18>:
    800006d8:	01200193          	li	gp,18
    800006dc:	00003117          	auipc	sp,0x3
    800006e0:	92410113          	addi	sp,sp,-1756 # 80003000 <begin_signature>
    800006e4:	01100093          	li	ra,17
    800006e8:	00110223          	sb	ra,4(sp)
    800006ec:	00414703          	lbu	a4,4(sp)
    800006f0:	00e10223          	sb	a4,4(sp)
    800006f4:	00414103          	lbu	sp,4(sp)
    800006f8:	01100393          	li	t2,17
    800006fc:	00710463          	beq	sp,t2,80000704 <test_18+0x2c>
    80000700:	0f40106f          	j	800017f4 <fail>
    80000704:	00003117          	auipc	sp,0x3
    80000708:	8fc10113          	addi	sp,sp,-1796 # 80003000 <begin_signature>
    8000070c:	00213423          	sd	sp,8(sp)
    80000710:	00813203          	ld	tp,8(sp)
    80000714:	00120223          	sb	ra,4(tp) # 4 <_start-0x7ffffffc>
    80000718:	00220463          	beq	tp,sp,80000720 <test_18+0x48>
    8000071c:	0d80106f          	j	800017f4 <fail>
    80000720:	00424703          	lbu	a4,4(tp) # 4 <_start-0x7ffffffc>
    80000724:	00770463          	beq	a4,t2,8000072c <test_19>
    80000728:	0cc0106f          	j	800017f4 <fail>

000000008000072c <test_19>:
    8000072c:	01300193          	li	gp,19
    80000730:	00003117          	auipc	sp,0x3
    80000734:	8d010113          	addi	sp,sp,-1840 # 80003000 <begin_signature>
    80000738:	00100093          	li	ra,1
    8000073c:	001102a3          	sb	ra,5(sp)
    80000740:	00514703          	lbu	a4,5(sp)
    80000744:	00e102a3          	sb	a4,5(sp)
    80000748:	00514103          	lbu	sp,5(sp)
    8000074c:	00100393          	li	t2,1
    80000750:	00710463          	beq	sp,t2,80000758 <test_19+0x2c>
    80000754:	0a00106f          	j	800017f4 <fail>
    80000758:	00003117          	auipc	sp,0x3
    8000075c:	8a810113          	addi	sp,sp,-1880 # 80003000 <begin_signature>
    80000760:	00213423          	sd	sp,8(sp)
    80000764:	00813203          	ld	tp,8(sp)
    80000768:	001202a3          	sb	ra,5(tp) # 5 <_start-0x7ffffffb>
    8000076c:	00220463          	beq	tp,sp,80000774 <test_19+0x48>
    80000770:	0840106f          	j	800017f4 <fail>
    80000774:	00524703          	lbu	a4,5(tp) # 5 <_start-0x7ffffffb>
    80000778:	00770463          	beq	a4,t2,80000780 <test_20>
    8000077c:	0780106f          	j	800017f4 <fail>

0000000080000780 <test_20>:
    80000780:	01400193          	li	gp,20
    80000784:	00003117          	auipc	sp,0x3
    80000788:	87c10113          	addi	sp,sp,-1924 # 80003000 <begin_signature>
    8000078c:	aabbd0b7          	lui	ra,0xaabbd
    80000790:	cdd0809b          	addiw	ra,ra,-803
    80000794:	00112023          	sw	ra,0(sp)
    80000798:	00012703          	lw	a4,0(sp)
    8000079c:	00e12023          	sw	a4,0(sp)
    800007a0:	00012103          	lw	sp,0(sp)
    800007a4:	aabbd3b7          	lui	t2,0xaabbd
    800007a8:	cdd3839b          	addiw	t2,t2,-803
    800007ac:	00710463          	beq	sp,t2,800007b4 <test_20+0x34>
    800007b0:	0440106f          	j	800017f4 <fail>
    800007b4:	00003117          	auipc	sp,0x3
    800007b8:	84c10113          	addi	sp,sp,-1972 # 80003000 <begin_signature>
    800007bc:	00213423          	sd	sp,8(sp)
    800007c0:	00813203          	ld	tp,8(sp)
    800007c4:	00122023          	sw	ra,0(tp) # 0 <_start-0x80000000>
    800007c8:	00220463          	beq	tp,sp,800007d0 <test_20+0x50>
    800007cc:	0280106f          	j	800017f4 <fail>
    800007d0:	00022703          	lw	a4,0(tp) # 0 <_start-0x80000000>
    800007d4:	00770463          	beq	a4,t2,800007dc <test_21>
    800007d8:	01c0106f          	j	800017f4 <fail>

00000000800007dc <test_21>:
    800007dc:	01500193          	li	gp,21
    800007e0:	00003117          	auipc	sp,0x3
    800007e4:	82010113          	addi	sp,sp,-2016 # 80003000 <begin_signature>
    800007e8:	daabc0b7          	lui	ra,0xdaabc
    800007ec:	ccd0809b          	addiw	ra,ra,-819
    800007f0:	00112223          	sw	ra,4(sp)
    800007f4:	00412703          	lw	a4,4(sp)
    800007f8:	00e12223          	sw	a4,4(sp)
    800007fc:	00412103          	lw	sp,4(sp)
    80000800:	daabc3b7          	lui	t2,0xdaabc
    80000804:	ccd3839b          	addiw	t2,t2,-819
    80000808:	7e7116e3          	bne	sp,t2,800017f4 <fail>
    8000080c:	00002117          	auipc	sp,0x2
    80000810:	7f410113          	addi	sp,sp,2036 # 80003000 <begin_signature>
    80000814:	00213423          	sd	sp,8(sp)
    80000818:	00813203          	ld	tp,8(sp)
    8000081c:	00122223          	sw	ra,4(tp) # 4 <_start-0x7ffffffc>
    80000820:	7c221ae3          	bne	tp,sp,800017f4 <fail>
    80000824:	00422703          	lw	a4,4(tp) # 4 <_start-0x7ffffffc>
    80000828:	7c7716e3          	bne	a4,t2,800017f4 <fail>

000000008000082c <test_22>:
    8000082c:	01600193          	li	gp,22
    80000830:	00002117          	auipc	sp,0x2
    80000834:	7d010113          	addi	sp,sp,2000 # 80003000 <begin_signature>
    80000838:	ddaac0b7          	lui	ra,0xddaac
    8000083c:	bcc0809b          	addiw	ra,ra,-1076
    80000840:	00112423          	sw	ra,8(sp)
    80000844:	00812703          	lw	a4,8(sp)
    80000848:	00e12423          	sw	a4,8(sp)
    8000084c:	00812103          	lw	sp,8(sp)
    80000850:	ddaac3b7          	lui	t2,0xddaac
    80000854:	bcc3839b          	addiw	t2,t2,-1076
    80000858:	78711ee3          	bne	sp,t2,800017f4 <fail>
    8000085c:	00002117          	auipc	sp,0x2
    80000860:	7a410113          	addi	sp,sp,1956 # 80003000 <begin_signature>
    80000864:	00213423          	sd	sp,8(sp)
    80000868:	00813203          	ld	tp,8(sp)
    8000086c:	00122423          	sw	ra,8(tp) # 8 <_start-0x7ffffff8>
    80000870:	782212e3          	bne	tp,sp,800017f4 <fail>
    80000874:	00822703          	lw	a4,8(tp) # 8 <_start-0x7ffffff8>
    80000878:	76771ee3          	bne	a4,t2,800017f4 <fail>

000000008000087c <test_23>:
    8000087c:	01700193          	li	gp,23
    80000880:	00002117          	auipc	sp,0x2
    80000884:	78010113          	addi	sp,sp,1920 # 80003000 <begin_signature>
    80000888:	cddab0b7          	lui	ra,0xcddab
    8000088c:	bbc0809b          	addiw	ra,ra,-1092
    80000890:	00112623          	sw	ra,12(sp)
    80000894:	00c12703          	lw	a4,12(sp)
    80000898:	00e12623          	sw	a4,12(sp)
    8000089c:	00c12103          	lw	sp,12(sp)
    800008a0:	cddab3b7          	lui	t2,0xcddab
    800008a4:	bbc3839b          	addiw	t2,t2,-1092
    800008a8:	747116e3          	bne	sp,t2,800017f4 <fail>
    800008ac:	00002117          	auipc	sp,0x2
    800008b0:	75410113          	addi	sp,sp,1876 # 80003000 <begin_signature>
    800008b4:	00213423          	sd	sp,8(sp)
    800008b8:	00813203          	ld	tp,8(sp)
    800008bc:	00122623          	sw	ra,12(tp) # c <_start-0x7ffffff4>
    800008c0:	72221ae3          	bne	tp,sp,800017f4 <fail>
    800008c4:	00c22703          	lw	a4,12(tp) # c <_start-0x7ffffff4>
    800008c8:	727716e3          	bne	a4,t2,800017f4 <fail>

00000000800008cc <test_24>:
    800008cc:	01800193          	li	gp,24
    800008d0:	00002117          	auipc	sp,0x2
    800008d4:	73010113          	addi	sp,sp,1840 # 80003000 <begin_signature>
    800008d8:	ccddb0b7          	lui	ra,0xccddb
    800008dc:	abb0809b          	addiw	ra,ra,-1349
    800008e0:	00112823          	sw	ra,16(sp)
    800008e4:	01012703          	lw	a4,16(sp)
    800008e8:	00e12823          	sw	a4,16(sp)
    800008ec:	01012103          	lw	sp,16(sp)
    800008f0:	ccddb3b7          	lui	t2,0xccddb
    800008f4:	abb3839b          	addiw	t2,t2,-1349
    800008f8:	6e711ee3          	bne	sp,t2,800017f4 <fail>
    800008fc:	00002117          	auipc	sp,0x2
    80000900:	70410113          	addi	sp,sp,1796 # 80003000 <begin_signature>
    80000904:	00213423          	sd	sp,8(sp)
    80000908:	00813203          	ld	tp,8(sp)
    8000090c:	00122823          	sw	ra,16(tp) # 10 <_start-0x7ffffff0>
    80000910:	6e2212e3          	bne	tp,sp,800017f4 <fail>
    80000914:	01022703          	lw	a4,16(tp) # 10 <_start-0x7ffffff0>
    80000918:	6c771ee3          	bne	a4,t2,800017f4 <fail>

000000008000091c <test_25>:
    8000091c:	01900193          	li	gp,25
    80000920:	00002117          	auipc	sp,0x2
    80000924:	6e010113          	addi	sp,sp,1760 # 80003000 <begin_signature>
    80000928:	bccde0b7          	lui	ra,0xbccde
    8000092c:	aab0809b          	addiw	ra,ra,-1365
    80000930:	00112a23          	sw	ra,20(sp)
    80000934:	01412703          	lw	a4,20(sp)
    80000938:	00e12a23          	sw	a4,20(sp)
    8000093c:	01412103          	lw	sp,20(sp)
    80000940:	bccde3b7          	lui	t2,0xbccde
    80000944:	aab3839b          	addiw	t2,t2,-1365
    80000948:	6a7116e3          	bne	sp,t2,800017f4 <fail>
    8000094c:	00002117          	auipc	sp,0x2
    80000950:	6b410113          	addi	sp,sp,1716 # 80003000 <begin_signature>
    80000954:	00213423          	sd	sp,8(sp)
    80000958:	00813203          	ld	tp,8(sp)
    8000095c:	00122a23          	sw	ra,20(tp) # 14 <_start-0x7fffffec>
    80000960:	68221ae3          	bne	tp,sp,800017f4 <fail>
    80000964:	01422703          	lw	a4,20(tp) # 14 <_start-0x7fffffec>
    80000968:	687716e3          	bne	a4,t2,800017f4 <fail>

000000008000096c <test_26>:
    8000096c:	01a00193          	li	gp,26
    80000970:	00002117          	auipc	sp,0x2
    80000974:	69010113          	addi	sp,sp,1680 # 80003000 <begin_signature>
    80000978:	001120b7          	lui	ra,0x112
    8000097c:	2330809b          	addiw	ra,ra,563
    80000980:	00112023          	sw	ra,0(sp)
    80000984:	00012703          	lw	a4,0(sp)
    80000988:	00e12023          	sw	a4,0(sp)
    8000098c:	00012103          	lw	sp,0(sp)
    80000990:	001123b7          	lui	t2,0x112
    80000994:	2333839b          	addiw	t2,t2,563
    80000998:	64711ee3          	bne	sp,t2,800017f4 <fail>
    8000099c:	00002117          	auipc	sp,0x2
    800009a0:	66410113          	addi	sp,sp,1636 # 80003000 <begin_signature>
    800009a4:	00213423          	sd	sp,8(sp)
    800009a8:	00813203          	ld	tp,8(sp)
    800009ac:	00122023          	sw	ra,0(tp) # 0 <_start-0x80000000>
    800009b0:	642212e3          	bne	tp,sp,800017f4 <fail>
    800009b4:	00022703          	lw	a4,0(tp) # 0 <_start-0x80000000>
    800009b8:	62771ee3          	bne	a4,t2,800017f4 <fail>

00000000800009bc <test_27>:
    800009bc:	01b00193          	li	gp,27
    800009c0:	00002117          	auipc	sp,0x2
    800009c4:	64010113          	addi	sp,sp,1600 # 80003000 <begin_signature>
    800009c8:	300110b7          	lui	ra,0x30011
    800009cc:	2230809b          	addiw	ra,ra,547
    800009d0:	00112223          	sw	ra,4(sp)
    800009d4:	00412703          	lw	a4,4(sp)
    800009d8:	00e12223          	sw	a4,4(sp)
    800009dc:	00412103          	lw	sp,4(sp)
    800009e0:	300113b7          	lui	t2,0x30011
    800009e4:	2233839b          	addiw	t2,t2,547
    800009e8:	607116e3          	bne	sp,t2,800017f4 <fail>
    800009ec:	00002117          	auipc	sp,0x2
    800009f0:	61410113          	addi	sp,sp,1556 # 80003000 <begin_signature>
    800009f4:	00213423          	sd	sp,8(sp)
    800009f8:	00813203          	ld	tp,8(sp)
    800009fc:	00122223          	sw	ra,4(tp) # 4 <_start-0x7ffffffc>
    80000a00:	5e221ae3          	bne	tp,sp,800017f4 <fail>
    80000a04:	00422703          	lw	a4,4(tp) # 4 <_start-0x7ffffffc>
    80000a08:	5e7716e3          	bne	a4,t2,800017f4 <fail>

0000000080000a0c <test_28>:
    80000a0c:	01c00193          	li	gp,28
    80000a10:	00002117          	auipc	sp,0x2
    80000a14:	5f010113          	addi	sp,sp,1520 # 80003000 <begin_signature>
    80000a18:	330010b7          	lui	ra,0x33001
    80000a1c:	1220809b          	addiw	ra,ra,290
    80000a20:	00112423          	sw	ra,8(sp)
    80000a24:	00812703          	lw	a4,8(sp)
    80000a28:	00e12423          	sw	a4,8(sp)
    80000a2c:	00812103          	lw	sp,8(sp)
    80000a30:	330013b7          	lui	t2,0x33001
    80000a34:	1223839b          	addiw	t2,t2,290
    80000a38:	5a711ee3          	bne	sp,t2,800017f4 <fail>
    80000a3c:	00002117          	auipc	sp,0x2
    80000a40:	5c410113          	addi	sp,sp,1476 # 80003000 <begin_signature>
    80000a44:	00213423          	sd	sp,8(sp)
    80000a48:	00813203          	ld	tp,8(sp)
    80000a4c:	00122423          	sw	ra,8(tp) # 8 <_start-0x7ffffff8>
    80000a50:	5a2212e3          	bne	tp,sp,800017f4 <fail>
    80000a54:	00822703          	lw	a4,8(tp) # 8 <_start-0x7ffffff8>
    80000a58:	58771ee3          	bne	a4,t2,800017f4 <fail>

0000000080000a5c <test_29>:
    80000a5c:	01d00193          	li	gp,29
    80000a60:	00002117          	auipc	sp,0x2
    80000a64:	5a010113          	addi	sp,sp,1440 # 80003000 <begin_signature>
    80000a68:	233000b7          	lui	ra,0x23300
    80000a6c:	1120809b          	addiw	ra,ra,274
    80000a70:	00112623          	sw	ra,12(sp)
    80000a74:	00c12703          	lw	a4,12(sp)
    80000a78:	00e12623          	sw	a4,12(sp)
    80000a7c:	00c12103          	lw	sp,12(sp)
    80000a80:	233003b7          	lui	t2,0x23300
    80000a84:	1123839b          	addiw	t2,t2,274
    80000a88:	567116e3          	bne	sp,t2,800017f4 <fail>
    80000a8c:	00002117          	auipc	sp,0x2
    80000a90:	57410113          	addi	sp,sp,1396 # 80003000 <begin_signature>
    80000a94:	00213423          	sd	sp,8(sp)
    80000a98:	00813203          	ld	tp,8(sp)
    80000a9c:	00122623          	sw	ra,12(tp) # c <_start-0x7ffffff4>
    80000aa0:	54221ae3          	bne	tp,sp,800017f4 <fail>
    80000aa4:	00c22703          	lw	a4,12(tp) # c <_start-0x7ffffff4>
    80000aa8:	547716e3          	bne	a4,t2,800017f4 <fail>

0000000080000aac <test_30>:
    80000aac:	01e00193          	li	gp,30
    80000ab0:	00002117          	auipc	sp,0x2
    80000ab4:	55010113          	addi	sp,sp,1360 # 80003000 <begin_signature>
    80000ab8:	223300b7          	lui	ra,0x22330
    80000abc:	0110809b          	addiw	ra,ra,17
    80000ac0:	00112823          	sw	ra,16(sp)
    80000ac4:	01012703          	lw	a4,16(sp)
    80000ac8:	00e12823          	sw	a4,16(sp)
    80000acc:	01012103          	lw	sp,16(sp)
    80000ad0:	223303b7          	lui	t2,0x22330
    80000ad4:	0113839b          	addiw	t2,t2,17
    80000ad8:	50711ee3          	bne	sp,t2,800017f4 <fail>
    80000adc:	00002117          	auipc	sp,0x2
    80000ae0:	52410113          	addi	sp,sp,1316 # 80003000 <begin_signature>
    80000ae4:	00213423          	sd	sp,8(sp)
    80000ae8:	00813203          	ld	tp,8(sp)
    80000aec:	00122823          	sw	ra,16(tp) # 10 <_start-0x7ffffff0>
    80000af0:	502212e3          	bne	tp,sp,800017f4 <fail>
    80000af4:	01022703          	lw	a4,16(tp) # 10 <_start-0x7ffffff0>
    80000af8:	4e771ee3          	bne	a4,t2,800017f4 <fail>

0000000080000afc <test_31>:
    80000afc:	01f00193          	li	gp,31
    80000b00:	00002117          	auipc	sp,0x2
    80000b04:	50010113          	addi	sp,sp,1280 # 80003000 <begin_signature>
    80000b08:	122330b7          	lui	ra,0x12233
    80000b0c:	0010809b          	addiw	ra,ra,1
    80000b10:	00112a23          	sw	ra,20(sp)
    80000b14:	01412703          	lw	a4,20(sp)
    80000b18:	00e12a23          	sw	a4,20(sp)
    80000b1c:	01412103          	lw	sp,20(sp)
    80000b20:	122333b7          	lui	t2,0x12233
    80000b24:	0013839b          	addiw	t2,t2,1
    80000b28:	4c7116e3          	bne	sp,t2,800017f4 <fail>
    80000b2c:	00002117          	auipc	sp,0x2
    80000b30:	4d410113          	addi	sp,sp,1236 # 80003000 <begin_signature>
    80000b34:	00213423          	sd	sp,8(sp)
    80000b38:	00813203          	ld	tp,8(sp)
    80000b3c:	00122a23          	sw	ra,20(tp) # 14 <_start-0x7fffffec>
    80000b40:	4a221ae3          	bne	tp,sp,800017f4 <fail>
    80000b44:	01422703          	lw	a4,20(tp) # 14 <_start-0x7fffffec>
    80000b48:	4a7716e3          	bne	a4,t2,800017f4 <fail>

0000000080000b4c <test_32>:
    80000b4c:	02000193          	li	gp,32
    80000b50:	00002117          	auipc	sp,0x2
    80000b54:	4b010113          	addi	sp,sp,1200 # 80003000 <begin_signature>
    80000b58:	ffffd0b7          	lui	ra,0xffffd
    80000b5c:	cdd0809b          	addiw	ra,ra,-803
    80000b60:	00111023          	sh	ra,0(sp)
    80000b64:	00011703          	lh	a4,0(sp)
    80000b68:	00e11023          	sh	a4,0(sp)
    80000b6c:	00011103          	lh	sp,0(sp)
    80000b70:	ffffd3b7          	lui	t2,0xffffd
    80000b74:	cdd3839b          	addiw	t2,t2,-803
    80000b78:	46711ee3          	bne	sp,t2,800017f4 <fail>
    80000b7c:	00002117          	auipc	sp,0x2
    80000b80:	48410113          	addi	sp,sp,1156 # 80003000 <begin_signature>
    80000b84:	00213423          	sd	sp,8(sp)
    80000b88:	00813203          	ld	tp,8(sp)
    80000b8c:	00121023          	sh	ra,0(tp) # 0 <_start-0x80000000>
    80000b90:	462212e3          	bne	tp,sp,800017f4 <fail>
    80000b94:	00021703          	lh	a4,0(tp) # 0 <_start-0x80000000>
    80000b98:	44771ee3          	bne	a4,t2,800017f4 <fail>

0000000080000b9c <test_33>:
    80000b9c:	02100193          	li	gp,33
    80000ba0:	00002117          	auipc	sp,0x2
    80000ba4:	46010113          	addi	sp,sp,1120 # 80003000 <begin_signature>
    80000ba8:	ffffc0b7          	lui	ra,0xffffc
    80000bac:	ccd0809b          	addiw	ra,ra,-819
    80000bb0:	00111123          	sh	ra,2(sp)
    80000bb4:	00211703          	lh	a4,2(sp)
    80000bb8:	00e11123          	sh	a4,2(sp)
    80000bbc:	00211103          	lh	sp,2(sp)
    80000bc0:	ffffc3b7          	lui	t2,0xffffc
    80000bc4:	ccd3839b          	addiw	t2,t2,-819
    80000bc8:	427116e3          	bne	sp,t2,800017f4 <fail>
    80000bcc:	00002117          	auipc	sp,0x2
    80000bd0:	43410113          	addi	sp,sp,1076 # 80003000 <begin_signature>
    80000bd4:	00213423          	sd	sp,8(sp)
    80000bd8:	00813203          	ld	tp,8(sp)
    80000bdc:	00121123          	sh	ra,2(tp) # 2 <_start-0x7ffffffe>
    80000be0:	40221ae3          	bne	tp,sp,800017f4 <fail>
    80000be4:	00221703          	lh	a4,2(tp) # 2 <_start-0x7ffffffe>
    80000be8:	407716e3          	bne	a4,t2,800017f4 <fail>

0000000080000bec <test_34>:
    80000bec:	02200193          	li	gp,34
    80000bf0:	00002117          	auipc	sp,0x2
    80000bf4:	41010113          	addi	sp,sp,1040 # 80003000 <begin_signature>
    80000bf8:	ffffc0b7          	lui	ra,0xffffc
    80000bfc:	bcc0809b          	addiw	ra,ra,-1076
    80000c00:	00111223          	sh	ra,4(sp)
    80000c04:	00411703          	lh	a4,4(sp)
    80000c08:	00e11223          	sh	a4,4(sp)
    80000c0c:	00411103          	lh	sp,4(sp)
    80000c10:	ffffc3b7          	lui	t2,0xffffc
    80000c14:	bcc3839b          	addiw	t2,t2,-1076
    80000c18:	3c711ee3          	bne	sp,t2,800017f4 <fail>
    80000c1c:	00002117          	auipc	sp,0x2
    80000c20:	3e410113          	addi	sp,sp,996 # 80003000 <begin_signature>
    80000c24:	00213423          	sd	sp,8(sp)
    80000c28:	00813203          	ld	tp,8(sp)
    80000c2c:	00121223          	sh	ra,4(tp) # 4 <_start-0x7ffffffc>
    80000c30:	3c2212e3          	bne	tp,sp,800017f4 <fail>
    80000c34:	00421703          	lh	a4,4(tp) # 4 <_start-0x7ffffffc>
    80000c38:	3a771ee3          	bne	a4,t2,800017f4 <fail>

0000000080000c3c <test_35>:
    80000c3c:	02300193          	li	gp,35
    80000c40:	00002117          	auipc	sp,0x2
    80000c44:	3c010113          	addi	sp,sp,960 # 80003000 <begin_signature>
    80000c48:	ffffb0b7          	lui	ra,0xffffb
    80000c4c:	bbc0809b          	addiw	ra,ra,-1092
    80000c50:	00111323          	sh	ra,6(sp)
    80000c54:	00611703          	lh	a4,6(sp)
    80000c58:	00e11323          	sh	a4,6(sp)
    80000c5c:	00611103          	lh	sp,6(sp)
    80000c60:	ffffb3b7          	lui	t2,0xffffb
    80000c64:	bbc3839b          	addiw	t2,t2,-1092
    80000c68:	387116e3          	bne	sp,t2,800017f4 <fail>
    80000c6c:	00002117          	auipc	sp,0x2
    80000c70:	39410113          	addi	sp,sp,916 # 80003000 <begin_signature>
    80000c74:	00213423          	sd	sp,8(sp)
    80000c78:	00813203          	ld	tp,8(sp)
    80000c7c:	00121323          	sh	ra,6(tp) # 6 <_start-0x7ffffffa>
    80000c80:	36221ae3          	bne	tp,sp,800017f4 <fail>
    80000c84:	00621703          	lh	a4,6(tp) # 6 <_start-0x7ffffffa>
    80000c88:	367716e3          	bne	a4,t2,800017f4 <fail>

0000000080000c8c <test_36>:
    80000c8c:	02400193          	li	gp,36
    80000c90:	00002117          	auipc	sp,0x2
    80000c94:	37010113          	addi	sp,sp,880 # 80003000 <begin_signature>
    80000c98:	ffffb0b7          	lui	ra,0xffffb
    80000c9c:	abb0809b          	addiw	ra,ra,-1349
    80000ca0:	00111423          	sh	ra,8(sp)
    80000ca4:	00811703          	lh	a4,8(sp)
    80000ca8:	00e11423          	sh	a4,8(sp)
    80000cac:	00811103          	lh	sp,8(sp)
    80000cb0:	ffffb3b7          	lui	t2,0xffffb
    80000cb4:	abb3839b          	addiw	t2,t2,-1349
    80000cb8:	32711ee3          	bne	sp,t2,800017f4 <fail>
    80000cbc:	00002117          	auipc	sp,0x2
    80000cc0:	34410113          	addi	sp,sp,836 # 80003000 <begin_signature>
    80000cc4:	00213423          	sd	sp,8(sp)
    80000cc8:	00813203          	ld	tp,8(sp)
    80000ccc:	00121423          	sh	ra,8(tp) # 8 <_start-0x7ffffff8>
    80000cd0:	322212e3          	bne	tp,sp,800017f4 <fail>
    80000cd4:	00821703          	lh	a4,8(tp) # 8 <_start-0x7ffffff8>
    80000cd8:	30771ee3          	bne	a4,t2,800017f4 <fail>

0000000080000cdc <test_37>:
    80000cdc:	02500193          	li	gp,37
    80000ce0:	00002117          	auipc	sp,0x2
    80000ce4:	32010113          	addi	sp,sp,800 # 80003000 <begin_signature>
    80000ce8:	ffffe0b7          	lui	ra,0xffffe
    80000cec:	aab0809b          	addiw	ra,ra,-1365
    80000cf0:	00111523          	sh	ra,10(sp)
    80000cf4:	00a11703          	lh	a4,10(sp)
    80000cf8:	00e11523          	sh	a4,10(sp)
    80000cfc:	00a11103          	lh	sp,10(sp)
    80000d00:	ffffe3b7          	lui	t2,0xffffe
    80000d04:	aab3839b          	addiw	t2,t2,-1365
    80000d08:	2e7116e3          	bne	sp,t2,800017f4 <fail>
    80000d0c:	00002117          	auipc	sp,0x2
    80000d10:	2f410113          	addi	sp,sp,756 # 80003000 <begin_signature>
    80000d14:	00213423          	sd	sp,8(sp)
    80000d18:	00813203          	ld	tp,8(sp)
    80000d1c:	00121523          	sh	ra,10(tp) # a <_start-0x7ffffff6>
    80000d20:	2c221ae3          	bne	tp,sp,800017f4 <fail>
    80000d24:	00a21703          	lh	a4,10(tp) # a <_start-0x7ffffff6>
    80000d28:	2c7716e3          	bne	a4,t2,800017f4 <fail>

0000000080000d2c <test_38>:
    80000d2c:	02600193          	li	gp,38
    80000d30:	00002117          	auipc	sp,0x2
    80000d34:	2d010113          	addi	sp,sp,720 # 80003000 <begin_signature>
    80000d38:	000020b7          	lui	ra,0x2
    80000d3c:	2330809b          	addiw	ra,ra,563
    80000d40:	00111023          	sh	ra,0(sp)
    80000d44:	00011703          	lh	a4,0(sp)
    80000d48:	00e11023          	sh	a4,0(sp)
    80000d4c:	00011103          	lh	sp,0(sp)
    80000d50:	000023b7          	lui	t2,0x2
    80000d54:	2333839b          	addiw	t2,t2,563
    80000d58:	28711ee3          	bne	sp,t2,800017f4 <fail>
    80000d5c:	00002117          	auipc	sp,0x2
    80000d60:	2a410113          	addi	sp,sp,676 # 80003000 <begin_signature>
    80000d64:	00213423          	sd	sp,8(sp)
    80000d68:	00813203          	ld	tp,8(sp)
    80000d6c:	00121023          	sh	ra,0(tp) # 0 <_start-0x80000000>
    80000d70:	282212e3          	bne	tp,sp,800017f4 <fail>
    80000d74:	00021703          	lh	a4,0(tp) # 0 <_start-0x80000000>
    80000d78:	26771ee3          	bne	a4,t2,800017f4 <fail>

0000000080000d7c <test_39>:
    80000d7c:	02700193          	li	gp,39
    80000d80:	00002117          	auipc	sp,0x2
    80000d84:	28010113          	addi	sp,sp,640 # 80003000 <begin_signature>
    80000d88:	000010b7          	lui	ra,0x1
    80000d8c:	2230809b          	addiw	ra,ra,547
    80000d90:	00111123          	sh	ra,2(sp)
    80000d94:	00211703          	lh	a4,2(sp)
    80000d98:	00e11123          	sh	a4,2(sp)
    80000d9c:	00211103          	lh	sp,2(sp)
    80000da0:	000013b7          	lui	t2,0x1
    80000da4:	2233839b          	addiw	t2,t2,547
    80000da8:	247116e3          	bne	sp,t2,800017f4 <fail>
    80000dac:	00002117          	auipc	sp,0x2
    80000db0:	25410113          	addi	sp,sp,596 # 80003000 <begin_signature>
    80000db4:	00213423          	sd	sp,8(sp)
    80000db8:	00813203          	ld	tp,8(sp)
    80000dbc:	00121123          	sh	ra,2(tp) # 2 <_start-0x7ffffffe>
    80000dc0:	22221ae3          	bne	tp,sp,800017f4 <fail>
    80000dc4:	00221703          	lh	a4,2(tp) # 2 <_start-0x7ffffffe>
    80000dc8:	227716e3          	bne	a4,t2,800017f4 <fail>

0000000080000dcc <test_40>:
    80000dcc:	02800193          	li	gp,40
    80000dd0:	00002117          	auipc	sp,0x2
    80000dd4:	23010113          	addi	sp,sp,560 # 80003000 <begin_signature>
    80000dd8:	000010b7          	lui	ra,0x1
    80000ddc:	1220809b          	addiw	ra,ra,290
    80000de0:	00111223          	sh	ra,4(sp)
    80000de4:	00411703          	lh	a4,4(sp)
    80000de8:	00e11223          	sh	a4,4(sp)
    80000dec:	00411103          	lh	sp,4(sp)
    80000df0:	000013b7          	lui	t2,0x1
    80000df4:	1223839b          	addiw	t2,t2,290
    80000df8:	1e711ee3          	bne	sp,t2,800017f4 <fail>
    80000dfc:	00002117          	auipc	sp,0x2
    80000e00:	20410113          	addi	sp,sp,516 # 80003000 <begin_signature>
    80000e04:	00213423          	sd	sp,8(sp)
    80000e08:	00813203          	ld	tp,8(sp)
    80000e0c:	00121223          	sh	ra,4(tp) # 4 <_start-0x7ffffffc>
    80000e10:	1e2212e3          	bne	tp,sp,800017f4 <fail>
    80000e14:	00421703          	lh	a4,4(tp) # 4 <_start-0x7ffffffc>
    80000e18:	1c771ee3          	bne	a4,t2,800017f4 <fail>

0000000080000e1c <test_41>:
    80000e1c:	02900193          	li	gp,41
    80000e20:	00002117          	auipc	sp,0x2
    80000e24:	1e010113          	addi	sp,sp,480 # 80003000 <begin_signature>
    80000e28:	11200093          	li	ra,274
    80000e2c:	00111323          	sh	ra,6(sp)
    80000e30:	00611703          	lh	a4,6(sp)
    80000e34:	00e11323          	sh	a4,6(sp)
    80000e38:	00611103          	lh	sp,6(sp)
    80000e3c:	11200393          	li	t2,274
    80000e40:	1a711ae3          	bne	sp,t2,800017f4 <fail>
    80000e44:	00002117          	auipc	sp,0x2
    80000e48:	1bc10113          	addi	sp,sp,444 # 80003000 <begin_signature>
    80000e4c:	00213423          	sd	sp,8(sp)
    80000e50:	00813203          	ld	tp,8(sp)
    80000e54:	00121323          	sh	ra,6(tp) # 6 <_start-0x7ffffffa>
    80000e58:	18221ee3          	bne	tp,sp,800017f4 <fail>
    80000e5c:	00621703          	lh	a4,6(tp) # 6 <_start-0x7ffffffa>
    80000e60:	18771ae3          	bne	a4,t2,800017f4 <fail>

0000000080000e64 <test_42>:
    80000e64:	02a00193          	li	gp,42
    80000e68:	00002117          	auipc	sp,0x2
    80000e6c:	19810113          	addi	sp,sp,408 # 80003000 <begin_signature>
    80000e70:	01100093          	li	ra,17
    80000e74:	00111423          	sh	ra,8(sp)
    80000e78:	00811703          	lh	a4,8(sp)
    80000e7c:	00e11423          	sh	a4,8(sp)
    80000e80:	00811103          	lh	sp,8(sp)
    80000e84:	01100393          	li	t2,17
    80000e88:	167116e3          	bne	sp,t2,800017f4 <fail>
    80000e8c:	00002117          	auipc	sp,0x2
    80000e90:	17410113          	addi	sp,sp,372 # 80003000 <begin_signature>
    80000e94:	00213423          	sd	sp,8(sp)
    80000e98:	00813203          	ld	tp,8(sp)
    80000e9c:	00121423          	sh	ra,8(tp) # 8 <_start-0x7ffffff8>
    80000ea0:	14221ae3          	bne	tp,sp,800017f4 <fail>
    80000ea4:	00821703          	lh	a4,8(tp) # 8 <_start-0x7ffffff8>
    80000ea8:	147716e3          	bne	a4,t2,800017f4 <fail>

0000000080000eac <test_43>:
    80000eac:	02b00193          	li	gp,43
    80000eb0:	00002117          	auipc	sp,0x2
    80000eb4:	15010113          	addi	sp,sp,336 # 80003000 <begin_signature>
    80000eb8:	000030b7          	lui	ra,0x3
    80000ebc:	0010809b          	addiw	ra,ra,1
    80000ec0:	00111523          	sh	ra,10(sp)
    80000ec4:	00a11703          	lh	a4,10(sp)
    80000ec8:	00e11523          	sh	a4,10(sp)
    80000ecc:	00a11103          	lh	sp,10(sp)
    80000ed0:	000033b7          	lui	t2,0x3
    80000ed4:	0013839b          	addiw	t2,t2,1
    80000ed8:	10711ee3          	bne	sp,t2,800017f4 <fail>
    80000edc:	00002117          	auipc	sp,0x2
    80000ee0:	12410113          	addi	sp,sp,292 # 80003000 <begin_signature>
    80000ee4:	00213423          	sd	sp,8(sp)
    80000ee8:	00813203          	ld	tp,8(sp)
    80000eec:	00121523          	sh	ra,10(tp) # a <_start-0x7ffffff6>
    80000ef0:	102212e3          	bne	tp,sp,800017f4 <fail>
    80000ef4:	00a21703          	lh	a4,10(tp) # a <_start-0x7ffffff6>
    80000ef8:	0e771ee3          	bne	a4,t2,800017f4 <fail>

0000000080000efc <test_44>:
    80000efc:	02c00193          	li	gp,44
    80000f00:	00002117          	auipc	sp,0x2
    80000f04:	10010113          	addi	sp,sp,256 # 80003000 <begin_signature>
    80000f08:	000020b7          	lui	ra,0x2
    80000f0c:	2330809b          	addiw	ra,ra,563
    80000f10:	00111023          	sh	ra,0(sp)
    80000f14:	00015703          	lhu	a4,0(sp)
    80000f18:	00e11023          	sh	a4,0(sp)
    80000f1c:	00015103          	lhu	sp,0(sp)
    80000f20:	000023b7          	lui	t2,0x2
    80000f24:	2333839b          	addiw	t2,t2,563
    80000f28:	0c7116e3          	bne	sp,t2,800017f4 <fail>
    80000f2c:	00002117          	auipc	sp,0x2
    80000f30:	0d410113          	addi	sp,sp,212 # 80003000 <begin_signature>
    80000f34:	00213423          	sd	sp,8(sp)
    80000f38:	00813203          	ld	tp,8(sp)
    80000f3c:	00121023          	sh	ra,0(tp) # 0 <_start-0x80000000>
    80000f40:	0a221ae3          	bne	tp,sp,800017f4 <fail>
    80000f44:	00025703          	lhu	a4,0(tp) # 0 <_start-0x80000000>
    80000f48:	0a7716e3          	bne	a4,t2,800017f4 <fail>

0000000080000f4c <test_45>:
    80000f4c:	02d00193          	li	gp,45
    80000f50:	00002117          	auipc	sp,0x2
    80000f54:	0b010113          	addi	sp,sp,176 # 80003000 <begin_signature>
    80000f58:	000010b7          	lui	ra,0x1
    80000f5c:	2230809b          	addiw	ra,ra,547
    80000f60:	00111123          	sh	ra,2(sp)
    80000f64:	00215703          	lhu	a4,2(sp)
    80000f68:	00e11123          	sh	a4,2(sp)
    80000f6c:	00215103          	lhu	sp,2(sp)
    80000f70:	000013b7          	lui	t2,0x1
    80000f74:	2233839b          	addiw	t2,t2,547
    80000f78:	06711ee3          	bne	sp,t2,800017f4 <fail>
    80000f7c:	00002117          	auipc	sp,0x2
    80000f80:	08410113          	addi	sp,sp,132 # 80003000 <begin_signature>
    80000f84:	00213423          	sd	sp,8(sp)
    80000f88:	00813203          	ld	tp,8(sp)
    80000f8c:	00121123          	sh	ra,2(tp) # 2 <_start-0x7ffffffe>
    80000f90:	062212e3          	bne	tp,sp,800017f4 <fail>
    80000f94:	00225703          	lhu	a4,2(tp) # 2 <_start-0x7ffffffe>
    80000f98:	04771ee3          	bne	a4,t2,800017f4 <fail>

0000000080000f9c <test_46>:
    80000f9c:	02e00193          	li	gp,46
    80000fa0:	00002117          	auipc	sp,0x2
    80000fa4:	06010113          	addi	sp,sp,96 # 80003000 <begin_signature>
    80000fa8:	000010b7          	lui	ra,0x1
    80000fac:	1220809b          	addiw	ra,ra,290
    80000fb0:	00111223          	sh	ra,4(sp)
    80000fb4:	00415703          	lhu	a4,4(sp)
    80000fb8:	00e11223          	sh	a4,4(sp)
    80000fbc:	00415103          	lhu	sp,4(sp)
    80000fc0:	000013b7          	lui	t2,0x1
    80000fc4:	1223839b          	addiw	t2,t2,290
    80000fc8:	027116e3          	bne	sp,t2,800017f4 <fail>
    80000fcc:	00002117          	auipc	sp,0x2
    80000fd0:	03410113          	addi	sp,sp,52 # 80003000 <begin_signature>
    80000fd4:	00213423          	sd	sp,8(sp)
    80000fd8:	00813203          	ld	tp,8(sp)
    80000fdc:	00121223          	sh	ra,4(tp) # 4 <_start-0x7ffffffc>
    80000fe0:	00221ae3          	bne	tp,sp,800017f4 <fail>
    80000fe4:	00425703          	lhu	a4,4(tp) # 4 <_start-0x7ffffffc>
    80000fe8:	007716e3          	bne	a4,t2,800017f4 <fail>

0000000080000fec <test_47>:
    80000fec:	02f00193          	li	gp,47
    80000ff0:	00002117          	auipc	sp,0x2
    80000ff4:	01010113          	addi	sp,sp,16 # 80003000 <begin_signature>
    80000ff8:	11200093          	li	ra,274
    80000ffc:	00111323          	sh	ra,6(sp)
    80001000:	00615703          	lhu	a4,6(sp)
    80001004:	00e11323          	sh	a4,6(sp)
    80001008:	00615103          	lhu	sp,6(sp)
    8000100c:	11200393          	li	t2,274
    80001010:	7e711263          	bne	sp,t2,800017f4 <fail>
    80001014:	00002117          	auipc	sp,0x2
    80001018:	fec10113          	addi	sp,sp,-20 # 80003000 <begin_signature>
    8000101c:	00213423          	sd	sp,8(sp)
    80001020:	00813203          	ld	tp,8(sp)
    80001024:	00121323          	sh	ra,6(tp) # 6 <_start-0x7ffffffa>
    80001028:	7c221663          	bne	tp,sp,800017f4 <fail>
    8000102c:	00625703          	lhu	a4,6(tp) # 6 <_start-0x7ffffffa>
    80001030:	7c771263          	bne	a4,t2,800017f4 <fail>

0000000080001034 <test_48>:
    80001034:	03000193          	li	gp,48
    80001038:	00002117          	auipc	sp,0x2
    8000103c:	fc810113          	addi	sp,sp,-56 # 80003000 <begin_signature>
    80001040:	01100093          	li	ra,17
    80001044:	00111423          	sh	ra,8(sp)
    80001048:	00815703          	lhu	a4,8(sp)
    8000104c:	00e11423          	sh	a4,8(sp)
    80001050:	00815103          	lhu	sp,8(sp)
    80001054:	01100393          	li	t2,17
    80001058:	78711e63          	bne	sp,t2,800017f4 <fail>
    8000105c:	00002117          	auipc	sp,0x2
    80001060:	fa410113          	addi	sp,sp,-92 # 80003000 <begin_signature>
    80001064:	00213423          	sd	sp,8(sp)
    80001068:	00813203          	ld	tp,8(sp)
    8000106c:	00121423          	sh	ra,8(tp) # 8 <_start-0x7ffffff8>
    80001070:	78221263          	bne	tp,sp,800017f4 <fail>
    80001074:	00825703          	lhu	a4,8(tp) # 8 <_start-0x7ffffff8>
    80001078:	76771e63          	bne	a4,t2,800017f4 <fail>

000000008000107c <test_49>:
    8000107c:	03100193          	li	gp,49
    80001080:	00002117          	auipc	sp,0x2
    80001084:	f8010113          	addi	sp,sp,-128 # 80003000 <begin_signature>
    80001088:	000030b7          	lui	ra,0x3
    8000108c:	0010809b          	addiw	ra,ra,1
    80001090:	00111523          	sh	ra,10(sp)
    80001094:	00a15703          	lhu	a4,10(sp)
    80001098:	00e11523          	sh	a4,10(sp)
    8000109c:	00a15103          	lhu	sp,10(sp)
    800010a0:	000033b7          	lui	t2,0x3
    800010a4:	0013839b          	addiw	t2,t2,1
    800010a8:	74711663          	bne	sp,t2,800017f4 <fail>
    800010ac:	00002117          	auipc	sp,0x2
    800010b0:	f5410113          	addi	sp,sp,-172 # 80003000 <begin_signature>
    800010b4:	00213423          	sd	sp,8(sp)
    800010b8:	00813203          	ld	tp,8(sp)
    800010bc:	00121523          	sh	ra,10(tp) # a <_start-0x7ffffff6>
    800010c0:	72221a63          	bne	tp,sp,800017f4 <fail>
    800010c4:	00a25703          	lhu	a4,10(tp) # a <_start-0x7ffffff6>
    800010c8:	72771663          	bne	a4,t2,800017f4 <fail>

00000000800010cc <test_50>:
    800010cc:	03200193          	li	gp,50
    800010d0:	00002117          	auipc	sp,0x2
    800010d4:	f3010113          	addi	sp,sp,-208 # 80003000 <begin_signature>
    800010d8:	044890b7          	lui	ra,0x4489
    800010dc:	cd10809b          	addiw	ra,ra,-815
    800010e0:	00d09093          	slli	ra,ra,0xd
    800010e4:	2ab08093          	addi	ra,ra,683 # 44892ab <_start-0x7bb76d55>
    800010e8:	00d09093          	slli	ra,ra,0xd
    800010ec:	67708093          	addi	ra,ra,1655
    800010f0:	00113023          	sd	ra,0(sp)
    800010f4:	00013703          	ld	a4,0(sp)
    800010f8:	00e13023          	sd	a4,0(sp)
    800010fc:	00013103          	ld	sp,0(sp)
    80001100:	044893b7          	lui	t2,0x4489
    80001104:	cd13839b          	addiw	t2,t2,-815
    80001108:	00d39393          	slli	t2,t2,0xd
    8000110c:	2ab38393          	addi	t2,t2,683 # 44892ab <_start-0x7bb76d55>
    80001110:	00d39393          	slli	t2,t2,0xd
    80001114:	67738393          	addi	t2,t2,1655
    80001118:	6c711e63          	bne	sp,t2,800017f4 <fail>
    8000111c:	00002117          	auipc	sp,0x2
    80001120:	ee410113          	addi	sp,sp,-284 # 80003000 <begin_signature>
    80001124:	00213423          	sd	sp,8(sp)
    80001128:	00813203          	ld	tp,8(sp)
    8000112c:	00123023          	sd	ra,0(tp) # 0 <_start-0x80000000>
    80001130:	6c221263          	bne	tp,sp,800017f4 <fail>
    80001134:	00023703          	ld	a4,0(tp) # 0 <_start-0x80000000>
    80001138:	6a771e63          	bne	a4,t2,800017f4 <fail>

000000008000113c <test_51>:
    8000113c:	03300193          	li	gp,51
    80001140:	00002117          	auipc	sp,0x2
    80001144:	ec010113          	addi	sp,sp,-320 # 80003000 <begin_signature>
    80001148:	004490b7          	lui	ra,0x449
    8000114c:	8cd0809b          	addiw	ra,ra,-1843
    80001150:	00e09093          	slli	ra,ra,0xe
    80001154:	45508093          	addi	ra,ra,1109 # 449455 <_start-0x7fbb6bab>
    80001158:	00c09093          	slli	ra,ra,0xc
    8000115c:	66708093          	addi	ra,ra,1639
    80001160:	00c09093          	slli	ra,ra,0xc
    80001164:	78808093          	addi	ra,ra,1928
    80001168:	00113423          	sd	ra,8(sp)
    8000116c:	00813703          	ld	a4,8(sp)
    80001170:	00e13423          	sd	a4,8(sp)
    80001174:	00813103          	ld	sp,8(sp)
    80001178:	004493b7          	lui	t2,0x449
    8000117c:	8cd3839b          	addiw	t2,t2,-1843
    80001180:	00e39393          	slli	t2,t2,0xe
    80001184:	45538393          	addi	t2,t2,1109 # 449455 <_start-0x7fbb6bab>
    80001188:	00c39393          	slli	t2,t2,0xc
    8000118c:	66738393          	addi	t2,t2,1639
    80001190:	00c39393          	slli	t2,t2,0xc
    80001194:	78838393          	addi	t2,t2,1928
    80001198:	64711e63          	bne	sp,t2,800017f4 <fail>
    8000119c:	00002117          	auipc	sp,0x2
    800011a0:	e6410113          	addi	sp,sp,-412 # 80003000 <begin_signature>
    800011a4:	00213423          	sd	sp,8(sp)
    800011a8:	00813203          	ld	tp,8(sp)
    800011ac:	00123423          	sd	ra,8(tp) # 8 <_start-0x7ffffff8>
    800011b0:	64221263          	bne	tp,sp,800017f4 <fail>
    800011b4:	00823703          	ld	a4,8(tp) # 8 <_start-0x7ffffff8>
    800011b8:	62771e63          	bne	a4,t2,800017f4 <fail>

00000000800011bc <test_52>:
    800011bc:	03400193          	li	gp,52
    800011c0:	00002117          	auipc	sp,0x2
    800011c4:	e4010113          	addi	sp,sp,-448 # 80003000 <begin_signature>
    800011c8:	0111a0b7          	lui	ra,0x111a
    800011cc:	a230809b          	addiw	ra,ra,-1501
    800011d0:	00c09093          	slli	ra,ra,0xc
    800011d4:	ab308093          	addi	ra,ra,-1357 # 1119ab3 <_start-0x7eee654d>
    800011d8:	00d09093          	slli	ra,ra,0xd
    800011dc:	77908093          	addi	ra,ra,1913
    800011e0:	00c09093          	slli	ra,ra,0xc
    800011e4:	89908093          	addi	ra,ra,-1895
    800011e8:	00113823          	sd	ra,16(sp)
    800011ec:	01013703          	ld	a4,16(sp)
    800011f0:	00e13823          	sd	a4,16(sp)
    800011f4:	01013103          	ld	sp,16(sp)
    800011f8:	0111a3b7          	lui	t2,0x111a
    800011fc:	a233839b          	addiw	t2,t2,-1501
    80001200:	00c39393          	slli	t2,t2,0xc
    80001204:	ab338393          	addi	t2,t2,-1357 # 1119ab3 <_start-0x7eee654d>
    80001208:	00d39393          	slli	t2,t2,0xd
    8000120c:	77938393          	addi	t2,t2,1913
    80001210:	00c39393          	slli	t2,t2,0xc
    80001214:	89938393          	addi	t2,t2,-1895
    80001218:	5c711e63          	bne	sp,t2,800017f4 <fail>
    8000121c:	00002117          	auipc	sp,0x2
    80001220:	de410113          	addi	sp,sp,-540 # 80003000 <begin_signature>
    80001224:	00213423          	sd	sp,8(sp)
    80001228:	00813203          	ld	tp,8(sp)
    8000122c:	00123823          	sd	ra,16(tp) # 10 <_start-0x7ffffff0>
    80001230:	5c221263          	bne	tp,sp,800017f4 <fail>
    80001234:	01023703          	ld	a4,16(tp) # 10 <_start-0x7ffffff0>
    80001238:	5a771e63          	bne	a4,t2,800017f4 <fail>

000000008000123c <test_53>:
    8000123c:	03500193          	li	gp,53
    80001240:	00002117          	auipc	sp,0x2
    80001244:	dc010113          	addi	sp,sp,-576 # 80003000 <begin_signature>
    80001248:	0abbd0b7          	lui	ra,0xabbd
    8000124c:	cdd0809b          	addiw	ra,ra,-803
    80001250:	00113023          	sd	ra,0(sp)
    80001254:	00013703          	ld	a4,0(sp)
    80001258:	00e13023          	sd	a4,0(sp)
    8000125c:	00013103          	ld	sp,0(sp)
    80001260:	0abbd3b7          	lui	t2,0xabbd
    80001264:	cdd3839b          	addiw	t2,t2,-803
    80001268:	58711663          	bne	sp,t2,800017f4 <fail>
    8000126c:	00002117          	auipc	sp,0x2
    80001270:	d9410113          	addi	sp,sp,-620 # 80003000 <begin_signature>
    80001274:	00213423          	sd	sp,8(sp)
    80001278:	00813203          	ld	tp,8(sp)
    8000127c:	00123023          	sd	ra,0(tp) # 0 <_start-0x80000000>
    80001280:	56221a63          	bne	tp,sp,800017f4 <fail>
    80001284:	00023703          	ld	a4,0(tp) # 0 <_start-0x80000000>
    80001288:	56771663          	bne	a4,t2,800017f4 <fail>

000000008000128c <test_54>:
    8000128c:	03600193          	li	gp,54
    80001290:	00002117          	auipc	sp,0x2
    80001294:	d7010113          	addi	sp,sp,-656 # 80003000 <begin_signature>
    80001298:	0aabc0b7          	lui	ra,0xaabc
    8000129c:	ccd0809b          	addiw	ra,ra,-819
    800012a0:	00113423          	sd	ra,8(sp)
    800012a4:	00813703          	ld	a4,8(sp)
    800012a8:	00e13423          	sd	a4,8(sp)
    800012ac:	00813103          	ld	sp,8(sp)
    800012b0:	0aabc3b7          	lui	t2,0xaabc
    800012b4:	ccd3839b          	addiw	t2,t2,-819
    800012b8:	52711e63          	bne	sp,t2,800017f4 <fail>
    800012bc:	00002117          	auipc	sp,0x2
    800012c0:	d4410113          	addi	sp,sp,-700 # 80003000 <begin_signature>
    800012c4:	00213423          	sd	sp,8(sp)
    800012c8:	00813203          	ld	tp,8(sp)
    800012cc:	00123423          	sd	ra,8(tp) # 8 <_start-0x7ffffff8>
    800012d0:	52221263          	bne	tp,sp,800017f4 <fail>
    800012d4:	00823703          	ld	a4,8(tp) # 8 <_start-0x7ffffff8>
    800012d8:	50771e63          	bne	a4,t2,800017f4 <fail>

00000000800012dc <test_55>:
    800012dc:	03700193          	li	gp,55
    800012e0:	00002117          	auipc	sp,0x2
    800012e4:	d2010113          	addi	sp,sp,-736 # 80003000 <begin_signature>
    800012e8:	0daac0b7          	lui	ra,0xdaac
    800012ec:	bcc0809b          	addiw	ra,ra,-1076
    800012f0:	00113823          	sd	ra,16(sp)
    800012f4:	01013703          	ld	a4,16(sp)
    800012f8:	00e13823          	sd	a4,16(sp)
    800012fc:	01013103          	ld	sp,16(sp)
    80001300:	0daac3b7          	lui	t2,0xdaac
    80001304:	bcc3839b          	addiw	t2,t2,-1076
    80001308:	4e711663          	bne	sp,t2,800017f4 <fail>
    8000130c:	00002117          	auipc	sp,0x2
    80001310:	cf410113          	addi	sp,sp,-780 # 80003000 <begin_signature>
    80001314:	00213423          	sd	sp,8(sp)
    80001318:	00813203          	ld	tp,8(sp)
    8000131c:	00123823          	sd	ra,16(tp) # 10 <_start-0x7ffffff0>
    80001320:	4c221a63          	bne	tp,sp,800017f4 <fail>
    80001324:	01023703          	ld	a4,16(tp) # 10 <_start-0x7ffffff0>
    80001328:	4c771663          	bne	a4,t2,800017f4 <fail>

000000008000132c <test_56>:
    8000132c:	03800193          	li	gp,56
    80001330:	00002117          	auipc	sp,0x2
    80001334:	cd010113          	addi	sp,sp,-816 # 80003000 <begin_signature>
    80001338:	0ddab0b7          	lui	ra,0xddab
    8000133c:	bbc0809b          	addiw	ra,ra,-1092
    80001340:	00113c23          	sd	ra,24(sp)
    80001344:	01813703          	ld	a4,24(sp)
    80001348:	00e13c23          	sd	a4,24(sp)
    8000134c:	01813103          	ld	sp,24(sp)
    80001350:	0ddab3b7          	lui	t2,0xddab
    80001354:	bbc3839b          	addiw	t2,t2,-1092
    80001358:	48711e63          	bne	sp,t2,800017f4 <fail>
    8000135c:	00002117          	auipc	sp,0x2
    80001360:	ca410113          	addi	sp,sp,-860 # 80003000 <begin_signature>
    80001364:	00213423          	sd	sp,8(sp)
    80001368:	00813203          	ld	tp,8(sp)
    8000136c:	00123c23          	sd	ra,24(tp) # 18 <_start-0x7fffffe8>
    80001370:	48221263          	bne	tp,sp,800017f4 <fail>
    80001374:	01823703          	ld	a4,24(tp) # 18 <_start-0x7fffffe8>
    80001378:	46771e63          	bne	a4,t2,800017f4 <fail>

000000008000137c <test_57>:
    8000137c:	03900193          	li	gp,57
    80001380:	00002117          	auipc	sp,0x2
    80001384:	c8010113          	addi	sp,sp,-896 # 80003000 <begin_signature>
    80001388:	0cddb0b7          	lui	ra,0xcddb
    8000138c:	abb0809b          	addiw	ra,ra,-1349
    80001390:	02113023          	sd	ra,32(sp)
    80001394:	02013703          	ld	a4,32(sp)
    80001398:	02e13023          	sd	a4,32(sp)
    8000139c:	02013103          	ld	sp,32(sp)
    800013a0:	0cddb3b7          	lui	t2,0xcddb
    800013a4:	abb3839b          	addiw	t2,t2,-1349
    800013a8:	44711663          	bne	sp,t2,800017f4 <fail>
    800013ac:	00002117          	auipc	sp,0x2
    800013b0:	c5410113          	addi	sp,sp,-940 # 80003000 <begin_signature>
    800013b4:	00213423          	sd	sp,8(sp)
    800013b8:	00813203          	ld	tp,8(sp)
    800013bc:	02123023          	sd	ra,32(tp) # 20 <_start-0x7fffffe0>
    800013c0:	42221a63          	bne	tp,sp,800017f4 <fail>
    800013c4:	02023703          	ld	a4,32(tp) # 20 <_start-0x7fffffe0>
    800013c8:	42771663          	bne	a4,t2,800017f4 <fail>

00000000800013cc <test_58>:
    800013cc:	03a00193          	li	gp,58
    800013d0:	00002117          	auipc	sp,0x2
    800013d4:	c3010113          	addi	sp,sp,-976 # 80003000 <begin_signature>
    800013d8:	0ccde0b7          	lui	ra,0xccde
    800013dc:	aab0809b          	addiw	ra,ra,-1365
    800013e0:	02113423          	sd	ra,40(sp)
    800013e4:	02813703          	ld	a4,40(sp)
    800013e8:	02e13423          	sd	a4,40(sp)
    800013ec:	02813103          	ld	sp,40(sp)
    800013f0:	0ccde3b7          	lui	t2,0xccde
    800013f4:	aab3839b          	addiw	t2,t2,-1365
    800013f8:	3e711e63          	bne	sp,t2,800017f4 <fail>
    800013fc:	00002117          	auipc	sp,0x2
    80001400:	c0410113          	addi	sp,sp,-1020 # 80003000 <begin_signature>
    80001404:	00213423          	sd	sp,8(sp)
    80001408:	00813203          	ld	tp,8(sp)
    8000140c:	02123423          	sd	ra,40(tp) # 28 <_start-0x7fffffd8>
    80001410:	3e221263          	bne	tp,sp,800017f4 <fail>
    80001414:	02823703          	ld	a4,40(tp) # 28 <_start-0x7fffffd8>
    80001418:	3c771e63          	bne	a4,t2,800017f4 <fail>

000000008000141c <test_59>:
    8000141c:	03b00193          	li	gp,59
    80001420:	00002117          	auipc	sp,0x2
    80001424:	be010113          	addi	sp,sp,-1056 # 80003000 <begin_signature>
    80001428:	001120b7          	lui	ra,0x112
    8000142c:	2330809b          	addiw	ra,ra,563
    80001430:	00113023          	sd	ra,0(sp)
    80001434:	00013703          	ld	a4,0(sp)
    80001438:	00e13023          	sd	a4,0(sp)
    8000143c:	00013103          	ld	sp,0(sp)
    80001440:	001123b7          	lui	t2,0x112
    80001444:	2333839b          	addiw	t2,t2,563
    80001448:	3a711663          	bne	sp,t2,800017f4 <fail>
    8000144c:	00002117          	auipc	sp,0x2
    80001450:	bb410113          	addi	sp,sp,-1100 # 80003000 <begin_signature>
    80001454:	00213423          	sd	sp,8(sp)
    80001458:	00813203          	ld	tp,8(sp)
    8000145c:	00123023          	sd	ra,0(tp) # 0 <_start-0x80000000>
    80001460:	38221a63          	bne	tp,sp,800017f4 <fail>
    80001464:	00023703          	ld	a4,0(tp) # 0 <_start-0x80000000>
    80001468:	38771663          	bne	a4,t2,800017f4 <fail>

000000008000146c <test_60>:
    8000146c:	03c00193          	li	gp,60
    80001470:	00002117          	auipc	sp,0x2
    80001474:	b9010113          	addi	sp,sp,-1136 # 80003000 <begin_signature>
    80001478:	300110b7          	lui	ra,0x30011
    8000147c:	2230809b          	addiw	ra,ra,547
    80001480:	00113423          	sd	ra,8(sp)
    80001484:	00813703          	ld	a4,8(sp)
    80001488:	00e13423          	sd	a4,8(sp)
    8000148c:	00813103          	ld	sp,8(sp)
    80001490:	300113b7          	lui	t2,0x30011
    80001494:	2233839b          	addiw	t2,t2,547
    80001498:	34711e63          	bne	sp,t2,800017f4 <fail>
    8000149c:	00002117          	auipc	sp,0x2
    800014a0:	b6410113          	addi	sp,sp,-1180 # 80003000 <begin_signature>
    800014a4:	00213423          	sd	sp,8(sp)
    800014a8:	00813203          	ld	tp,8(sp)
    800014ac:	00123423          	sd	ra,8(tp) # 8 <_start-0x7ffffff8>
    800014b0:	34221263          	bne	tp,sp,800017f4 <fail>
    800014b4:	00823703          	ld	a4,8(tp) # 8 <_start-0x7ffffff8>
    800014b8:	32771e63          	bne	a4,t2,800017f4 <fail>

00000000800014bc <test_61>:
    800014bc:	03d00193          	li	gp,61
    800014c0:	00002117          	auipc	sp,0x2
    800014c4:	b4010113          	addi	sp,sp,-1216 # 80003000 <begin_signature>
    800014c8:	330010b7          	lui	ra,0x33001
    800014cc:	1220809b          	addiw	ra,ra,290
    800014d0:	00113823          	sd	ra,16(sp)
    800014d4:	01013703          	ld	a4,16(sp)
    800014d8:	00e13823          	sd	a4,16(sp)
    800014dc:	01013103          	ld	sp,16(sp)
    800014e0:	330013b7          	lui	t2,0x33001
    800014e4:	1223839b          	addiw	t2,t2,290
    800014e8:	30711663          	bne	sp,t2,800017f4 <fail>
    800014ec:	00002117          	auipc	sp,0x2
    800014f0:	b1410113          	addi	sp,sp,-1260 # 80003000 <begin_signature>
    800014f4:	00213423          	sd	sp,8(sp)
    800014f8:	00813203          	ld	tp,8(sp)
    800014fc:	00123823          	sd	ra,16(tp) # 10 <_start-0x7ffffff0>
    80001500:	2e221a63          	bne	tp,sp,800017f4 <fail>
    80001504:	01023703          	ld	a4,16(tp) # 10 <_start-0x7ffffff0>
    80001508:	2e771663          	bne	a4,t2,800017f4 <fail>

000000008000150c <test_62>:
    8000150c:	03e00193          	li	gp,62
    80001510:	00002117          	auipc	sp,0x2
    80001514:	af010113          	addi	sp,sp,-1296 # 80003000 <begin_signature>
    80001518:	233000b7          	lui	ra,0x23300
    8000151c:	1120809b          	addiw	ra,ra,274
    80001520:	00113c23          	sd	ra,24(sp)
    80001524:	01813703          	ld	a4,24(sp)
    80001528:	00e13c23          	sd	a4,24(sp)
    8000152c:	01813103          	ld	sp,24(sp)
    80001530:	233003b7          	lui	t2,0x23300
    80001534:	1123839b          	addiw	t2,t2,274
    80001538:	2a711e63          	bne	sp,t2,800017f4 <fail>
    8000153c:	00002117          	auipc	sp,0x2
    80001540:	ac410113          	addi	sp,sp,-1340 # 80003000 <begin_signature>
    80001544:	00213423          	sd	sp,8(sp)
    80001548:	00813203          	ld	tp,8(sp)
    8000154c:	00123c23          	sd	ra,24(tp) # 18 <_start-0x7fffffe8>
    80001550:	2a221263          	bne	tp,sp,800017f4 <fail>
    80001554:	01823703          	ld	a4,24(tp) # 18 <_start-0x7fffffe8>
    80001558:	28771e63          	bne	a4,t2,800017f4 <fail>

000000008000155c <test_63>:
    8000155c:	03f00193          	li	gp,63
    80001560:	00002117          	auipc	sp,0x2
    80001564:	aa010113          	addi	sp,sp,-1376 # 80003000 <begin_signature>
    80001568:	223300b7          	lui	ra,0x22330
    8000156c:	0110809b          	addiw	ra,ra,17
    80001570:	02113023          	sd	ra,32(sp)
    80001574:	02013703          	ld	a4,32(sp)
    80001578:	02e13023          	sd	a4,32(sp)
    8000157c:	02013103          	ld	sp,32(sp)
    80001580:	223303b7          	lui	t2,0x22330
    80001584:	0113839b          	addiw	t2,t2,17
    80001588:	26711663          	bne	sp,t2,800017f4 <fail>
    8000158c:	00002117          	auipc	sp,0x2
    80001590:	a7410113          	addi	sp,sp,-1420 # 80003000 <begin_signature>
    80001594:	00213423          	sd	sp,8(sp)
    80001598:	00813203          	ld	tp,8(sp)
    8000159c:	02123023          	sd	ra,32(tp) # 20 <_start-0x7fffffe0>
    800015a0:	24221a63          	bne	tp,sp,800017f4 <fail>
    800015a4:	02023703          	ld	a4,32(tp) # 20 <_start-0x7fffffe0>
    800015a8:	24771663          	bne	a4,t2,800017f4 <fail>

00000000800015ac <test_64>:
    800015ac:	04000193          	li	gp,64
    800015b0:	00002117          	auipc	sp,0x2
    800015b4:	a5010113          	addi	sp,sp,-1456 # 80003000 <begin_signature>
    800015b8:	122330b7          	lui	ra,0x12233
    800015bc:	0010809b          	addiw	ra,ra,1
    800015c0:	02113423          	sd	ra,40(sp)
    800015c4:	02813703          	ld	a4,40(sp)
    800015c8:	02e13423          	sd	a4,40(sp)
    800015cc:	02813103          	ld	sp,40(sp)
    800015d0:	122333b7          	lui	t2,0x12233
    800015d4:	0013839b          	addiw	t2,t2,1
    800015d8:	20711e63          	bne	sp,t2,800017f4 <fail>
    800015dc:	00002117          	auipc	sp,0x2
    800015e0:	a2410113          	addi	sp,sp,-1500 # 80003000 <begin_signature>
    800015e4:	00213423          	sd	sp,8(sp)
    800015e8:	00813203          	ld	tp,8(sp)
    800015ec:	02123423          	sd	ra,40(tp) # 28 <_start-0x7fffffd8>
    800015f0:	20221263          	bne	tp,sp,800017f4 <fail>
    800015f4:	02823703          	ld	a4,40(tp) # 28 <_start-0x7fffffd8>
    800015f8:	1e771e63          	bne	a4,t2,800017f4 <fail>

00000000800015fc <test_65>:
    800015fc:	04100193          	li	gp,65
    80001600:	00002117          	auipc	sp,0x2
    80001604:	a0010113          	addi	sp,sp,-1536 # 80003000 <begin_signature>
    80001608:	001120b7          	lui	ra,0x112
    8000160c:	2330809b          	addiw	ra,ra,563
    80001610:	00112023          	sw	ra,0(sp)
    80001614:	00016703          	lwu	a4,0(sp)
    80001618:	00e12023          	sw	a4,0(sp)
    8000161c:	00016103          	lwu	sp,0(sp)
    80001620:	001123b7          	lui	t2,0x112
    80001624:	2333839b          	addiw	t2,t2,563
    80001628:	1c711663          	bne	sp,t2,800017f4 <fail>
    8000162c:	00002117          	auipc	sp,0x2
    80001630:	9d410113          	addi	sp,sp,-1580 # 80003000 <begin_signature>
    80001634:	00213423          	sd	sp,8(sp)
    80001638:	00813203          	ld	tp,8(sp)
    8000163c:	00122023          	sw	ra,0(tp) # 0 <_start-0x80000000>
    80001640:	1a221a63          	bne	tp,sp,800017f4 <fail>
    80001644:	00026703          	lwu	a4,0(tp) # 0 <_start-0x80000000>
    80001648:	1a771663          	bne	a4,t2,800017f4 <fail>

000000008000164c <test_66>:
    8000164c:	04200193          	li	gp,66
    80001650:	00002117          	auipc	sp,0x2
    80001654:	9b010113          	addi	sp,sp,-1616 # 80003000 <begin_signature>
    80001658:	330010b7          	lui	ra,0x33001
    8000165c:	1220809b          	addiw	ra,ra,290
    80001660:	00112423          	sw	ra,8(sp)
    80001664:	00816703          	lwu	a4,8(sp)
    80001668:	00e12423          	sw	a4,8(sp)
    8000166c:	00816103          	lwu	sp,8(sp)
    80001670:	330013b7          	lui	t2,0x33001
    80001674:	1223839b          	addiw	t2,t2,290
    80001678:	16711e63          	bne	sp,t2,800017f4 <fail>
    8000167c:	00002117          	auipc	sp,0x2
    80001680:	98410113          	addi	sp,sp,-1660 # 80003000 <begin_signature>
    80001684:	00213423          	sd	sp,8(sp)
    80001688:	00813203          	ld	tp,8(sp)
    8000168c:	00122423          	sw	ra,8(tp) # 8 <_start-0x7ffffff8>
    80001690:	16221263          	bne	tp,sp,800017f4 <fail>
    80001694:	00826703          	lwu	a4,8(tp) # 8 <_start-0x7ffffff8>
    80001698:	14771e63          	bne	a4,t2,800017f4 <fail>

000000008000169c <test_67>:
    8000169c:	04300193          	li	gp,67
    800016a0:	00002117          	auipc	sp,0x2
    800016a4:	96010113          	addi	sp,sp,-1696 # 80003000 <begin_signature>
    800016a8:	300110b7          	lui	ra,0x30011
    800016ac:	2230809b          	addiw	ra,ra,547
    800016b0:	00112223          	sw	ra,4(sp)
    800016b4:	00416703          	lwu	a4,4(sp)
    800016b8:	00e12223          	sw	a4,4(sp)
    800016bc:	00416103          	lwu	sp,4(sp)
    800016c0:	300113b7          	lui	t2,0x30011
    800016c4:	2233839b          	addiw	t2,t2,547
    800016c8:	12711663          	bne	sp,t2,800017f4 <fail>
    800016cc:	00002117          	auipc	sp,0x2
    800016d0:	93410113          	addi	sp,sp,-1740 # 80003000 <begin_signature>
    800016d4:	00213423          	sd	sp,8(sp)
    800016d8:	00813203          	ld	tp,8(sp)
    800016dc:	00122223          	sw	ra,4(tp) # 4 <_start-0x7ffffffc>
    800016e0:	10221a63          	bne	tp,sp,800017f4 <fail>
    800016e4:	00426703          	lwu	a4,4(tp) # 4 <_start-0x7ffffffc>
    800016e8:	10771663          	bne	a4,t2,800017f4 <fail>

00000000800016ec <test_68>:
    800016ec:	04400193          	li	gp,68
    800016f0:	00002117          	auipc	sp,0x2
    800016f4:	91010113          	addi	sp,sp,-1776 # 80003000 <begin_signature>
    800016f8:	233000b7          	lui	ra,0x23300
    800016fc:	1120809b          	addiw	ra,ra,274
    80001700:	00112623          	sw	ra,12(sp)
    80001704:	00c16703          	lwu	a4,12(sp)
    80001708:	00e12623          	sw	a4,12(sp)
    8000170c:	00c16103          	lwu	sp,12(sp)
    80001710:	233003b7          	lui	t2,0x23300
    80001714:	1123839b          	addiw	t2,t2,274
    80001718:	0c711e63          	bne	sp,t2,800017f4 <fail>
    8000171c:	00002117          	auipc	sp,0x2
    80001720:	8e410113          	addi	sp,sp,-1820 # 80003000 <begin_signature>
    80001724:	00213423          	sd	sp,8(sp)
    80001728:	00813203          	ld	tp,8(sp)
    8000172c:	00122623          	sw	ra,12(tp) # c <_start-0x7ffffff4>
    80001730:	0c221263          	bne	tp,sp,800017f4 <fail>
    80001734:	00c26703          	lwu	a4,12(tp) # c <_start-0x7ffffff4>
    80001738:	0a771e63          	bne	a4,t2,800017f4 <fail>

000000008000173c <test_69>:
    8000173c:	04500193          	li	gp,69
    80001740:	00002117          	auipc	sp,0x2
    80001744:	8c010113          	addi	sp,sp,-1856 # 80003000 <begin_signature>
    80001748:	223300b7          	lui	ra,0x22330
    8000174c:	0110809b          	addiw	ra,ra,17
    80001750:	00112823          	sw	ra,16(sp)
    80001754:	01016703          	lwu	a4,16(sp)
    80001758:	00e12823          	sw	a4,16(sp)
    8000175c:	01016103          	lwu	sp,16(sp)
    80001760:	223303b7          	lui	t2,0x22330
    80001764:	0113839b          	addiw	t2,t2,17
    80001768:	08711663          	bne	sp,t2,800017f4 <fail>
    8000176c:	00002117          	auipc	sp,0x2
    80001770:	89410113          	addi	sp,sp,-1900 # 80003000 <begin_signature>
    80001774:	00213423          	sd	sp,8(sp)
    80001778:	00813203          	ld	tp,8(sp)
    8000177c:	00122823          	sw	ra,16(tp) # 10 <_start-0x7ffffff0>
    80001780:	06221a63          	bne	tp,sp,800017f4 <fail>
    80001784:	01026703          	lwu	a4,16(tp) # 10 <_start-0x7ffffff0>
    80001788:	06771663          	bne	a4,t2,800017f4 <fail>

000000008000178c <test_70>:
    8000178c:	04600193          	li	gp,70
    80001790:	00002117          	auipc	sp,0x2
    80001794:	87010113          	addi	sp,sp,-1936 # 80003000 <begin_signature>
    80001798:	122330b7          	lui	ra,0x12233
    8000179c:	0010809b          	addiw	ra,ra,1
    800017a0:	00112a23          	sw	ra,20(sp)
    800017a4:	01416703          	lwu	a4,20(sp)
    800017a8:	00e12a23          	sw	a4,20(sp)
    800017ac:	01416103          	lwu	sp,20(sp)
    800017b0:	122333b7          	lui	t2,0x12233
    800017b4:	0013839b          	addiw	t2,t2,1
    800017b8:	02711e63          	bne	sp,t2,800017f4 <fail>
    800017bc:	00002117          	auipc	sp,0x2
    800017c0:	84410113          	addi	sp,sp,-1980 # 80003000 <begin_signature>
    800017c4:	00213423          	sd	sp,8(sp)
    800017c8:	00813203          	ld	tp,8(sp)
    800017cc:	00122a23          	sw	ra,20(tp) # 14 <_start-0x7fffffec>
    800017d0:	02221263          	bne	tp,sp,800017f4 <fail>
    800017d4:	01426703          	lwu	a4,20(tp) # 14 <_start-0x7fffffec>
    800017d8:	00771e63          	bne	a4,t2,800017f4 <fail>
    800017dc:	0ef00513          	li	a0,239
    800017e0:	00002597          	auipc	a1,0x2
    800017e4:	82058593          	addi	a1,a1,-2016 # 80003000 <begin_signature>
    800017e8:	00a581a3          	sb	a0,3(a1)
    800017ec:	00358603          	lb	a2,3(a1)
    800017f0:	02301063          	bne	zero,gp,80001810 <pass>

00000000800017f4 <fail>:
    800017f4:	0ff0000f          	fence
    800017f8:	00018063          	beqz	gp,800017f8 <fail+0x4>
    800017fc:	00119193          	slli	gp,gp,0x1
    80001800:	0011e193          	ori	gp,gp,1
    80001804:	05d00893          	li	a7,93
    80001808:	00018513          	mv	a0,gp
    8000180c:	00000073          	ecall

0000000080001810 <pass>:
    80001810:	0ff0000f          	fence
    80001814:	00100193          	li	gp,1
    80001818:	05d00893          	li	a7,93
    8000181c:	00000513          	li	a0,0
    80001820:	00000073          	ecall
    80001824:	c0001073          	unimp
    80001828:	0000                	unimp
    8000182a:	0000                	unimp
    8000182c:	0000                	unimp
    8000182e:	0000                	unimp
    80001830:	0000                	unimp
