
rv64mi-p-illegal:     file format elf64-littleriscv


Disassembly of section .text.init:

0000000080000000 <_start>:
    80000000:	0540006f          	j	80000054 <reset_vector>

0000000080000004 <trap_vector>:
    80000004:	34202f73          	csrr	t5,mcause
    80000008:	00800f93          	li	t6,8
    8000000c:	03ff0a63          	beq	t5,t6,80000040 <write_tohost>
    80000010:	00900f93          	li	t6,9
    80000014:	03ff0663          	beq	t5,t6,80000040 <write_tohost>
    80000018:	00b00f93          	li	t6,11
    8000001c:	03ff0263          	beq	t5,t6,80000040 <write_tohost>
    80000020:	00000f17          	auipc	t5,0x0
    80000024:	2e0f0f13          	addi	t5,t5,736 # 80000300 <mtvec_handler>
    80000028:	000f0463          	beqz	t5,80000030 <trap_vector+0x2c>
    8000002c:	000f0067          	jr	t5
    80000030:	34202f73          	csrr	t5,mcause
    80000034:	000f5463          	bgez	t5,8000003c <handle_exception>
    80000038:	0040006f          	j	8000003c <handle_exception>

000000008000003c <handle_exception>:
    8000003c:	5391e193          	ori	gp,gp,1337

0000000080000040 <write_tohost>:
    80000040:	00001f17          	auipc	t5,0x1
    80000044:	fc3f2023          	sw	gp,-64(t5) # 80001000 <tohost>
    80000048:	00001f17          	auipc	t5,0x1
    8000004c:	fa0f2e23          	sw	zero,-68(t5) # 80001004 <tohost+0x4>
    80000050:	ff1ff06f          	j	80000040 <write_tohost>

0000000080000054 <reset_vector>:
    80000054:	00000093          	li	ra,0
    80000058:	00000113          	li	sp,0
    8000005c:	00000193          	li	gp,0
    80000060:	00000213          	li	tp,0
    80000064:	00000293          	li	t0,0
    80000068:	00000313          	li	t1,0
    8000006c:	00000393          	li	t2,0
    80000070:	00000413          	li	s0,0
    80000074:	00000493          	li	s1,0
    80000078:	00000513          	li	a0,0
    8000007c:	00000593          	li	a1,0
    80000080:	00000613          	li	a2,0
    80000084:	00000693          	li	a3,0
    80000088:	00000713          	li	a4,0
    8000008c:	00000793          	li	a5,0
    80000090:	00000813          	li	a6,0
    80000094:	00000893          	li	a7,0
    80000098:	00000913          	li	s2,0
    8000009c:	00000993          	li	s3,0
    800000a0:	00000a13          	li	s4,0
    800000a4:	00000a93          	li	s5,0
    800000a8:	00000b13          	li	s6,0
    800000ac:	00000b93          	li	s7,0
    800000b0:	00000c13          	li	s8,0
    800000b4:	00000c93          	li	s9,0
    800000b8:	00000d13          	li	s10,0
    800000bc:	00000d93          	li	s11,0
    800000c0:	00000e13          	li	t3,0
    800000c4:	00000e93          	li	t4,0
    800000c8:	00000f13          	li	t5,0
    800000cc:	00000f93          	li	t6,0
    800000d0:	f1402573          	csrr	a0,mhartid
    800000d4:	00051063          	bnez	a0,800000d4 <reset_vector+0x80>
    800000d8:	00000297          	auipc	t0,0x0
    800000dc:	01028293          	addi	t0,t0,16 # 800000e8 <reset_vector+0x94>
    800000e0:	30529073          	csrw	mtvec,t0
    800000e4:	74445073          	csrwi	0x744,8
    800000e8:	00000297          	auipc	t0,0x0
    800000ec:	01028293          	addi	t0,t0,16 # 800000f8 <reset_vector+0xa4>
    800000f0:	30529073          	csrw	mtvec,t0
    800000f4:	18005073          	csrwi	sptbr,0
    800000f8:	00000297          	auipc	t0,0x0
    800000fc:	02428293          	addi	t0,t0,36 # 8000011c <reset_vector+0xc8>
    80000100:	30529073          	csrw	mtvec,t0
    80000104:	0010029b          	addiw	t0,zero,1
    80000108:	03529293          	slli	t0,t0,0x35
    8000010c:	fff28293          	addi	t0,t0,-1
    80000110:	3b029073          	csrw	pmpaddr0,t0
    80000114:	01f00293          	li	t0,31
    80000118:	3a029073          	csrw	pmpcfg0,t0
    8000011c:	30405073          	csrwi	mie,0
    80000120:	00000297          	auipc	t0,0x0
    80000124:	01428293          	addi	t0,t0,20 # 80000134 <reset_vector+0xe0>
    80000128:	30529073          	csrw	mtvec,t0
    8000012c:	30205073          	csrwi	medeleg,0
    80000130:	30305073          	csrwi	mideleg,0
    80000134:	00000193          	li	gp,0
    80000138:	00000297          	auipc	t0,0x0
    8000013c:	ecc28293          	addi	t0,t0,-308 # 80000004 <trap_vector>
    80000140:	30529073          	csrw	mtvec,t0
    80000144:	00100513          	li	a0,1
    80000148:	01f51513          	slli	a0,a0,0x1f
    8000014c:	00055c63          	bgez	a0,80000164 <reset_vector+0x110>
    80000150:	0ff0000f          	fence
    80000154:	00100193          	li	gp,1
    80000158:	05d00893          	li	a7,93
    8000015c:	00000513          	li	a0,0
    80000160:	00000073          	ecall
    80000164:	80000297          	auipc	t0,0x80000
    80000168:	e9c28293          	addi	t0,t0,-356 # 0 <_start-0x80000000>
    8000016c:	00028a63          	beqz	t0,80000180 <reset_vector+0x12c>
    80000170:	10529073          	csrw	stvec,t0
    80000174:	0000b2b7          	lui	t0,0xb
    80000178:	1092829b          	addiw	t0,t0,265
    8000017c:	30229073          	csrw	medeleg,t0
    80000180:	30005073          	csrwi	mstatus,0
    80000184:	00002537          	lui	a0,0x2
    80000188:	8005051b          	addiw	a0,a0,-2048
    8000018c:	30052073          	csrs	mstatus,a0
    80000190:	00000297          	auipc	t0,0x0
    80000194:	01428293          	addi	t0,t0,20 # 800001a4 <reset_vector+0x150>
    80000198:	34129073          	csrw	mepc,t0
    8000019c:	f1402573          	csrr	a0,mhartid
    800001a0:	30200073          	mret
    800001a4:	00200193          	li	gp,2

00000000800001a8 <bad2>:
    800001a8:	0000                	unimp
    800001aa:	0000                	unimp
    800001ac:	1240006f          	j	800002d0 <fail>
    800001b0:	000022b7          	lui	t0,0x2
    800001b4:	8002829b          	addiw	t0,t0,-2048
    800001b8:	3002b073          	csrc	mstatus,t0
    800001bc:	00001337          	lui	t1,0x1
    800001c0:	8003031b          	addiw	t1,t1,-2048
    800001c4:	30032073          	csrs	mstatus,t1
    800001c8:	300023f3          	csrr	t2,mstatus
    800001cc:	0053f3b3          	and	t2,t2,t0
    800001d0:	10731e63          	bne	t1,t2,800002ec <pass>

00000000800001d4 <test_vectored_interrupts>:
    800001d4:	34415073          	csrwi	mip,2
    800001d8:	30415073          	csrwi	mie,2
    800001dc:	00000297          	auipc	t0,0x0
    800001e0:	12528293          	addi	t0,t0,293 # 80000301 <mtvec_handler+0x1>
    800001e4:	30529473          	csrrw	s0,mtvec,t0
    800001e8:	305022f3          	csrr	t0,mtvec
    800001ec:	0012f293          	andi	t0,t0,1
    800001f0:	00028663          	beqz	t0,800001fc <msip>
    800001f4:	30046073          	csrsi	mstatus,8
    800001f8:	0000006f          	j	800001f8 <test_vectored_interrupts+0x24>

00000000800001fc <msip>:
    800001fc:	30541073          	csrw	mtvec,s0
    80000200:	30315073          	csrwi	mideleg,2
    80000204:	00000297          	auipc	t0,0x0
    80000208:	02828293          	addi	t0,t0,40 # 8000022c <msip+0x30>
    8000020c:	34129073          	csrw	mepc,t0
    80000210:	000022b7          	lui	t0,0x2
    80000214:	8002829b          	addiw	t0,t0,-2048
    80000218:	3002b073          	csrc	mstatus,t0
    8000021c:	00001337          	lui	t1,0x1
    80000220:	8003031b          	addiw	t1,t1,-2048
    80000224:	30032073          	csrs	mstatus,t1
    80000228:	30200073          	mret
    8000022c:	10500073          	wfi
    80000230:	0002f2b3          	and	t0,t0,zero
    80000234:	000c02b7          	lui	t0,0xc0
    80000238:	1002b073          	csrc	sstatus,t0
    8000023c:	00037333          	and	t1,t1,zero
    80000240:	000c0337          	lui	t1,0xc0
    80000244:	10032073          	csrs	sstatus,t1
    80000248:	100023f3          	csrr	t2,sstatus
    8000024c:	0053f3b3          	and	t2,t2,t0
    80000250:	06038063          	beqz	t2,800002b0 <bare_s_1>
    80000254:	1002b073          	csrc	sstatus,t0
    80000258:	12000073          	sfence.vma

000000008000025c <bad5>:
    8000025c:	0000                	unimp
    8000025e:	0000                	unimp
    80000260:	0700006f          	j	800002d0 <fail>

0000000080000264 <bad6>:
    80000264:	12000073          	sfence.vma
    80000268:	0680006f          	j	800002d0 <fail>

000000008000026c <bad7>:
    8000026c:	0640006f          	j	800002d0 <fail>

0000000080000270 <test_tsr>:
    80000270:	00000297          	auipc	t0,0x0
    80000274:	02028293          	addi	t0,t0,32 # 80000290 <bad8>
    80000278:	14129073          	csrw	sepc,t0
    8000027c:	10000293          	li	t0,256
    80000280:	1002a073          	csrs	sstatus,t0
    80000284:	02000293          	li	t0,32
    80000288:	1002b073          	csrc	sstatus,t0
    8000028c:	10200073          	sret

0000000080000290 <bad8>:
    80000290:	0000                	unimp
    80000292:	0000                	unimp
    80000294:	03c0006f          	j	800002d0 <fail>
    80000298:	00000297          	auipc	t0,0x0
    8000029c:	01028293          	addi	t0,t0,16 # 800002a8 <bad9+0x4>
    800002a0:	14129073          	csrw	sepc,t0

00000000800002a4 <bad9>:
    800002a4:	10200073          	sret
    800002a8:	0280006f          	j	800002d0 <fail>
    800002ac:	0200006f          	j	800002cc <skip_bare_s>

00000000800002b0 <bare_s_1>:
    800002b0:	12000073          	sfence.vma
    800002b4:	01c0006f          	j	800002d0 <fail>

00000000800002b8 <bare_s_2>:
    800002b8:	12000073          	sfence.vma
    800002bc:	0140006f          	j	800002d0 <fail>

00000000800002c0 <bare_s_3>:
    800002c0:	0000                	unimp
    800002c2:	0000                	unimp
    800002c4:	00c0006f          	j	800002d0 <fail>
    800002c8:	fa9ff06f          	j	80000270 <test_tsr>

00000000800002cc <skip_bare_s>:
    800002cc:	02301063          	bne	zero,gp,800002ec <pass>

00000000800002d0 <fail>:
    800002d0:	0ff0000f          	fence
    800002d4:	00018063          	beqz	gp,800002d4 <fail+0x4>
    800002d8:	00119193          	slli	gp,gp,0x1
    800002dc:	0011e193          	ori	gp,gp,1
    800002e0:	05d00893          	li	a7,93
    800002e4:	00018513          	mv	a0,gp
    800002e8:	00000073          	ecall

00000000800002ec <pass>:
    800002ec:	0ff0000f          	fence
    800002f0:	00100193          	li	gp,1
    800002f4:	05d00893          	li	a7,93
    800002f8:	00000513          	li	a0,0
    800002fc:	00000073          	ecall

0000000080000300 <mtvec_handler>:
    80000300:	0400006f          	j	80000340 <synchronous_exception>
    80000304:	ef9ff06f          	j	800001fc <msip>
    80000308:	fc9ff06f          	j	800002d0 <fail>
    8000030c:	fc5ff06f          	j	800002d0 <fail>
    80000310:	fc1ff06f          	j	800002d0 <fail>
    80000314:	fbdff06f          	j	800002d0 <fail>
    80000318:	fb9ff06f          	j	800002d0 <fail>
    8000031c:	fb5ff06f          	j	800002d0 <fail>
    80000320:	fb1ff06f          	j	800002d0 <fail>
    80000324:	fadff06f          	j	800002d0 <fail>
    80000328:	fa9ff06f          	j	800002d0 <fail>
    8000032c:	fa5ff06f          	j	800002d0 <fail>
    80000330:	fa1ff06f          	j	800002d0 <fail>
    80000334:	f9dff06f          	j	800002d0 <fail>
    80000338:	f99ff06f          	j	800002d0 <fail>
    8000033c:	f95ff06f          	j	800002d0 <fail>

0000000080000340 <synchronous_exception>:
    80000340:	00200313          	li	t1,2
    80000344:	342022f3          	csrr	t0,mcause
    80000348:	f86294e3          	bne	t0,t1,800002d0 <fail>
    8000034c:	341022f3          	csrr	t0,mepc
    80000350:	00038e63          	beqz	t2,8000036c <synchronous_exception+0x2c>
    80000354:	0002d303          	lhu	t1,0(t0)
    80000358:	0063c3b3          	xor	t2,t2,t1
    8000035c:	0022d303          	lhu	t1,2(t0)
    80000360:	01031313          	slli	t1,t1,0x10
    80000364:	0063c3b3          	xor	t2,t2,t1
    80000368:	f60394e3          	bnez	t2,800002d0 <fail>
    8000036c:	00000317          	auipc	t1,0x0
    80000370:	e3c30313          	addi	t1,t1,-452 # 800001a8 <bad2>
    80000374:	06628463          	beq	t0,t1,800003dc <synchronous_exception+0x9c>
    80000378:	00000317          	auipc	t1,0x0
    8000037c:	ee430313          	addi	t1,t1,-284 # 8000025c <bad5>
    80000380:	06628463          	beq	t0,t1,800003e8 <synchronous_exception+0xa8>
    80000384:	00000317          	auipc	t1,0x0
    80000388:	ee030313          	addi	t1,t1,-288 # 80000264 <bad6>
    8000038c:	04628863          	beq	t0,t1,800003dc <synchronous_exception+0x9c>
    80000390:	00000317          	auipc	t1,0x0
    80000394:	edc30313          	addi	t1,t1,-292 # 8000026c <bad7>
    80000398:	04628263          	beq	t0,t1,800003dc <synchronous_exception+0x9c>
    8000039c:	00000317          	auipc	t1,0x0
    800003a0:	ef430313          	addi	t1,t1,-268 # 80000290 <bad8>
    800003a4:	04628863          	beq	t0,t1,800003f4 <synchronous_exception+0xb4>
    800003a8:	00000317          	auipc	t1,0x0
    800003ac:	efc30313          	addi	t1,t1,-260 # 800002a4 <bad9>
    800003b0:	04628863          	beq	t0,t1,80000400 <synchronous_exception+0xc0>
    800003b4:	00000317          	auipc	t1,0x0
    800003b8:	efc30313          	addi	t1,t1,-260 # 800002b0 <bare_s_1>
    800003bc:	02628663          	beq	t0,t1,800003e8 <synchronous_exception+0xa8>
    800003c0:	00000317          	auipc	t1,0x0
    800003c4:	ef830313          	addi	t1,t1,-264 # 800002b8 <bare_s_2>
    800003c8:	00628a63          	beq	t0,t1,800003dc <synchronous_exception+0x9c>
    800003cc:	00000317          	auipc	t1,0x0
    800003d0:	ef430313          	addi	t1,t1,-268 # 800002c0 <bare_s_3>
    800003d4:	00628463          	beq	t0,t1,800003dc <synchronous_exception+0x9c>
    800003d8:	ef9ff06f          	j	800002d0 <fail>
    800003dc:	00828293          	addi	t0,t0,8
    800003e0:	34129073          	csrw	mepc,t0
    800003e4:	30200073          	mret
    800003e8:	00100337          	lui	t1,0x100
    800003ec:	30032073          	csrs	mstatus,t1
    800003f0:	fedff06f          	j	800003dc <synchronous_exception+0x9c>
    800003f4:	00400337          	lui	t1,0x400
    800003f8:	30032073          	csrs	mstatus,t1
    800003fc:	fe1ff06f          	j	800003dc <synchronous_exception+0x9c>
    80000400:	fddff06f          	j	800003dc <synchronous_exception+0x9c>
    80000404:	c0001073          	unimp
    80000408:	0000                	unimp
    8000040a:	0000                	unimp
    8000040c:	0000                	unimp
    8000040e:	0000                	unimp
    80000410:	0000                	unimp
    80000412:	0000                	unimp
    80000414:	0000                	unimp
    80000416:	0000                	unimp
    80000418:	0000                	unimp
    8000041a:	0000                	unimp
    8000041c:	0000                	unimp
    8000041e:	0000                	unimp
    80000420:	0000                	unimp
    80000422:	0000                	unimp
    80000424:	0000                	unimp
    80000426:	0000                	unimp
    80000428:	0000                	unimp
    8000042a:	0000                	unimp
    8000042c:	0000                	unimp
    8000042e:	0000                	unimp
    80000430:	0000                	unimp
    80000432:	0000                	unimp
    80000434:	0000                	unimp
    80000436:	0000                	unimp
    80000438:	0000                	unimp
    8000043a:	0000                	unimp
    8000043c:	0000                	unimp
    8000043e:	0000                	unimp
    80000440:	0000                	unimp
    80000442:	0000                	unimp
    80000444:	0000                	unimp
    80000446:	0000                	unimp
    80000448:	0000                	unimp
    8000044a:	0000                	unimp
    8000044c:	0000                	unimp
    8000044e:	0000                	unimp
    80000450:	0000                	unimp
    80000452:	0000                	unimp
    80000454:	0000                	unimp
    80000456:	0000                	unimp
    80000458:	0000                	unimp
    8000045a:	0000                	unimp
    8000045c:	0000                	unimp
    8000045e:	0000                	unimp
    80000460:	0000                	unimp
    80000462:	0000                	unimp
    80000464:	0000                	unimp
    80000466:	0000                	unimp
    80000468:	0000                	unimp
    8000046a:	0000                	unimp
    8000046c:	0000                	unimp
    8000046e:	0000                	unimp
    80000470:	0000                	unimp
    80000472:	0000                	unimp
    80000474:	0000                	unimp
    80000476:	0000                	unimp
    80000478:	0000                	unimp
    8000047a:	0000                	unimp
    8000047c:	0000                	unimp
    8000047e:	0000                	unimp
    80000480:	0000                	unimp
    80000482:	0000                	unimp
    80000484:	0000                	unimp
    80000486:	0000                	unimp
    80000488:	0000                	unimp
    8000048a:	0000                	unimp
    8000048c:	0000                	unimp
    8000048e:	0000                	unimp
    80000490:	0000                	unimp
    80000492:	0000                	unimp
    80000494:	0000                	unimp
    80000496:	0000                	unimp
    80000498:	0000                	unimp
    8000049a:	0000                	unimp
    8000049c:	0000                	unimp
    8000049e:	0000                	unimp
    800004a0:	0000                	unimp
    800004a2:	0000                	unimp
    800004a4:	0000                	unimp
    800004a6:	0000                	unimp
    800004a8:	0000                	unimp
    800004aa:	0000                	unimp
    800004ac:	0000                	unimp
    800004ae:	0000                	unimp
