
rv64ui-p-lbu:     file format elf64-littleriscv


Disassembly of section .text.init:

0000000080000000 <_start>:
    80000000:	0540006f          	j	80000054 <reset_vector>

0000000080000004 <trap_vector>:
    80000004:	34202f73          	csrr	t5,mcause
    80000008:	00800f93          	li	t6,8
    8000000c:	03ff0a63          	beq	t5,t6,80000040 <write_tohost>
    80000010:	00900f93          	li	t6,9
    80000014:	03ff0663          	beq	t5,t6,80000040 <write_tohost>
    80000018:	00b00f93          	li	t6,11
    8000001c:	03ff0263          	beq	t5,t6,80000040 <write_tohost>
    80000020:	80000f17          	auipc	t5,0x80000
    80000024:	fe0f0f13          	addi	t5,t5,-32 # 0 <_start-0x80000000>
    80000028:	000f0463          	beqz	t5,80000030 <trap_vector+0x2c>
    8000002c:	000f0067          	jr	t5
    80000030:	34202f73          	csrr	t5,mcause
    80000034:	000f5463          	bgez	t5,8000003c <handle_exception>
    80000038:	0040006f          	j	8000003c <handle_exception>

000000008000003c <handle_exception>:
    8000003c:	5391e193          	ori	gp,gp,1337

0000000080000040 <write_tohost>:
    80000040:	00001f17          	auipc	t5,0x1
    80000044:	fc3f2023          	sw	gp,-64(t5) # 80001000 <tohost>
    80000048:	00001f17          	auipc	t5,0x1
    8000004c:	fa0f2e23          	sw	zero,-68(t5) # 80001004 <tohost+0x4>
    80000050:	ff1ff06f          	j	80000040 <write_tohost>

0000000080000054 <reset_vector>:
    80000054:	00000093          	li	ra,0
    80000058:	00000113          	li	sp,0
    8000005c:	00000193          	li	gp,0
    80000060:	00000213          	li	tp,0
    80000064:	00000293          	li	t0,0
    80000068:	00000313          	li	t1,0
    8000006c:	00000393          	li	t2,0
    80000070:	00000413          	li	s0,0
    80000074:	00000493          	li	s1,0
    80000078:	00000513          	li	a0,0
    8000007c:	00000593          	li	a1,0
    80000080:	00000613          	li	a2,0
    80000084:	00000693          	li	a3,0
    80000088:	00000713          	li	a4,0
    8000008c:	00000793          	li	a5,0
    80000090:	00000813          	li	a6,0
    80000094:	00000893          	li	a7,0
    80000098:	00000913          	li	s2,0
    8000009c:	00000993          	li	s3,0
    800000a0:	00000a13          	li	s4,0
    800000a4:	00000a93          	li	s5,0
    800000a8:	00000b13          	li	s6,0
    800000ac:	00000b93          	li	s7,0
    800000b0:	00000c13          	li	s8,0
    800000b4:	00000c93          	li	s9,0
    800000b8:	00000d13          	li	s10,0
    800000bc:	00000d93          	li	s11,0
    800000c0:	00000e13          	li	t3,0
    800000c4:	00000e93          	li	t4,0
    800000c8:	00000f13          	li	t5,0
    800000cc:	00000f93          	li	t6,0
    800000d0:	f1402573          	csrr	a0,mhartid
    800000d4:	00051063          	bnez	a0,800000d4 <reset_vector+0x80>
    800000d8:	00000297          	auipc	t0,0x0
    800000dc:	01028293          	addi	t0,t0,16 # 800000e8 <reset_vector+0x94>
    800000e0:	30529073          	csrw	mtvec,t0
    800000e4:	74445073          	csrwi	0x744,8
    800000e8:	00000297          	auipc	t0,0x0
    800000ec:	01028293          	addi	t0,t0,16 # 800000f8 <reset_vector+0xa4>
    800000f0:	30529073          	csrw	mtvec,t0
    800000f4:	18005073          	csrwi	sptbr,0
    800000f8:	00000297          	auipc	t0,0x0
    800000fc:	02428293          	addi	t0,t0,36 # 8000011c <reset_vector+0xc8>
    80000100:	30529073          	csrw	mtvec,t0
    80000104:	0010029b          	addiw	t0,zero,1
    80000108:	03529293          	slli	t0,t0,0x35
    8000010c:	fff28293          	addi	t0,t0,-1
    80000110:	3b029073          	csrw	pmpaddr0,t0
    80000114:	01f00293          	li	t0,31
    80000118:	3a029073          	csrw	pmpcfg0,t0
    8000011c:	30405073          	csrwi	mie,0
    80000120:	00000297          	auipc	t0,0x0
    80000124:	01428293          	addi	t0,t0,20 # 80000134 <reset_vector+0xe0>
    80000128:	30529073          	csrw	mtvec,t0
    8000012c:	30205073          	csrwi	medeleg,0
    80000130:	30305073          	csrwi	mideleg,0
    80000134:	00000193          	li	gp,0
    80000138:	00000297          	auipc	t0,0x0
    8000013c:	ecc28293          	addi	t0,t0,-308 # 80000004 <trap_vector>
    80000140:	30529073          	csrw	mtvec,t0
    80000144:	00100513          	li	a0,1
    80000148:	01f51513          	slli	a0,a0,0x1f
    8000014c:	00055c63          	bgez	a0,80000164 <reset_vector+0x110>
    80000150:	0ff0000f          	fence
    80000154:	00100193          	li	gp,1
    80000158:	05d00893          	li	a7,93
    8000015c:	00000513          	li	a0,0
    80000160:	00000073          	ecall
    80000164:	80000297          	auipc	t0,0x80000
    80000168:	e9c28293          	addi	t0,t0,-356 # 0 <_start-0x80000000>
    8000016c:	00028a63          	beqz	t0,80000180 <reset_vector+0x12c>
    80000170:	10529073          	csrw	stvec,t0
    80000174:	0000b2b7          	lui	t0,0xb
    80000178:	1092829b          	addiw	t0,t0,265
    8000017c:	30229073          	csrw	medeleg,t0
    80000180:	30005073          	csrwi	mstatus,0
    80000184:	00000297          	auipc	t0,0x0
    80000188:	01428293          	addi	t0,t0,20 # 80000198 <test_2>
    8000018c:	34129073          	csrw	mepc,t0
    80000190:	f1402573          	csrr	a0,mhartid
    80000194:	30200073          	mret

0000000080000198 <test_2>:
    80000198:	00200193          	li	gp,2
    8000019c:	0ff00793          	li	a5,255
    800001a0:	00002117          	auipc	sp,0x2
    800001a4:	e6010113          	addi	sp,sp,-416 # 80002000 <begin_signature>
    800001a8:	00014703          	lbu	a4,0(sp)
    800001ac:	0ff00393          	li	t2,255
    800001b0:	24771a63          	bne	a4,t2,80000404 <fail>

00000000800001b4 <test_3>:
    800001b4:	00300193          	li	gp,3
    800001b8:	00000793          	li	a5,0
    800001bc:	00002117          	auipc	sp,0x2
    800001c0:	e4410113          	addi	sp,sp,-444 # 80002000 <begin_signature>
    800001c4:	00114703          	lbu	a4,1(sp)
    800001c8:	00000393          	li	t2,0
    800001cc:	22771c63          	bne	a4,t2,80000404 <fail>

00000000800001d0 <test_4>:
    800001d0:	00400193          	li	gp,4
    800001d4:	0f000793          	li	a5,240
    800001d8:	00002117          	auipc	sp,0x2
    800001dc:	e2810113          	addi	sp,sp,-472 # 80002000 <begin_signature>
    800001e0:	00214703          	lbu	a4,2(sp)
    800001e4:	0f000393          	li	t2,240
    800001e8:	20771e63          	bne	a4,t2,80000404 <fail>

00000000800001ec <test_5>:
    800001ec:	00500193          	li	gp,5
    800001f0:	00f00793          	li	a5,15
    800001f4:	00002117          	auipc	sp,0x2
    800001f8:	e0c10113          	addi	sp,sp,-500 # 80002000 <begin_signature>
    800001fc:	00314703          	lbu	a4,3(sp)
    80000200:	00f00393          	li	t2,15
    80000204:	20771063          	bne	a4,t2,80000404 <fail>

0000000080000208 <test_6>:
    80000208:	00600193          	li	gp,6
    8000020c:	0ff00793          	li	a5,255
    80000210:	00002117          	auipc	sp,0x2
    80000214:	df310113          	addi	sp,sp,-525 # 80002003 <tdat4>
    80000218:	ffd14703          	lbu	a4,-3(sp)
    8000021c:	0ff00393          	li	t2,255
    80000220:	1e771263          	bne	a4,t2,80000404 <fail>

0000000080000224 <test_7>:
    80000224:	00700193          	li	gp,7
    80000228:	00000793          	li	a5,0
    8000022c:	00002117          	auipc	sp,0x2
    80000230:	dd710113          	addi	sp,sp,-553 # 80002003 <tdat4>
    80000234:	ffe14703          	lbu	a4,-2(sp)
    80000238:	00000393          	li	t2,0
    8000023c:	1c771463          	bne	a4,t2,80000404 <fail>

0000000080000240 <test_8>:
    80000240:	00800193          	li	gp,8
    80000244:	0f000793          	li	a5,240
    80000248:	00002117          	auipc	sp,0x2
    8000024c:	dbb10113          	addi	sp,sp,-581 # 80002003 <tdat4>
    80000250:	fff14703          	lbu	a4,-1(sp)
    80000254:	0f000393          	li	t2,240
    80000258:	1a771663          	bne	a4,t2,80000404 <fail>

000000008000025c <test_9>:
    8000025c:	00900193          	li	gp,9
    80000260:	00f00793          	li	a5,15
    80000264:	00002117          	auipc	sp,0x2
    80000268:	d9f10113          	addi	sp,sp,-609 # 80002003 <tdat4>
    8000026c:	00014703          	lbu	a4,0(sp)
    80000270:	00f00393          	li	t2,15
    80000274:	18771863          	bne	a4,t2,80000404 <fail>

0000000080000278 <test_10>:
    80000278:	00a00193          	li	gp,10
    8000027c:	00002097          	auipc	ra,0x2
    80000280:	d8408093          	addi	ra,ra,-636 # 80002000 <begin_signature>
    80000284:	fe008093          	addi	ra,ra,-32
    80000288:	0200c283          	lbu	t0,32(ra)
    8000028c:	0ff00393          	li	t2,255
    80000290:	16729a63          	bne	t0,t2,80000404 <fail>

0000000080000294 <test_11>:
    80000294:	00b00193          	li	gp,11
    80000298:	00002097          	auipc	ra,0x2
    8000029c:	d6808093          	addi	ra,ra,-664 # 80002000 <begin_signature>
    800002a0:	ffa08093          	addi	ra,ra,-6
    800002a4:	0070c283          	lbu	t0,7(ra)
    800002a8:	00000393          	li	t2,0
    800002ac:	14729c63          	bne	t0,t2,80000404 <fail>

00000000800002b0 <test_12>:
    800002b0:	00c00193          	li	gp,12
    800002b4:	00000213          	li	tp,0
    800002b8:	00002697          	auipc	a3,0x2
    800002bc:	d4968693          	addi	a3,a3,-695 # 80002001 <tdat2>
    800002c0:	0016c703          	lbu	a4,1(a3)
    800002c4:	00070313          	mv	t1,a4
    800002c8:	0f000393          	li	t2,240
    800002cc:	12731c63          	bne	t1,t2,80000404 <fail>
    800002d0:	00120213          	addi	tp,tp,1 # 1 <_start-0x7fffffff>
    800002d4:	00200293          	li	t0,2
    800002d8:	fe5210e3          	bne	tp,t0,800002b8 <test_12+0x8>

00000000800002dc <test_13>:
    800002dc:	00d00193          	li	gp,13
    800002e0:	00000213          	li	tp,0
    800002e4:	00002697          	auipc	a3,0x2
    800002e8:	d1e68693          	addi	a3,a3,-738 # 80002002 <tdat3>
    800002ec:	0016c703          	lbu	a4,1(a3)
    800002f0:	00000013          	nop
    800002f4:	00070313          	mv	t1,a4
    800002f8:	00f00393          	li	t2,15
    800002fc:	10731463          	bne	t1,t2,80000404 <fail>
    80000300:	00120213          	addi	tp,tp,1 # 1 <_start-0x7fffffff>
    80000304:	00200293          	li	t0,2
    80000308:	fc521ee3          	bne	tp,t0,800002e4 <test_13+0x8>

000000008000030c <test_14>:
    8000030c:	00e00193          	li	gp,14
    80000310:	00000213          	li	tp,0
    80000314:	00002697          	auipc	a3,0x2
    80000318:	cec68693          	addi	a3,a3,-788 # 80002000 <begin_signature>
    8000031c:	0016c703          	lbu	a4,1(a3)
    80000320:	00000013          	nop
    80000324:	00000013          	nop
    80000328:	00070313          	mv	t1,a4
    8000032c:	00000393          	li	t2,0
    80000330:	0c731a63          	bne	t1,t2,80000404 <fail>
    80000334:	00120213          	addi	tp,tp,1 # 1 <_start-0x7fffffff>
    80000338:	00200293          	li	t0,2
    8000033c:	fc521ce3          	bne	tp,t0,80000314 <test_14+0x8>

0000000080000340 <test_15>:
    80000340:	00f00193          	li	gp,15
    80000344:	00000213          	li	tp,0
    80000348:	00002697          	auipc	a3,0x2
    8000034c:	cb968693          	addi	a3,a3,-839 # 80002001 <tdat2>
    80000350:	0016c703          	lbu	a4,1(a3)
    80000354:	0f000393          	li	t2,240
    80000358:	0a771663          	bne	a4,t2,80000404 <fail>
    8000035c:	00120213          	addi	tp,tp,1 # 1 <_start-0x7fffffff>
    80000360:	00200293          	li	t0,2
    80000364:	fe5212e3          	bne	tp,t0,80000348 <test_15+0x8>

0000000080000368 <test_16>:
    80000368:	01000193          	li	gp,16
    8000036c:	00000213          	li	tp,0
    80000370:	00002697          	auipc	a3,0x2
    80000374:	c9268693          	addi	a3,a3,-878 # 80002002 <tdat3>
    80000378:	00000013          	nop
    8000037c:	0016c703          	lbu	a4,1(a3)
    80000380:	00f00393          	li	t2,15
    80000384:	08771063          	bne	a4,t2,80000404 <fail>
    80000388:	00120213          	addi	tp,tp,1 # 1 <_start-0x7fffffff>
    8000038c:	00200293          	li	t0,2
    80000390:	fe5210e3          	bne	tp,t0,80000370 <test_16+0x8>

0000000080000394 <test_17>:
    80000394:	01100193          	li	gp,17
    80000398:	00000213          	li	tp,0
    8000039c:	00002697          	auipc	a3,0x2
    800003a0:	c6468693          	addi	a3,a3,-924 # 80002000 <begin_signature>
    800003a4:	00000013          	nop
    800003a8:	00000013          	nop
    800003ac:	0016c703          	lbu	a4,1(a3)
    800003b0:	00000393          	li	t2,0
    800003b4:	04771863          	bne	a4,t2,80000404 <fail>
    800003b8:	00120213          	addi	tp,tp,1 # 1 <_start-0x7fffffff>
    800003bc:	00200293          	li	t0,2
    800003c0:	fc521ee3          	bne	tp,t0,8000039c <test_17+0x8>

00000000800003c4 <test_18>:
    800003c4:	01200193          	li	gp,18
    800003c8:	00002297          	auipc	t0,0x2
    800003cc:	c3828293          	addi	t0,t0,-968 # 80002000 <begin_signature>
    800003d0:	0002c103          	lbu	sp,0(t0)
    800003d4:	00200113          	li	sp,2
    800003d8:	00200393          	li	t2,2
    800003dc:	02711463          	bne	sp,t2,80000404 <fail>

00000000800003e0 <test_19>:
    800003e0:	01300193          	li	gp,19
    800003e4:	00002297          	auipc	t0,0x2
    800003e8:	c1c28293          	addi	t0,t0,-996 # 80002000 <begin_signature>
    800003ec:	0002c103          	lbu	sp,0(t0)
    800003f0:	00000013          	nop
    800003f4:	00200113          	li	sp,2
    800003f8:	00200393          	li	t2,2
    800003fc:	00711463          	bne	sp,t2,80000404 <fail>
    80000400:	02301063          	bne	zero,gp,80000420 <pass>

0000000080000404 <fail>:
    80000404:	0ff0000f          	fence
    80000408:	00018063          	beqz	gp,80000408 <fail+0x4>
    8000040c:	00119193          	slli	gp,gp,0x1
    80000410:	0011e193          	ori	gp,gp,1
    80000414:	05d00893          	li	a7,93
    80000418:	00018513          	mv	a0,gp
    8000041c:	00000073          	ecall

0000000080000420 <pass>:
    80000420:	0ff0000f          	fence
    80000424:	00100193          	li	gp,1
    80000428:	05d00893          	li	a7,93
    8000042c:	00000513          	li	a0,0
    80000430:	00000073          	ecall
    80000434:	c0001073          	unimp
    80000438:	0000                	unimp
    8000043a:	0000                	unimp
    8000043c:	0000                	unimp
    8000043e:	0000                	unimp
    80000440:	0000                	unimp
    80000442:	0000                	unimp
    80000444:	0000                	unimp
    80000446:	0000                	unimp
    80000448:	0000                	unimp
    8000044a:	0000                	unimp
    8000044c:	0000                	unimp
    8000044e:	0000                	unimp
    80000450:	0000                	unimp
    80000452:	0000                	unimp
    80000454:	0000                	unimp
    80000456:	0000                	unimp
    80000458:	0000                	unimp
    8000045a:	0000                	unimp
    8000045c:	0000                	unimp
    8000045e:	0000                	unimp
    80000460:	0000                	unimp
    80000462:	0000                	unimp
    80000464:	0000                	unimp
    80000466:	0000                	unimp
    80000468:	0000                	unimp
    8000046a:	0000                	unimp
    8000046c:	0000                	unimp
    8000046e:	0000                	unimp
    80000470:	0000                	unimp
