
rv64ud-p-fcmp:     file format elf64-littleriscv


Disassembly of section .text.init:

0000000080000000 <_start>:
    80000000:	0540006f          	j	80000054 <reset_vector>

0000000080000004 <trap_vector>:
    80000004:	34202f73          	csrr	t5,mcause
    80000008:	00800f93          	li	t6,8
    8000000c:	03ff0a63          	beq	t5,t6,80000040 <write_tohost>
    80000010:	00900f93          	li	t6,9
    80000014:	03ff0663          	beq	t5,t6,80000040 <write_tohost>
    80000018:	00b00f93          	li	t6,11
    8000001c:	03ff0263          	beq	t5,t6,80000040 <write_tohost>
    80000020:	80000f17          	auipc	t5,0x80000
    80000024:	fe0f0f13          	addi	t5,t5,-32 # 0 <_start-0x80000000>
    80000028:	000f0463          	beqz	t5,80000030 <trap_vector+0x2c>
    8000002c:	000f0067          	jr	t5
    80000030:	34202f73          	csrr	t5,mcause
    80000034:	000f5463          	bgez	t5,8000003c <handle_exception>
    80000038:	0040006f          	j	8000003c <handle_exception>

000000008000003c <handle_exception>:
    8000003c:	5391e193          	ori	gp,gp,1337

0000000080000040 <write_tohost>:
    80000040:	00001f17          	auipc	t5,0x1
    80000044:	fc3f2023          	sw	gp,-64(t5) # 80001000 <tohost>
    80000048:	00001f17          	auipc	t5,0x1
    8000004c:	fa0f2e23          	sw	zero,-68(t5) # 80001004 <tohost+0x4>
    80000050:	ff1ff06f          	j	80000040 <write_tohost>

0000000080000054 <reset_vector>:
    80000054:	00000093          	li	ra,0
    80000058:	00000113          	li	sp,0
    8000005c:	00000193          	li	gp,0
    80000060:	00000213          	li	tp,0
    80000064:	00000293          	li	t0,0
    80000068:	00000313          	li	t1,0
    8000006c:	00000393          	li	t2,0
    80000070:	00000413          	li	s0,0
    80000074:	00000493          	li	s1,0
    80000078:	00000513          	li	a0,0
    8000007c:	00000593          	li	a1,0
    80000080:	00000613          	li	a2,0
    80000084:	00000693          	li	a3,0
    80000088:	00000713          	li	a4,0
    8000008c:	00000793          	li	a5,0
    80000090:	00000813          	li	a6,0
    80000094:	00000893          	li	a7,0
    80000098:	00000913          	li	s2,0
    8000009c:	00000993          	li	s3,0
    800000a0:	00000a13          	li	s4,0
    800000a4:	00000a93          	li	s5,0
    800000a8:	00000b13          	li	s6,0
    800000ac:	00000b93          	li	s7,0
    800000b0:	00000c13          	li	s8,0
    800000b4:	00000c93          	li	s9,0
    800000b8:	00000d13          	li	s10,0
    800000bc:	00000d93          	li	s11,0
    800000c0:	00000e13          	li	t3,0
    800000c4:	00000e93          	li	t4,0
    800000c8:	00000f13          	li	t5,0
    800000cc:	00000f93          	li	t6,0
    800000d0:	f1402573          	csrr	a0,mhartid
    800000d4:	00051063          	bnez	a0,800000d4 <reset_vector+0x80>
    800000d8:	00000297          	auipc	t0,0x0
    800000dc:	01028293          	addi	t0,t0,16 # 800000e8 <reset_vector+0x94>
    800000e0:	30529073          	csrw	mtvec,t0
    800000e4:	74445073          	csrwi	0x744,8
    800000e8:	00000297          	auipc	t0,0x0
    800000ec:	01028293          	addi	t0,t0,16 # 800000f8 <reset_vector+0xa4>
    800000f0:	30529073          	csrw	mtvec,t0
    800000f4:	18005073          	csrwi	sptbr,0
    800000f8:	00000297          	auipc	t0,0x0
    800000fc:	02428293          	addi	t0,t0,36 # 8000011c <reset_vector+0xc8>
    80000100:	30529073          	csrw	mtvec,t0
    80000104:	0010029b          	addiw	t0,zero,1
    80000108:	03529293          	slli	t0,t0,0x35
    8000010c:	fff28293          	addi	t0,t0,-1
    80000110:	3b029073          	csrw	pmpaddr0,t0
    80000114:	01f00293          	li	t0,31
    80000118:	3a029073          	csrw	pmpcfg0,t0
    8000011c:	30405073          	csrwi	mie,0
    80000120:	00000297          	auipc	t0,0x0
    80000124:	01428293          	addi	t0,t0,20 # 80000134 <reset_vector+0xe0>
    80000128:	30529073          	csrw	mtvec,t0
    8000012c:	30205073          	csrwi	medeleg,0
    80000130:	30305073          	csrwi	mideleg,0
    80000134:	00000193          	li	gp,0
    80000138:	00000297          	auipc	t0,0x0
    8000013c:	ecc28293          	addi	t0,t0,-308 # 80000004 <trap_vector>
    80000140:	30529073          	csrw	mtvec,t0
    80000144:	00100513          	li	a0,1
    80000148:	01f51513          	slli	a0,a0,0x1f
    8000014c:	00055c63          	bgez	a0,80000164 <reset_vector+0x110>
    80000150:	0ff0000f          	fence
    80000154:	00100193          	li	gp,1
    80000158:	05d00893          	li	a7,93
    8000015c:	00000513          	li	a0,0
    80000160:	00000073          	ecall
    80000164:	80000297          	auipc	t0,0x80000
    80000168:	e9c28293          	addi	t0,t0,-356 # 0 <_start-0x80000000>
    8000016c:	00028a63          	beqz	t0,80000180 <reset_vector+0x12c>
    80000170:	10529073          	csrw	stvec,t0
    80000174:	0000b2b7          	lui	t0,0xb
    80000178:	1092829b          	addiw	t0,t0,265
    8000017c:	30229073          	csrw	medeleg,t0
    80000180:	30005073          	csrwi	mstatus,0
    80000184:	00002537          	lui	a0,0x2
    80000188:	30052073          	csrs	mstatus,a0
    8000018c:	00305073          	csrwi	fcsr,0
    80000190:	00000297          	auipc	t0,0x0
    80000194:	01428293          	addi	t0,t0,20 # 800001a4 <test_2>
    80000198:	34129073          	csrw	mepc,t0
    8000019c:	f1402573          	csrr	a0,mhartid
    800001a0:	30200073          	mret

00000000800001a4 <test_2>:
    800001a4:	00200193          	li	gp,2
    800001a8:	00002517          	auipc	a0,0x2
    800001ac:	e5850513          	addi	a0,a0,-424 # 80002000 <test_2_data>
    800001b0:	00053507          	fld	fa0,0(a0)
    800001b4:	00853587          	fld	fa1,8(a0)
    800001b8:	01053607          	fld	fa2,16(a0)
    800001bc:	01853683          	ld	a3,24(a0)
    800001c0:	a2b52553          	feq.d	a0,fa0,fa1
    800001c4:	001015f3          	fsflags	a1,zero
    800001c8:	00000613          	li	a2,0
    800001cc:	2ad51663          	bne	a0,a3,80000478 <fail>
    800001d0:	2ac59463          	bne	a1,a2,80000478 <fail>

00000000800001d4 <test_3>:
    800001d4:	00300193          	li	gp,3
    800001d8:	00002517          	auipc	a0,0x2
    800001dc:	e4850513          	addi	a0,a0,-440 # 80002020 <test_3_data>
    800001e0:	00053507          	fld	fa0,0(a0)
    800001e4:	00853587          	fld	fa1,8(a0)
    800001e8:	01053607          	fld	fa2,16(a0)
    800001ec:	01853683          	ld	a3,24(a0)
    800001f0:	a2b50553          	fle.d	a0,fa0,fa1
    800001f4:	001015f3          	fsflags	a1,zero
    800001f8:	00000613          	li	a2,0
    800001fc:	26d51e63          	bne	a0,a3,80000478 <fail>
    80000200:	26c59c63          	bne	a1,a2,80000478 <fail>

0000000080000204 <test_4>:
    80000204:	00400193          	li	gp,4
    80000208:	00002517          	auipc	a0,0x2
    8000020c:	e3850513          	addi	a0,a0,-456 # 80002040 <test_4_data>
    80000210:	00053507          	fld	fa0,0(a0)
    80000214:	00853587          	fld	fa1,8(a0)
    80000218:	01053607          	fld	fa2,16(a0)
    8000021c:	01853683          	ld	a3,24(a0)
    80000220:	a2b51553          	flt.d	a0,fa0,fa1
    80000224:	001015f3          	fsflags	a1,zero
    80000228:	00000613          	li	a2,0
    8000022c:	24d51663          	bne	a0,a3,80000478 <fail>
    80000230:	24c59463          	bne	a1,a2,80000478 <fail>

0000000080000234 <test_5>:
    80000234:	00500193          	li	gp,5
    80000238:	00002517          	auipc	a0,0x2
    8000023c:	e2850513          	addi	a0,a0,-472 # 80002060 <test_5_data>
    80000240:	00053507          	fld	fa0,0(a0)
    80000244:	00853587          	fld	fa1,8(a0)
    80000248:	01053607          	fld	fa2,16(a0)
    8000024c:	01853683          	ld	a3,24(a0)
    80000250:	a2b52553          	feq.d	a0,fa0,fa1
    80000254:	001015f3          	fsflags	a1,zero
    80000258:	00000613          	li	a2,0
    8000025c:	20d51e63          	bne	a0,a3,80000478 <fail>
    80000260:	20c59c63          	bne	a1,a2,80000478 <fail>

0000000080000264 <test_6>:
    80000264:	00600193          	li	gp,6
    80000268:	00002517          	auipc	a0,0x2
    8000026c:	e1850513          	addi	a0,a0,-488 # 80002080 <test_6_data>
    80000270:	00053507          	fld	fa0,0(a0)
    80000274:	00853587          	fld	fa1,8(a0)
    80000278:	01053607          	fld	fa2,16(a0)
    8000027c:	01853683          	ld	a3,24(a0)
    80000280:	a2b50553          	fle.d	a0,fa0,fa1
    80000284:	001015f3          	fsflags	a1,zero
    80000288:	00000613          	li	a2,0
    8000028c:	1ed51663          	bne	a0,a3,80000478 <fail>
    80000290:	1ec59463          	bne	a1,a2,80000478 <fail>

0000000080000294 <test_7>:
    80000294:	00700193          	li	gp,7
    80000298:	00002517          	auipc	a0,0x2
    8000029c:	e0850513          	addi	a0,a0,-504 # 800020a0 <test_7_data>
    800002a0:	00053507          	fld	fa0,0(a0)
    800002a4:	00853587          	fld	fa1,8(a0)
    800002a8:	01053607          	fld	fa2,16(a0)
    800002ac:	01853683          	ld	a3,24(a0)
    800002b0:	a2b51553          	flt.d	a0,fa0,fa1
    800002b4:	001015f3          	fsflags	a1,zero
    800002b8:	00000613          	li	a2,0
    800002bc:	1ad51e63          	bne	a0,a3,80000478 <fail>
    800002c0:	1ac59c63          	bne	a1,a2,80000478 <fail>

00000000800002c4 <test_8>:
    800002c4:	00800193          	li	gp,8
    800002c8:	00002517          	auipc	a0,0x2
    800002cc:	df850513          	addi	a0,a0,-520 # 800020c0 <test_8_data>
    800002d0:	00053507          	fld	fa0,0(a0)
    800002d4:	00853587          	fld	fa1,8(a0)
    800002d8:	01053607          	fld	fa2,16(a0)
    800002dc:	01853683          	ld	a3,24(a0)
    800002e0:	a2b52553          	feq.d	a0,fa0,fa1
    800002e4:	001015f3          	fsflags	a1,zero
    800002e8:	00000613          	li	a2,0
    800002ec:	18d51663          	bne	a0,a3,80000478 <fail>
    800002f0:	18c59463          	bne	a1,a2,80000478 <fail>

00000000800002f4 <test_9>:
    800002f4:	00900193          	li	gp,9
    800002f8:	00002517          	auipc	a0,0x2
    800002fc:	de850513          	addi	a0,a0,-536 # 800020e0 <test_9_data>
    80000300:	00053507          	fld	fa0,0(a0)
    80000304:	00853587          	fld	fa1,8(a0)
    80000308:	01053607          	fld	fa2,16(a0)
    8000030c:	01853683          	ld	a3,24(a0)
    80000310:	a2b52553          	feq.d	a0,fa0,fa1
    80000314:	001015f3          	fsflags	a1,zero
    80000318:	00000613          	li	a2,0
    8000031c:	14d51e63          	bne	a0,a3,80000478 <fail>
    80000320:	14c59c63          	bne	a1,a2,80000478 <fail>

0000000080000324 <test_10>:
    80000324:	00a00193          	li	gp,10
    80000328:	00002517          	auipc	a0,0x2
    8000032c:	dd850513          	addi	a0,a0,-552 # 80002100 <test_10_data>
    80000330:	00053507          	fld	fa0,0(a0)
    80000334:	00853587          	fld	fa1,8(a0)
    80000338:	01053607          	fld	fa2,16(a0)
    8000033c:	01853683          	ld	a3,24(a0)
    80000340:	a2b52553          	feq.d	a0,fa0,fa1
    80000344:	001015f3          	fsflags	a1,zero
    80000348:	01000613          	li	a2,16
    8000034c:	12d51663          	bne	a0,a3,80000478 <fail>
    80000350:	12c59463          	bne	a1,a2,80000478 <fail>

0000000080000354 <test_11>:
    80000354:	00b00193          	li	gp,11
    80000358:	00002517          	auipc	a0,0x2
    8000035c:	dc850513          	addi	a0,a0,-568 # 80002120 <test_11_data>
    80000360:	00053507          	fld	fa0,0(a0)
    80000364:	00853587          	fld	fa1,8(a0)
    80000368:	01053607          	fld	fa2,16(a0)
    8000036c:	01853683          	ld	a3,24(a0)
    80000370:	a2b51553          	flt.d	a0,fa0,fa1
    80000374:	001015f3          	fsflags	a1,zero
    80000378:	01000613          	li	a2,16
    8000037c:	0ed51e63          	bne	a0,a3,80000478 <fail>
    80000380:	0ec59c63          	bne	a1,a2,80000478 <fail>

0000000080000384 <test_12>:
    80000384:	00c00193          	li	gp,12
    80000388:	00002517          	auipc	a0,0x2
    8000038c:	db850513          	addi	a0,a0,-584 # 80002140 <test_12_data>
    80000390:	00053507          	fld	fa0,0(a0)
    80000394:	00853587          	fld	fa1,8(a0)
    80000398:	01053607          	fld	fa2,16(a0)
    8000039c:	01853683          	ld	a3,24(a0)
    800003a0:	a2b51553          	flt.d	a0,fa0,fa1
    800003a4:	001015f3          	fsflags	a1,zero
    800003a8:	01000613          	li	a2,16
    800003ac:	0cd51663          	bne	a0,a3,80000478 <fail>
    800003b0:	0cc59463          	bne	a1,a2,80000478 <fail>

00000000800003b4 <test_13>:
    800003b4:	00d00193          	li	gp,13
    800003b8:	00002517          	auipc	a0,0x2
    800003bc:	da850513          	addi	a0,a0,-600 # 80002160 <test_13_data>
    800003c0:	00053507          	fld	fa0,0(a0)
    800003c4:	00853587          	fld	fa1,8(a0)
    800003c8:	01053607          	fld	fa2,16(a0)
    800003cc:	01853683          	ld	a3,24(a0)
    800003d0:	a2b51553          	flt.d	a0,fa0,fa1
    800003d4:	001015f3          	fsflags	a1,zero
    800003d8:	01000613          	li	a2,16
    800003dc:	08d51e63          	bne	a0,a3,80000478 <fail>
    800003e0:	08c59c63          	bne	a1,a2,80000478 <fail>

00000000800003e4 <test_14>:
    800003e4:	00e00193          	li	gp,14
    800003e8:	00002517          	auipc	a0,0x2
    800003ec:	d9850513          	addi	a0,a0,-616 # 80002180 <test_14_data>
    800003f0:	00053507          	fld	fa0,0(a0)
    800003f4:	00853587          	fld	fa1,8(a0)
    800003f8:	01053607          	fld	fa2,16(a0)
    800003fc:	01853683          	ld	a3,24(a0)
    80000400:	a2b50553          	fle.d	a0,fa0,fa1
    80000404:	001015f3          	fsflags	a1,zero
    80000408:	01000613          	li	a2,16
    8000040c:	06d51663          	bne	a0,a3,80000478 <fail>
    80000410:	06c59463          	bne	a1,a2,80000478 <fail>

0000000080000414 <test_15>:
    80000414:	00f00193          	li	gp,15
    80000418:	00002517          	auipc	a0,0x2
    8000041c:	d8850513          	addi	a0,a0,-632 # 800021a0 <test_15_data>
    80000420:	00053507          	fld	fa0,0(a0)
    80000424:	00853587          	fld	fa1,8(a0)
    80000428:	01053607          	fld	fa2,16(a0)
    8000042c:	01853683          	ld	a3,24(a0)
    80000430:	a2b50553          	fle.d	a0,fa0,fa1
    80000434:	001015f3          	fsflags	a1,zero
    80000438:	01000613          	li	a2,16
    8000043c:	02d51e63          	bne	a0,a3,80000478 <fail>
    80000440:	02c59c63          	bne	a1,a2,80000478 <fail>

0000000080000444 <test_16>:
    80000444:	01000193          	li	gp,16
    80000448:	00002517          	auipc	a0,0x2
    8000044c:	d7850513          	addi	a0,a0,-648 # 800021c0 <test_16_data>
    80000450:	00053507          	fld	fa0,0(a0)
    80000454:	00853587          	fld	fa1,8(a0)
    80000458:	01053607          	fld	fa2,16(a0)
    8000045c:	01853683          	ld	a3,24(a0)
    80000460:	a2b50553          	fle.d	a0,fa0,fa1
    80000464:	001015f3          	fsflags	a1,zero
    80000468:	01000613          	li	a2,16
    8000046c:	00d51663          	bne	a0,a3,80000478 <fail>
    80000470:	00c59463          	bne	a1,a2,80000478 <fail>
    80000474:	02301063          	bne	zero,gp,80000494 <pass>

0000000080000478 <fail>:
    80000478:	0ff0000f          	fence
    8000047c:	00018063          	beqz	gp,8000047c <fail+0x4>
    80000480:	00119193          	slli	gp,gp,0x1
    80000484:	0011e193          	ori	gp,gp,1
    80000488:	05d00893          	li	a7,93
    8000048c:	00018513          	mv	a0,gp
    80000490:	00000073          	ecall

0000000080000494 <pass>:
    80000494:	0ff0000f          	fence
    80000498:	00100193          	li	gp,1
    8000049c:	05d00893          	li	a7,93
    800004a0:	00000513          	li	a0,0
    800004a4:	00000073          	ecall
    800004a8:	c0001073          	unimp
    800004ac:	0000                	unimp
    800004ae:	0000                	unimp
    800004b0:	0000                	unimp
