
rv64ui-v-ld_st:     file format elf64-littleriscv


Disassembly of section .text.init:

0000000080000000 <_start>:
    80000000:	00c0006f          	j	8000000c <handle_reset>

0000000080000004 <nmi_vector>:
    80000004:	25c0206f          	j	80002260 <wtf>

0000000080000008 <trap_vector>:
    80000008:	2580206f          	j	80002260 <wtf>

000000008000000c <handle_reset>:
    8000000c:	00000093          	li	ra,0
    80000010:	00000113          	li	sp,0
    80000014:	00000193          	li	gp,0
    80000018:	00000213          	li	tp,0
    8000001c:	00000293          	li	t0,0
    80000020:	00000313          	li	t1,0
    80000024:	00000393          	li	t2,0
    80000028:	00000413          	li	s0,0
    8000002c:	00000493          	li	s1,0
    80000030:	00000513          	li	a0,0
    80000034:	00000593          	li	a1,0
    80000038:	00000613          	li	a2,0
    8000003c:	00000693          	li	a3,0
    80000040:	00000713          	li	a4,0
    80000044:	00000793          	li	a5,0
    80000048:	00000813          	li	a6,0
    8000004c:	00000893          	li	a7,0
    80000050:	00000913          	li	s2,0
    80000054:	00000993          	li	s3,0
    80000058:	00000a13          	li	s4,0
    8000005c:	00000a93          	li	s5,0
    80000060:	00000b13          	li	s6,0
    80000064:	00000b93          	li	s7,0
    80000068:	00000c13          	li	s8,0
    8000006c:	00000c93          	li	s9,0
    80000070:	00000d13          	li	s10,0
    80000074:	00000d93          	li	s11,0
    80000078:	00000e13          	li	t3,0
    8000007c:	00000e93          	li	t4,0
    80000080:	00000f13          	li	t5,0
    80000084:	00000f93          	li	t6,0
    80000088:	00000297          	auipc	t0,0x0
    8000008c:	01028293          	addi	t0,t0,16 # 80000098 <handle_reset+0x8c>
    80000090:	30529073          	csrw	mtvec,t0
    80000094:	74445073          	csrwi	0x744,8
    80000098:	00000297          	auipc	t0,0x0
    8000009c:	f7028293          	addi	t0,t0,-144 # 80000008 <trap_vector>
    800000a0:	30529073          	csrw	mtvec,t0
    800000a4:	0000e117          	auipc	sp,0xe
    800000a8:	62c10113          	addi	sp,sp,1580 # 8000e6d0 <_end+0x3ee0>
    800000ac:	f14022f3          	csrr	t0,mhartid
    800000b0:	00c29293          	slli	t0,t0,0xc
    800000b4:	00510133          	add	sp,sp,t0
    800000b8:	34011073          	csrw	mscratch,sp
    800000bc:	271020ef          	jal	ra,80002b2c <extra_boot>
    800000c0:	00003517          	auipc	a0,0x3
    800000c4:	a8050513          	addi	a0,a0,-1408 # 80002b40 <userstart>
    800000c8:	07d0206f          	j	80002944 <vm_boot>

00000000800000cc <pop_tf>:
    800000cc:	10853283          	ld	t0,264(a0)
    800000d0:	14129073          	csrw	sepc,t0
    800000d4:	00853083          	ld	ra,8(a0)
    800000d8:	01053103          	ld	sp,16(a0)
    800000dc:	01853183          	ld	gp,24(a0)
    800000e0:	02053203          	ld	tp,32(a0)
    800000e4:	02853283          	ld	t0,40(a0)
    800000e8:	03053303          	ld	t1,48(a0)
    800000ec:	03853383          	ld	t2,56(a0)
    800000f0:	04053403          	ld	s0,64(a0)
    800000f4:	04853483          	ld	s1,72(a0)
    800000f8:	05853583          	ld	a1,88(a0)
    800000fc:	06053603          	ld	a2,96(a0)
    80000100:	06853683          	ld	a3,104(a0)
    80000104:	07053703          	ld	a4,112(a0)
    80000108:	07853783          	ld	a5,120(a0)
    8000010c:	08053803          	ld	a6,128(a0)
    80000110:	08853883          	ld	a7,136(a0)
    80000114:	09053903          	ld	s2,144(a0)
    80000118:	09853983          	ld	s3,152(a0)
    8000011c:	0a053a03          	ld	s4,160(a0)
    80000120:	0a853a83          	ld	s5,168(a0)
    80000124:	0b053b03          	ld	s6,176(a0)
    80000128:	0b853b83          	ld	s7,184(a0)
    8000012c:	0c053c03          	ld	s8,192(a0)
    80000130:	0c853c83          	ld	s9,200(a0)
    80000134:	0d053d03          	ld	s10,208(a0)
    80000138:	0d853d83          	ld	s11,216(a0)
    8000013c:	0e053e03          	ld	t3,224(a0)
    80000140:	0e853e83          	ld	t4,232(a0)
    80000144:	0f053f03          	ld	t5,240(a0)
    80000148:	0f853f83          	ld	t6,248(a0)
    8000014c:	05053503          	ld	a0,80(a0)
    80000150:	10200073          	sret

0000000080000154 <trap_entry>:
    80000154:	14011173          	csrrw	sp,sscratch,sp
    80000158:	00113423          	sd	ra,8(sp)
    8000015c:	00313c23          	sd	gp,24(sp)
    80000160:	02413023          	sd	tp,32(sp)
    80000164:	02513423          	sd	t0,40(sp)
    80000168:	02613823          	sd	t1,48(sp)
    8000016c:	02713c23          	sd	t2,56(sp)
    80000170:	04813023          	sd	s0,64(sp)
    80000174:	04913423          	sd	s1,72(sp)
    80000178:	04a13823          	sd	a0,80(sp)
    8000017c:	04b13c23          	sd	a1,88(sp)
    80000180:	06c13023          	sd	a2,96(sp)
    80000184:	06d13423          	sd	a3,104(sp)
    80000188:	06e13823          	sd	a4,112(sp)
    8000018c:	06f13c23          	sd	a5,120(sp)
    80000190:	09013023          	sd	a6,128(sp)
    80000194:	09113423          	sd	a7,136(sp)
    80000198:	09213823          	sd	s2,144(sp)
    8000019c:	09313c23          	sd	s3,152(sp)
    800001a0:	0b413023          	sd	s4,160(sp)
    800001a4:	0b513423          	sd	s5,168(sp)
    800001a8:	0b613823          	sd	s6,176(sp)
    800001ac:	0b713c23          	sd	s7,184(sp)
    800001b0:	0d813023          	sd	s8,192(sp)
    800001b4:	0d913423          	sd	s9,200(sp)
    800001b8:	0da13823          	sd	s10,208(sp)
    800001bc:	0db13c23          	sd	s11,216(sp)
    800001c0:	0fc13023          	sd	t3,224(sp)
    800001c4:	0fd13423          	sd	t4,232(sp)
    800001c8:	0fe13823          	sd	t5,240(sp)
    800001cc:	0ff13c23          	sd	t6,248(sp)
    800001d0:	140112f3          	csrrw	t0,sscratch,sp
    800001d4:	00513823          	sd	t0,16(sp)
    800001d8:	100022f3          	csrr	t0,sstatus
    800001dc:	10513023          	sd	t0,256(sp)
    800001e0:	141022f3          	csrr	t0,sepc
    800001e4:	10513423          	sd	t0,264(sp)
    800001e8:	143022f3          	csrr	t0,sbadaddr
    800001ec:	10513823          	sd	t0,272(sp)
    800001f0:	142022f3          	csrr	t0,scause
    800001f4:	10513c23          	sd	t0,280(sp)
    800001f8:	00010513          	mv	a0,sp
    800001fc:	3ec0206f          	j	800025e8 <handle_trap>
    80000200:	00              	Address 0x0000000080000200 is out of bounds.


Disassembly of section .text:

0000000080002000 <memcpy>:
    80002000:	00c5e7b3          	or	a5,a1,a2
    80002004:	00f567b3          	or	a5,a0,a5
    80002008:	0077f793          	andi	a5,a5,7
    8000200c:	00c506b3          	add	a3,a0,a2
    80002010:	02078463          	beqz	a5,80002038 <memcpy+0x38>
    80002014:	00c58633          	add	a2,a1,a2
    80002018:	00050793          	mv	a5,a0
    8000201c:	02d57e63          	bleu	a3,a0,80002058 <memcpy+0x58>
    80002020:	00158593          	addi	a1,a1,1
    80002024:	fff5c703          	lbu	a4,-1(a1)
    80002028:	00178793          	addi	a5,a5,1
    8000202c:	fee78fa3          	sb	a4,-1(a5)
    80002030:	feb618e3          	bne	a2,a1,80002020 <memcpy+0x20>
    80002034:	00008067          	ret
    80002038:	fed57ee3          	bleu	a3,a0,80002034 <memcpy+0x34>
    8000203c:	00050793          	mv	a5,a0
    80002040:	00858593          	addi	a1,a1,8
    80002044:	ff85b703          	ld	a4,-8(a1)
    80002048:	00878793          	addi	a5,a5,8
    8000204c:	fee7bc23          	sd	a4,-8(a5)
    80002050:	fed7e8e3          	bltu	a5,a3,80002040 <memcpy+0x40>
    80002054:	00008067          	ret
    80002058:	00008067          	ret

000000008000205c <memset>:
    8000205c:	00c567b3          	or	a5,a0,a2
    80002060:	0077f793          	andi	a5,a5,7
    80002064:	00c50633          	add	a2,a0,a2
    80002068:	0ff5f593          	andi	a1,a1,255
    8000206c:	00078e63          	beqz	a5,80002088 <memset+0x2c>
    80002070:	00050793          	mv	a5,a0
    80002074:	04c57263          	bleu	a2,a0,800020b8 <memset+0x5c>
    80002078:	00178793          	addi	a5,a5,1
    8000207c:	feb78fa3          	sb	a1,-1(a5)
    80002080:	fef61ce3          	bne	a2,a5,80002078 <memset+0x1c>
    80002084:	00008067          	ret
    80002088:	00859793          	slli	a5,a1,0x8
    8000208c:	00b7e5b3          	or	a1,a5,a1
    80002090:	01059793          	slli	a5,a1,0x10
    80002094:	00b7e7b3          	or	a5,a5,a1
    80002098:	02079593          	slli	a1,a5,0x20
    8000209c:	00f5e5b3          	or	a1,a1,a5
    800020a0:	fec572e3          	bleu	a2,a0,80002084 <memset+0x28>
    800020a4:	00050793          	mv	a5,a0
    800020a8:	00878793          	addi	a5,a5,8
    800020ac:	feb7bc23          	sd	a1,-8(a5)
    800020b0:	fec7ece3          	bltu	a5,a2,800020a8 <memset+0x4c>
    800020b4:	00008067          	ret
    800020b8:	00008067          	ret

00000000800020bc <strlen>:
    800020bc:	00054783          	lbu	a5,0(a0)
    800020c0:	00050713          	mv	a4,a0
    800020c4:	00078c63          	beqz	a5,800020dc <strlen+0x20>
    800020c8:	00150513          	addi	a0,a0,1
    800020cc:	00054783          	lbu	a5,0(a0)
    800020d0:	fe079ce3          	bnez	a5,800020c8 <strlen+0xc>
    800020d4:	40e50533          	sub	a0,a0,a4
    800020d8:	00008067          	ret
    800020dc:	00000513          	li	a0,0
    800020e0:	00008067          	ret

00000000800020e4 <strcmp>:
    800020e4:	00150513          	addi	a0,a0,1
    800020e8:	fff54783          	lbu	a5,-1(a0)
    800020ec:	00158593          	addi	a1,a1,1
    800020f0:	fff5c703          	lbu	a4,-1(a1)
    800020f4:	00078a63          	beqz	a5,80002108 <strcmp+0x24>
    800020f8:	fee786e3          	beq	a5,a4,800020e4 <strcmp>
    800020fc:	0007851b          	sext.w	a0,a5
    80002100:	40e5053b          	subw	a0,a0,a4
    80002104:	00008067          	ret
    80002108:	00000513          	li	a0,0
    8000210c:	ff5ff06f          	j	80002100 <strcmp+0x1c>

0000000080002110 <memcmp>:
    80002110:	00b567b3          	or	a5,a0,a1
    80002114:	0077f793          	andi	a5,a5,7
    80002118:	04079263          	bnez	a5,8000215c <memcmp+0x4c>
    8000211c:	ff867693          	andi	a3,a2,-8
    80002120:	00d506b3          	add	a3,a0,a3
    80002124:	00050813          	mv	a6,a0
    80002128:	02d57a63          	bleu	a3,a0,8000215c <memcmp+0x4c>
    8000212c:	0005b703          	ld	a4,0(a1)
    80002130:	00053783          	ld	a5,0(a0)
    80002134:	00f70a63          	beq	a4,a5,80002148 <memcmp+0x38>
    80002138:	0240006f          	j	8000215c <memcmp+0x4c>
    8000213c:	00053703          	ld	a4,0(a0)
    80002140:	0005b783          	ld	a5,0(a1)
    80002144:	00f71863          	bne	a4,a5,80002154 <memcmp+0x44>
    80002148:	00850513          	addi	a0,a0,8
    8000214c:	00858593          	addi	a1,a1,8
    80002150:	fed566e3          	bltu	a0,a3,8000213c <memcmp+0x2c>
    80002154:	41050833          	sub	a6,a0,a6
    80002158:	41060633          	sub	a2,a2,a6
    8000215c:	00c58633          	add	a2,a1,a2
    80002160:	0140006f          	j	80002174 <memcmp+0x64>
    80002164:	00158593          	addi	a1,a1,1
    80002168:	fff54783          	lbu	a5,-1(a0)
    8000216c:	fff5c703          	lbu	a4,-1(a1)
    80002170:	00e79a63          	bne	a5,a4,80002184 <memcmp+0x74>
    80002174:	00150513          	addi	a0,a0,1
    80002178:	fec596e3          	bne	a1,a2,80002164 <memcmp+0x54>
    8000217c:	00000513          	li	a0,0
    80002180:	00008067          	ret
    80002184:	40e7853b          	subw	a0,a5,a4
    80002188:	00008067          	ret

000000008000218c <strcpy>:
    8000218c:	00050793          	mv	a5,a0
    80002190:	00158593          	addi	a1,a1,1
    80002194:	fff5c703          	lbu	a4,-1(a1)
    80002198:	00178793          	addi	a5,a5,1
    8000219c:	fee78fa3          	sb	a4,-1(a5)
    800021a0:	fe0718e3          	bnez	a4,80002190 <strcpy+0x4>
    800021a4:	00008067          	ret

00000000800021a8 <atol>:
    800021a8:	00054783          	lbu	a5,0(a0)
    800021ac:	02000713          	li	a4,32
    800021b0:	00e79863          	bne	a5,a4,800021c0 <atol+0x18>
    800021b4:	00150513          	addi	a0,a0,1
    800021b8:	00054783          	lbu	a5,0(a0)
    800021bc:	fee78ce3          	beq	a5,a4,800021b4 <atol+0xc>
    800021c0:	fd57871b          	addiw	a4,a5,-43
    800021c4:	0fd77713          	andi	a4,a4,253
    800021c8:	04070263          	beqz	a4,8000220c <atol+0x64>
    800021cc:	00054683          	lbu	a3,0(a0)
    800021d0:	00050793          	mv	a5,a0
    800021d4:	00000613          	li	a2,0
    800021d8:	04068863          	beqz	a3,80002228 <atol+0x80>
    800021dc:	00000513          	li	a0,0
    800021e0:	00178793          	addi	a5,a5,1
    800021e4:	fd06859b          	addiw	a1,a3,-48
    800021e8:	00251713          	slli	a4,a0,0x2
    800021ec:	0007c683          	lbu	a3,0(a5)
    800021f0:	00a70533          	add	a0,a4,a0
    800021f4:	00151513          	slli	a0,a0,0x1
    800021f8:	00a58533          	add	a0,a1,a0
    800021fc:	fe0692e3          	bnez	a3,800021e0 <atol+0x38>
    80002200:	00060463          	beqz	a2,80002208 <atol+0x60>
    80002204:	40a00533          	neg	a0,a0
    80002208:	00008067          	ret
    8000220c:	00154683          	lbu	a3,1(a0)
    80002210:	fd378793          	addi	a5,a5,-45
    80002214:	0017b613          	seqz	a2,a5
    80002218:	00150793          	addi	a5,a0,1
    8000221c:	fc0690e3          	bnez	a3,800021dc <atol+0x34>
    80002220:	00000513          	li	a0,0
    80002224:	fddff06f          	j	80002200 <atol+0x58>
    80002228:	00000513          	li	a0,0
    8000222c:	00008067          	ret
    80002230:	0000                	unimp
    80002232:	0000                	unimp

0000000080002234 <terminate>:
    80002234:	fffff797          	auipc	a5,0xfffff
    80002238:	dcc78793          	addi	a5,a5,-564 # 80001000 <tohost>
    8000223c:	0007b703          	ld	a4,0(a5)
    80002240:	00070a63          	beqz	a4,80002254 <terminate+0x20>
    80002244:	fffff717          	auipc	a4,0xfffff
    80002248:	de073e23          	sd	zero,-516(a4) # 80001040 <fromhost>
    8000224c:	0007b703          	ld	a4,0(a5)
    80002250:	fe071ae3          	bnez	a4,80002244 <terminate+0x10>
    80002254:	fffff797          	auipc	a5,0xfffff
    80002258:	daa7b623          	sd	a0,-596(a5) # 80001000 <tohost>
    8000225c:	0000006f          	j	8000225c <terminate+0x28>

0000000080002260 <wtf>:
    80002260:	ff010113          	addi	sp,sp,-16
    80002264:	34900513          	li	a0,841
    80002268:	00113423          	sd	ra,8(sp)
    8000226c:	00000097          	auipc	ra,0x0
    80002270:	fc8080e7          	jalr	-56(ra) # 80002234 <terminate>

0000000080002274 <printhex>:
    80002274:	fe010113          	addi	sp,sp,-32
    80002278:	01710713          	addi	a4,sp,23
    8000227c:	00710813          	addi	a6,sp,7
    80002280:	00900593          	li	a1,9
    80002284:	00f57793          	andi	a5,a0,15
    80002288:	03000613          	li	a2,48
    8000228c:	0ff7f693          	andi	a3,a5,255
    80002290:	00f5f463          	bleu	a5,a1,80002298 <printhex+0x24>
    80002294:	05700613          	li	a2,87
    80002298:	00c687bb          	addw	a5,a3,a2
    8000229c:	00f70023          	sb	a5,0(a4)
    800022a0:	fff70713          	addi	a4,a4,-1
    800022a4:	00455513          	srli	a0,a0,0x4
    800022a8:	fd071ee3          	bne	a4,a6,80002284 <printhex+0x10>
    800022ac:	00814783          	lbu	a5,8(sp)
    800022b0:	00010c23          	sb	zero,24(sp)
    800022b4:	04078463          	beqz	a5,800022fc <printhex+0x88>
    800022b8:	10100513          	li	a0,257
    800022bc:	00810693          	addi	a3,sp,8
    800022c0:	fffff717          	auipc	a4,0xfffff
    800022c4:	d4070713          	addi	a4,a4,-704 # 80001000 <tohost>
    800022c8:	03051513          	slli	a0,a0,0x30
    800022cc:	00073583          	ld	a1,0(a4)
    800022d0:	00168693          	addi	a3,a3,1
    800022d4:	00a7e633          	or	a2,a5,a0
    800022d8:	00058a63          	beqz	a1,800022ec <printhex+0x78>
    800022dc:	fffff797          	auipc	a5,0xfffff
    800022e0:	d607b223          	sd	zero,-668(a5) # 80001040 <fromhost>
    800022e4:	00073783          	ld	a5,0(a4)
    800022e8:	fe079ae3          	bnez	a5,800022dc <printhex+0x68>
    800022ec:	0006c783          	lbu	a5,0(a3)
    800022f0:	fffff597          	auipc	a1,0xfffff
    800022f4:	d0c5b823          	sd	a2,-752(a1) # 80001000 <tohost>
    800022f8:	fc079ae3          	bnez	a5,800022cc <printhex+0x58>
    800022fc:	02010113          	addi	sp,sp,32
    80002300:	00008067          	ret

0000000080002304 <handle_fault>:
    80002304:	fb010113          	addi	sp,sp,-80
    80002308:	00100793          	li	a5,1
    8000230c:	02913c23          	sd	s1,56(sp)
    80002310:	fffff4b7          	lui	s1,0xfffff
    80002314:	00f12223          	sw	a5,4(sp)
    80002318:	04113423          	sd	ra,72(sp)
    8000231c:	04813023          	sd	s0,64(sp)
    80002320:	03213823          	sd	s2,48(sp)
    80002324:	03313423          	sd	s3,40(sp)
    80002328:	03413023          	sd	s4,32(sp)
    8000232c:	01513c23          	sd	s5,24(sp)
    80002330:	00013423          	sd	zero,8(sp)
    80002334:	00950733          	add	a4,a0,s1
    80002338:	0003e7b7          	lui	a5,0x3e
    8000233c:	16f77263          	bleu	a5,a4,800024a0 <handle_fault+0x19c>
    80002340:	00c55993          	srli	s3,a0,0xc
    80002344:	60098a13          	addi	s4,s3,1536
    80002348:	00004917          	auipc	s2,0x4
    8000234c:	cb890913          	addi	s2,s2,-840 # 80006000 <pt>
    80002350:	003a1793          	slli	a5,s4,0x3
    80002354:	00f907b3          	add	a5,s2,a5
    80002358:	0007b703          	ld	a4,0(a5) # 3e000 <_start-0x7ffc2000>
    8000235c:	009574b3          	and	s1,a0,s1
    80002360:	0e071263          	bnez	a4,80002444 <handle_fault+0x140>
    80002364:	00008797          	auipc	a5,0x8
    80002368:	48478793          	addi	a5,a5,1156 # 8000a7e8 <freelist_head>
    8000236c:	0007ba83          	ld	s5,0(a5)
    80002370:	220a8463          	beqz	s5,80002598 <handle_fault+0x294>
    80002374:	008ab783          	ld	a5,8(s5)
    80002378:	00008717          	auipc	a4,0x8
    8000237c:	46870713          	addi	a4,a4,1128 # 8000a7e0 <freelist_tail>
    80002380:	00073703          	ld	a4,0(a4)
    80002384:	00008697          	auipc	a3,0x8
    80002388:	46f6b223          	sd	a5,1124(a3) # 8000a7e8 <freelist_head>
    8000238c:	10e78463          	beq	a5,a4,80002494 <handle_fault+0x190>
    80002390:	00410613          	addi	a2,sp,4
    80002394:	00810593          	addi	a1,sp,8
    80002398:	00048513          	mv	a0,s1
    8000239c:	000ab403          	ld	s0,0(s5)
    800023a0:	798000ef          	jal	ra,80002b38 <pf_filter>
    800023a4:	0c051c63          	bnez	a0,8000247c <handle_fault+0x178>
    800023a8:	00c45413          	srli	s0,s0,0xc
    800023ac:	00a41413          	slli	s0,s0,0xa
    800023b0:	01f46413          	ori	s0,s0,31
    800023b4:	003a1a13          	slli	s4,s4,0x3
    800023b8:	01490933          	add	s2,s2,s4
    800023bc:	0c046793          	ori	a5,s0,192
    800023c0:	00f93023          	sd	a5,0(s2)
    800023c4:	12048073          	sfence.vma	s1
    800023c8:	00008797          	auipc	a5,0x8
    800023cc:	02878793          	addi	a5,a5,40 # 8000a3f0 <user_mapping>
    800023d0:	00499993          	slli	s3,s3,0x4
    800023d4:	013789b3          	add	s3,a5,s3
    800023d8:	0009b783          	ld	a5,0(s3)
    800023dc:	10079e63          	bnez	a5,800024f8 <handle_fault+0x1f4>
    800023e0:	000ab783          	ld	a5,0(s5)
    800023e4:	00f9b023          	sd	a5,0(s3)
    800023e8:	008ab783          	ld	a5,8(s5)
    800023ec:	00f9b423          	sd	a5,8(s3)
    800023f0:	000409b7          	lui	s3,0x40
    800023f4:	1009a9f3          	csrrs	s3,sstatus,s3
    800023f8:	ffe005b7          	lui	a1,0xffe00
    800023fc:	00001637          	lui	a2,0x1
    80002400:	00b485b3          	add	a1,s1,a1
    80002404:	00048513          	mv	a0,s1
    80002408:	00000097          	auipc	ra,0x0
    8000240c:	bf8080e7          	jalr	-1032(ra) # 80002000 <memcpy>
    80002410:	10099073          	csrw	sstatus,s3
    80002414:	00893023          	sd	s0,0(s2)
    80002418:	12048073          	sfence.vma	s1
    8000241c:	0000100f          	fence.i
    80002420:	04813083          	ld	ra,72(sp)
    80002424:	04013403          	ld	s0,64(sp)
    80002428:	03813483          	ld	s1,56(sp)
    8000242c:	03013903          	ld	s2,48(sp)
    80002430:	02813983          	ld	s3,40(sp)
    80002434:	02013a03          	ld	s4,32(sp)
    80002438:	01813a83          	ld	s5,24(sp)
    8000243c:	05010113          	addi	sp,sp,80
    80002440:	00008067          	ret
    80002444:	04077693          	andi	a3,a4,64
    80002448:	00069a63          	bnez	a3,8000245c <handle_fault+0x158>
    8000244c:	04076713          	ori	a4,a4,64
    80002450:	00e7b023          	sd	a4,0(a5)
    80002454:	12048073          	sfence.vma	s1
    80002458:	fc9ff06f          	j	80002420 <handle_fault+0x11c>
    8000245c:	08077693          	andi	a3,a4,128
    80002460:	0e069463          	bnez	a3,80002548 <handle_fault+0x244>
    80002464:	00f00693          	li	a3,15
    80002468:	0ed59063          	bne	a1,a3,80002548 <handle_fault+0x244>
    8000246c:	08076713          	ori	a4,a4,128
    80002470:	00e7b023          	sd	a4,0(a5)
    80002474:	12048073          	sfence.vma	s1
    80002478:	fa9ff06f          	j	80002420 <handle_fault+0x11c>
    8000247c:	000ab403          	ld	s0,0(s5)
    80002480:	00813783          	ld	a5,8(sp)
    80002484:	00c45413          	srli	s0,s0,0xc
    80002488:	00a41413          	slli	s0,s0,0xa
    8000248c:	00f46433          	or	s0,s0,a5
    80002490:	f25ff06f          	j	800023b4 <handle_fault+0xb0>
    80002494:	00008797          	auipc	a5,0x8
    80002498:	3407b623          	sd	zero,844(a5) # 8000a7e0 <freelist_tail>
    8000249c:	ef5ff06f          	j	80002390 <handle_fault+0x8c>
    800024a0:	10100613          	li	a2,257
    800024a4:	04100713          	li	a4,65
    800024a8:	00002697          	auipc	a3,0x2
    800024ac:	d1068693          	addi	a3,a3,-752 # 800041b8 <pass+0xc>
    800024b0:	fffff797          	auipc	a5,0xfffff
    800024b4:	b5078793          	addi	a5,a5,-1200 # 80001000 <tohost>
    800024b8:	03061613          	slli	a2,a2,0x30
    800024bc:	0007b503          	ld	a0,0(a5)
    800024c0:	00168693          	addi	a3,a3,1
    800024c4:	00c765b3          	or	a1,a4,a2
    800024c8:	00050a63          	beqz	a0,800024dc <handle_fault+0x1d8>
    800024cc:	fffff717          	auipc	a4,0xfffff
    800024d0:	b6073a23          	sd	zero,-1164(a4) # 80001040 <fromhost>
    800024d4:	0007b703          	ld	a4,0(a5)
    800024d8:	fe071ae3          	bnez	a4,800024cc <handle_fault+0x1c8>
    800024dc:	0006c703          	lbu	a4,0(a3)
    800024e0:	fffff517          	auipc	a0,0xfffff
    800024e4:	b2b53023          	sd	a1,-1248(a0) # 80001000 <tohost>
    800024e8:	fc071ae3          	bnez	a4,800024bc <handle_fault+0x1b8>
    800024ec:	00300513          	li	a0,3
    800024f0:	00000097          	auipc	ra,0x0
    800024f4:	d44080e7          	jalr	-700(ra) # 80002234 <terminate>
    800024f8:	10100693          	li	a3,257
    800024fc:	04100713          	li	a4,65
    80002500:	00002617          	auipc	a2,0x2
    80002504:	d6860613          	addi	a2,a2,-664 # 80004268 <pass+0xbc>
    80002508:	fffff797          	auipc	a5,0xfffff
    8000250c:	af878793          	addi	a5,a5,-1288 # 80001000 <tohost>
    80002510:	03069693          	slli	a3,a3,0x30
    80002514:	0007b503          	ld	a0,0(a5)
    80002518:	00160613          	addi	a2,a2,1
    8000251c:	00d765b3          	or	a1,a4,a3
    80002520:	00050a63          	beqz	a0,80002534 <handle_fault+0x230>
    80002524:	fffff717          	auipc	a4,0xfffff
    80002528:	b0073e23          	sd	zero,-1252(a4) # 80001040 <fromhost>
    8000252c:	0007b703          	ld	a4,0(a5)
    80002530:	fe071ae3          	bnez	a4,80002524 <handle_fault+0x220>
    80002534:	00064703          	lbu	a4,0(a2)
    80002538:	fffff517          	auipc	a0,0xfffff
    8000253c:	acb53423          	sd	a1,-1336(a0) # 80001000 <tohost>
    80002540:	fc071ae3          	bnez	a4,80002514 <handle_fault+0x210>
    80002544:	fa9ff06f          	j	800024ec <handle_fault+0x1e8>
    80002548:	10100613          	li	a2,257
    8000254c:	04100713          	li	a4,65
    80002550:	00002697          	auipc	a3,0x2
    80002554:	cb868693          	addi	a3,a3,-840 # 80004208 <pass+0x5c>
    80002558:	fffff797          	auipc	a5,0xfffff
    8000255c:	aa878793          	addi	a5,a5,-1368 # 80001000 <tohost>
    80002560:	03061613          	slli	a2,a2,0x30
    80002564:	0007b503          	ld	a0,0(a5)
    80002568:	00168693          	addi	a3,a3,1
    8000256c:	00c765b3          	or	a1,a4,a2
    80002570:	00050a63          	beqz	a0,80002584 <handle_fault+0x280>
    80002574:	fffff717          	auipc	a4,0xfffff
    80002578:	ac073623          	sd	zero,-1332(a4) # 80001040 <fromhost>
    8000257c:	0007b703          	ld	a4,0(a5)
    80002580:	fe071ae3          	bnez	a4,80002574 <handle_fault+0x270>
    80002584:	0006c703          	lbu	a4,0(a3)
    80002588:	fffff517          	auipc	a0,0xfffff
    8000258c:	a6b53c23          	sd	a1,-1416(a0) # 80001000 <tohost>
    80002590:	fc071ae3          	bnez	a4,80002564 <handle_fault+0x260>
    80002594:	f59ff06f          	j	800024ec <handle_fault+0x1e8>
    80002598:	10100693          	li	a3,257
    8000259c:	04100713          	li	a4,65
    800025a0:	00002617          	auipc	a2,0x2
    800025a4:	cb060613          	addi	a2,a2,-848 # 80004250 <pass+0xa4>
    800025a8:	fffff797          	auipc	a5,0xfffff
    800025ac:	a5878793          	addi	a5,a5,-1448 # 80001000 <tohost>
    800025b0:	03069693          	slli	a3,a3,0x30
    800025b4:	0007b503          	ld	a0,0(a5)
    800025b8:	00160613          	addi	a2,a2,1
    800025bc:	00d765b3          	or	a1,a4,a3
    800025c0:	00050a63          	beqz	a0,800025d4 <handle_fault+0x2d0>
    800025c4:	fffff717          	auipc	a4,0xfffff
    800025c8:	a6073e23          	sd	zero,-1412(a4) # 80001040 <fromhost>
    800025cc:	0007b703          	ld	a4,0(a5)
    800025d0:	fe071ae3          	bnez	a4,800025c4 <handle_fault+0x2c0>
    800025d4:	00064703          	lbu	a4,0(a2)
    800025d8:	fffff517          	auipc	a0,0xfffff
    800025dc:	a2b53423          	sd	a1,-1496(a0) # 80001000 <tohost>
    800025e0:	fc071ae3          	bnez	a4,800025b4 <handle_fault+0x2b0>
    800025e4:	f09ff06f          	j	800024ec <handle_fault+0x1e8>

00000000800025e8 <handle_trap>:
    800025e8:	f9010113          	addi	sp,sp,-112
    800025ec:	06813023          	sd	s0,96(sp)
    800025f0:	06113423          	sd	ra,104(sp)
    800025f4:	04913c23          	sd	s1,88(sp)
    800025f8:	05213823          	sd	s2,80(sp)
    800025fc:	05313423          	sd	s3,72(sp)
    80002600:	05413023          	sd	s4,64(sp)
    80002604:	03513c23          	sd	s5,56(sp)
    80002608:	03613823          	sd	s6,48(sp)
    8000260c:	03713423          	sd	s7,40(sp)
    80002610:	03813023          	sd	s8,32(sp)
    80002614:	01913c23          	sd	s9,24(sp)
    80002618:	01a13823          	sd	s10,16(sp)
    8000261c:	01b13423          	sd	s11,8(sp)
    80002620:	00050413          	mv	s0,a0
    80002624:	00000097          	auipc	ra,0x0
    80002628:	50c080e7          	jalr	1292(ra) # 80002b30 <trap_filter>
    8000262c:	0e051863          	bnez	a0,8000271c <handle_trap+0x134>
    80002630:	11843583          	ld	a1,280(s0)
    80002634:	00800793          	li	a5,8
    80002638:	14f58663          	beq	a1,a5,80002784 <handle_trap+0x19c>
    8000263c:	00200793          	li	a5,2
    80002640:	06f58463          	beq	a1,a5,800026a8 <handle_trap+0xc0>
    80002644:	ff458793          	addi	a5,a1,-12 # ffffffffffdffff4 <_end+0xffffffff7fdf5804>
    80002648:	00100713          	li	a4,1
    8000264c:	00f77663          	bleu	a5,a4,80002658 <handle_trap+0x70>
    80002650:	00f00793          	li	a5,15
    80002654:	20f59063          	bne	a1,a5,80002854 <handle_trap+0x26c>
    80002658:	11043503          	ld	a0,272(s0)
    8000265c:	00000097          	auipc	ra,0x0
    80002660:	ca8080e7          	jalr	-856(ra) # 80002304 <handle_fault>
    80002664:	00040513          	mv	a0,s0
    80002668:	06013403          	ld	s0,96(sp)
    8000266c:	06813083          	ld	ra,104(sp)
    80002670:	05813483          	ld	s1,88(sp)
    80002674:	05013903          	ld	s2,80(sp)
    80002678:	04813983          	ld	s3,72(sp)
    8000267c:	04013a03          	ld	s4,64(sp)
    80002680:	03813a83          	ld	s5,56(sp)
    80002684:	03013b03          	ld	s6,48(sp)
    80002688:	02813b83          	ld	s7,40(sp)
    8000268c:	02013c03          	ld	s8,32(sp)
    80002690:	01813c83          	ld	s9,24(sp)
    80002694:	01013d03          	ld	s10,16(sp)
    80002698:	00813d83          	ld	s11,8(sp)
    8000269c:	07010113          	addi	sp,sp,112
    800026a0:	ffffe317          	auipc	t1,0xffffe
    800026a4:	a2c30067          	jr	-1492(t1) # 800000cc <pop_tf>
    800026a8:	10843703          	ld	a4,264(s0)
    800026ac:	00377793          	andi	a5,a4,3
    800026b0:	08079263          	bnez	a5,80002734 <handle_trap+0x14c>
    800026b4:	008007ef          	jal	a5,800026bc <handle_trap+0xd4>
    800026b8:	00301073          	fssr	zero
    800026bc:	00072703          	lw	a4,0(a4)
    800026c0:	0007a783          	lw	a5,0(a5)
    800026c4:	06f70463          	beq	a4,a5,8000272c <handle_trap+0x144>
    800026c8:	10100513          	li	a0,257
    800026cc:	04100793          	li	a5,65
    800026d0:	00002697          	auipc	a3,0x2
    800026d4:	c7068693          	addi	a3,a3,-912 # 80004340 <pass+0x194>
    800026d8:	fffff717          	auipc	a4,0xfffff
    800026dc:	92870713          	addi	a4,a4,-1752 # 80001000 <tohost>
    800026e0:	03051513          	slli	a0,a0,0x30
    800026e4:	00073583          	ld	a1,0(a4)
    800026e8:	00168693          	addi	a3,a3,1
    800026ec:	00a7e633          	or	a2,a5,a0
    800026f0:	00058a63          	beqz	a1,80002704 <handle_trap+0x11c>
    800026f4:	fffff797          	auipc	a5,0xfffff
    800026f8:	9407b623          	sd	zero,-1716(a5) # 80001040 <fromhost>
    800026fc:	00073783          	ld	a5,0(a4)
    80002700:	fe079ae3          	bnez	a5,800026f4 <handle_trap+0x10c>
    80002704:	0006c783          	lbu	a5,0(a3)
    80002708:	fffff597          	auipc	a1,0xfffff
    8000270c:	8ec5bc23          	sd	a2,-1800(a1) # 80001000 <tohost>
    80002710:	fc079ae3          	bnez	a5,800026e4 <handle_trap+0xfc>
    80002714:	00300513          	li	a0,3
    80002718:	b1dff0ef          	jal	ra,80002234 <terminate>
    8000271c:	00040513          	mv	a0,s0
    80002720:	ffffe097          	auipc	ra,0xffffe
    80002724:	9ac080e7          	jalr	-1620(ra) # 800000cc <pop_tf>
    80002728:	f09ff06f          	j	80002630 <handle_trap+0x48>
    8000272c:	00100513          	li	a0,1
    80002730:	b05ff0ef          	jal	ra,80002234 <terminate>
    80002734:	10100793          	li	a5,257
    80002738:	00002617          	auipc	a2,0x2
    8000273c:	be060613          	addi	a2,a2,-1056 # 80004318 <pass+0x16c>
    80002740:	04100693          	li	a3,65
    80002744:	fffff717          	auipc	a4,0xfffff
    80002748:	8bc70713          	addi	a4,a4,-1860 # 80001000 <tohost>
    8000274c:	03079793          	slli	a5,a5,0x30
    80002750:	00073503          	ld	a0,0(a4)
    80002754:	00160613          	addi	a2,a2,1
    80002758:	00f6e5b3          	or	a1,a3,a5
    8000275c:	00050a63          	beqz	a0,80002770 <handle_trap+0x188>
    80002760:	fffff697          	auipc	a3,0xfffff
    80002764:	8e06b023          	sd	zero,-1824(a3) # 80001040 <fromhost>
    80002768:	00073683          	ld	a3,0(a4)
    8000276c:	fe069ae3          	bnez	a3,80002760 <handle_trap+0x178>
    80002770:	00064683          	lbu	a3,0(a2)
    80002774:	fffff517          	auipc	a0,0xfffff
    80002778:	88b53623          	sd	a1,-1908(a0) # 80001000 <tohost>
    8000277c:	fc069ae3          	bnez	a3,80002750 <handle_trap+0x168>
    80002780:	f95ff06f          	j	80002714 <handle_trap+0x12c>
    80002784:	05042983          	lw	s3,80(s0)
    80002788:	00008d17          	auipc	s10,0x8
    8000278c:	c68d0d13          	addi	s10,s10,-920 # 8000a3f0 <user_mapping>
    80002790:	00001437          	lui	s0,0x1
    80002794:	00004b97          	auipc	s7,0x4
    80002798:	86cb8b93          	addi	s7,s7,-1940 # 80006000 <pt>
    8000279c:	00040b37          	lui	s6,0x40
    800027a0:	ffe00ab7          	lui	s5,0xffe00
    800027a4:	00008a17          	auipc	s4,0x8
    800027a8:	03ca0a13          	addi	s4,s4,60 # 8000a7e0 <freelist_tail>
    800027ac:	0003f937          	lui	s2,0x3f
    800027b0:	01c0006f          	j	800027cc <handle_trap+0x1e4>
    800027b4:	00f73423          	sd	a5,8(a4)
    800027b8:	00008717          	auipc	a4,0x8
    800027bc:	02f73423          	sd	a5,40(a4) # 8000a7e0 <freelist_tail>
    800027c0:	000017b7          	lui	a5,0x1
    800027c4:	00f40433          	add	s0,s0,a5
    800027c8:	15240663          	beq	s0,s2,80002914 <handle_trap+0x32c>
    800027cc:	00c45793          	srli	a5,s0,0xc
    800027d0:	00479493          	slli	s1,a5,0x4
    800027d4:	009d0733          	add	a4,s10,s1
    800027d8:	00073703          	ld	a4,0(a4)
    800027dc:	fe0702e3          	beqz	a4,800027c0 <handle_trap+0x1d8>
    800027e0:	60078793          	addi	a5,a5,1536 # 1600 <_start-0x7fffea00>
    800027e4:	00379793          	slli	a5,a5,0x3
    800027e8:	00fb87b3          	add	a5,s7,a5
    800027ec:	0007bc03          	ld	s8,0(a5)
    800027f0:	040c7793          	andi	a5,s8,64
    800027f4:	0e078463          	beqz	a5,800028dc <handle_trap+0x2f4>
    800027f8:	100b2cf3          	csrrs	s9,sstatus,s6
    800027fc:	01540db3          	add	s11,s0,s5
    80002800:	00001637          	lui	a2,0x1
    80002804:	000d8593          	mv	a1,s11
    80002808:	00040513          	mv	a0,s0
    8000280c:	905ff0ef          	jal	ra,80002110 <memcmp>
    80002810:	00050e63          	beqz	a0,8000282c <handle_trap+0x244>
    80002814:	080c7c13          	andi	s8,s8,128
    80002818:	080c0663          	beqz	s8,800028a4 <handle_trap+0x2bc>
    8000281c:	00001637          	lui	a2,0x1
    80002820:	00040593          	mv	a1,s0
    80002824:	000d8513          	mv	a0,s11
    80002828:	fd8ff0ef          	jal	ra,80002000 <memcpy>
    8000282c:	009d07b3          	add	a5,s10,s1
    80002830:	100c9073          	csrw	sstatus,s9
    80002834:	000a3703          	ld	a4,0(s4)
    80002838:	0007b023          	sd	zero,0(a5)
    8000283c:	f6071ce3          	bnez	a4,800027b4 <handle_trap+0x1cc>
    80002840:	00008717          	auipc	a4,0x8
    80002844:	faf73023          	sd	a5,-96(a4) # 8000a7e0 <freelist_tail>
    80002848:	00008717          	auipc	a4,0x8
    8000284c:	faf73023          	sd	a5,-96(a4) # 8000a7e8 <freelist_head>
    80002850:	f71ff06f          	j	800027c0 <handle_trap+0x1d8>
    80002854:	10100793          	li	a5,257
    80002858:	04100613          	li	a2,65
    8000285c:	00002697          	auipc	a3,0x2
    80002860:	b1468693          	addi	a3,a3,-1260 # 80004370 <pass+0x1c4>
    80002864:	ffffe717          	auipc	a4,0xffffe
    80002868:	79c70713          	addi	a4,a4,1948 # 80001000 <tohost>
    8000286c:	03079793          	slli	a5,a5,0x30
    80002870:	00073503          	ld	a0,0(a4)
    80002874:	00168693          	addi	a3,a3,1
    80002878:	00f665b3          	or	a1,a2,a5
    8000287c:	00050a63          	beqz	a0,80002890 <handle_trap+0x2a8>
    80002880:	ffffe617          	auipc	a2,0xffffe
    80002884:	7c063023          	sd	zero,1984(a2) # 80001040 <fromhost>
    80002888:	00073603          	ld	a2,0(a4)
    8000288c:	fe061ae3          	bnez	a2,80002880 <handle_trap+0x298>
    80002890:	0006c603          	lbu	a2,0(a3)
    80002894:	ffffe517          	auipc	a0,0xffffe
    80002898:	76b53623          	sd	a1,1900(a0) # 80001000 <tohost>
    8000289c:	fc061ae3          	bnez	a2,80002870 <handle_trap+0x288>
    800028a0:	e75ff06f          	j	80002714 <handle_trap+0x12c>
    800028a4:	10100793          	li	a5,257
    800028a8:	04100613          	li	a2,65
    800028ac:	00002697          	auipc	a3,0x2
    800028b0:	a3468693          	addi	a3,a3,-1484 # 800042e0 <pass+0x134>
    800028b4:	ffffe717          	auipc	a4,0xffffe
    800028b8:	74c70713          	addi	a4,a4,1868 # 80001000 <tohost>
    800028bc:	03079793          	slli	a5,a5,0x30
    800028c0:	00168693          	addi	a3,a3,1
    800028c4:	00f665b3          	or	a1,a2,a5
    800028c8:	00073603          	ld	a2,0(a4)
    800028cc:	04060863          	beqz	a2,8000291c <handle_trap+0x334>
    800028d0:	ffffe617          	auipc	a2,0xffffe
    800028d4:	76063823          	sd	zero,1904(a2) # 80001040 <fromhost>
    800028d8:	ff1ff06f          	j	800028c8 <handle_trap+0x2e0>
    800028dc:	10100793          	li	a5,257
    800028e0:	04100613          	li	a2,65
    800028e4:	00002697          	auipc	a3,0x2
    800028e8:	9c468693          	addi	a3,a3,-1596 # 800042a8 <pass+0xfc>
    800028ec:	ffffe717          	auipc	a4,0xffffe
    800028f0:	71470713          	addi	a4,a4,1812 # 80001000 <tohost>
    800028f4:	03079793          	slli	a5,a5,0x30
    800028f8:	00168693          	addi	a3,a3,1
    800028fc:	00f665b3          	or	a1,a2,a5
    80002900:	00073603          	ld	a2,0(a4)
    80002904:	02060663          	beqz	a2,80002930 <handle_trap+0x348>
    80002908:	ffffe617          	auipc	a2,0xffffe
    8000290c:	72063c23          	sd	zero,1848(a2) # 80001040 <fromhost>
    80002910:	ff1ff06f          	j	80002900 <handle_trap+0x318>
    80002914:	00098513          	mv	a0,s3
    80002918:	91dff0ef          	jal	ra,80002234 <terminate>
    8000291c:	0006c603          	lbu	a2,0(a3)
    80002920:	ffffe517          	auipc	a0,0xffffe
    80002924:	6eb53023          	sd	a1,1760(a0) # 80001000 <tohost>
    80002928:	f8061ce3          	bnez	a2,800028c0 <handle_trap+0x2d8>
    8000292c:	de9ff06f          	j	80002714 <handle_trap+0x12c>
    80002930:	0006c603          	lbu	a2,0(a3)
    80002934:	ffffe517          	auipc	a0,0xffffe
    80002938:	6cb53623          	sd	a1,1740(a0) # 80001000 <tohost>
    8000293c:	fa061ee3          	bnez	a2,800028f8 <handle_trap+0x310>
    80002940:	dd5ff06f          	j	80002714 <handle_trap+0x12c>

0000000080002944 <vm_boot>:
    80002944:	f14027f3          	csrr	a5,mhartid
    80002948:	18079863          	bnez	a5,80002ad8 <vm_boot+0x194>
    8000294c:	00004697          	auipc	a3,0x4
    80002950:	6b468693          	addi	a3,a3,1716 # 80007000 <pt+0x1000>
    80002954:	00005717          	auipc	a4,0x5
    80002958:	6ac70713          	addi	a4,a4,1708 # 80008000 <pt+0x2000>
    8000295c:	00c6d693          	srli	a3,a3,0xc
    80002960:	00c75713          	srli	a4,a4,0xc
    80002964:	00006797          	auipc	a5,0x6
    80002968:	69c78793          	addi	a5,a5,1692 # 80009000 <pt+0x3000>
    8000296c:	00a69693          	slli	a3,a3,0xa
    80002970:	00a71713          	slli	a4,a4,0xa
    80002974:	0016e693          	ori	a3,a3,1
    80002978:	00176713          	ori	a4,a4,1
    8000297c:	00c7d793          	srli	a5,a5,0xc
    80002980:	00003617          	auipc	a2,0x3
    80002984:	68d63023          	sd	a3,1664(a2) # 80006000 <pt>
    80002988:	00a79793          	slli	a5,a5,0xa
    8000298c:	00004697          	auipc	a3,0x4
    80002990:	66e6b623          	sd	a4,1644(a3) # 80006ff8 <pt+0xff8>
    80002994:	20000737          	lui	a4,0x20000
    80002998:	ed010113          	addi	sp,sp,-304
    8000299c:	0cf70713          	addi	a4,a4,207 # 200000cf <_start-0x5fffff31>
    800029a0:	0017e793          	ori	a5,a5,1
    800029a4:	00006697          	auipc	a3,0x6
    800029a8:	64e6ba23          	sd	a4,1620(a3) # 80008ff8 <pt+0x2ff8>
    800029ac:	12113423          	sd	ra,296(sp)
    800029b0:	00004717          	auipc	a4,0x4
    800029b4:	64f73823          	sd	a5,1616(a4) # 80007000 <pt+0x1000>
    800029b8:	12813023          	sd	s0,288(sp)
    800029bc:	800007b7          	lui	a5,0x80000
    800029c0:	12078073          	sfence.vma	a5
    800029c4:	fff00793          	li	a5,-1
    800029c8:	01f00713          	li	a4,31
    800029cc:	00b7d793          	srli	a5,a5,0xb
    800029d0:	00000297          	auipc	t0,0x0
    800029d4:	01428293          	addi	t0,t0,20 # 800029e4 <vm_boot+0xa0>
    800029d8:	305292f3          	csrrw	t0,mtvec,t0
    800029dc:	3b079073          	csrw	pmpaddr0,a5
    800029e0:	3a071073          	csrw	pmpcfg0,a4
    800029e4:	30529073          	csrw	mtvec,t0
    800029e8:	bff00813          	li	a6,-1025
    800029ec:	01581813          	slli	a6,a6,0x15
    800029f0:	ffffd797          	auipc	a5,0xffffd
    800029f4:	76478793          	addi	a5,a5,1892 # 80000154 <trap_entry>
    800029f8:	010787b3          	add	a5,a5,a6
    800029fc:	10579073          	csrw	stvec,a5
    80002a00:	340027f3          	csrr	a5,mscratch
    80002a04:	010787b3          	add	a5,a5,a6
    80002a08:	14079073          	csrw	sscratch,a5
    80002a0c:	0000b7b7          	lui	a5,0xb
    80002a10:	1007879b          	addiw	a5,a5,256
    80002a14:	30279073          	csrw	medeleg,a5
    80002a18:	0001e7b7          	lui	a5,0x1e
    80002a1c:	6007879b          	addiw	a5,a5,1536
    80002a20:	30079073          	csrw	mstatus,a5
    80002a24:	30405073          	csrwi	mie,0
    80002a28:	00007717          	auipc	a4,0x7
    80002a2c:	5d870713          	addi	a4,a4,1496 # 8000a000 <freelist_nodes>
    80002a30:	010707b3          	add	a5,a4,a6
    80002a34:	3e078693          	addi	a3,a5,992 # 1e3e0 <_start-0x7ffe1c20>
    80002a38:	00008617          	auipc	a2,0x8
    80002a3c:	daf63823          	sd	a5,-592(a2) # 8000a7e8 <freelist_head>
    80002a40:	000808b7          	lui	a7,0x80
    80002a44:	00008797          	auipc	a5,0x8
    80002a48:	d8d7be23          	sd	a3,-612(a5) # 8000a7e0 <freelist_tail>
    80002a4c:	00008317          	auipc	t1,0x8
    80002a50:	9a430313          	addi	t1,t1,-1628 # 8000a3f0 <user_mapping>
    80002a54:	02400793          	li	a5,36
    80002a58:	03f88893          	addi	a7,a7,63 # 8003f <_start-0x7ff7ffc1>
    80002a5c:	01080813          	addi	a6,a6,16
    80002a60:	0017d613          	srli	a2,a5,0x1
    80002a64:	011786b3          	add	a3,a5,a7
    80002a68:	00f647b3          	xor	a5,a2,a5
    80002a6c:	010705b3          	add	a1,a4,a6
    80002a70:	00c69693          	slli	a3,a3,0xc
    80002a74:	00579793          	slli	a5,a5,0x5
    80002a78:	00d73023          	sd	a3,0(a4)
    80002a7c:	00b73423          	sd	a1,8(a4)
    80002a80:	0207f793          	andi	a5,a5,32
    80002a84:	01070713          	addi	a4,a4,16
    80002a88:	00f667b3          	or	a5,a2,a5
    80002a8c:	fce31ae3          	bne	t1,a4,80002a60 <vm_boot+0x11c>
    80002a90:	00050413          	mv	s0,a0
    80002a94:	12000613          	li	a2,288
    80002a98:	00000593          	li	a1,0
    80002a9c:	00010513          	mv	a0,sp
    80002aa0:	00008797          	auipc	a5,0x8
    80002aa4:	9407b423          	sd	zero,-1720(a5) # 8000a3e8 <freelist_nodes+0x3e8>
    80002aa8:	fffff097          	auipc	ra,0xfffff
    80002aac:	5b4080e7          	jalr	1460(ra) # 8000205c <memset>
    80002ab0:	800007b7          	lui	a5,0x80000
    80002ab4:	00f40433          	add	s0,s0,a5
    80002ab8:	00010513          	mv	a0,sp
    80002abc:	10813423          	sd	s0,264(sp)
    80002ac0:	ffffd097          	auipc	ra,0xffffd
    80002ac4:	60c080e7          	jalr	1548(ra) # 800000cc <pop_tf>
    80002ac8:	12813083          	ld	ra,296(sp)
    80002acc:	12013403          	ld	s0,288(sp)
    80002ad0:	13010113          	addi	sp,sp,304
    80002ad4:	00008067          	ret
    80002ad8:	00100613          	li	a2,1
    80002adc:	002d87b7          	lui	a5,0x2d8
    80002ae0:	000805b7          	lui	a1,0x80
    80002ae4:	01f61513          	slli	a0,a2,0x1f
    80002ae8:	3f078793          	addi	a5,a5,1008 # 2d83f0 <_start-0x7fd27c10>
    80002aec:	ffc58593          	addi	a1,a1,-4 # 7fffc <_start-0x7ff80004>
    80002af0:	03e61613          	slli	a2,a2,0x3e
    80002af4:	01c0006f          	j	80002b10 <vm_boot+0x1cc>
    80002af8:	0007202f          	amoadd.w	zero,zero,(a4)
    80002afc:	0017d713          	srli	a4,a5,0x1
    80002b00:	00e7c7b3          	xor	a5,a5,a4
    80002b04:	03e79793          	slli	a5,a5,0x3e
    80002b08:	00c7f7b3          	and	a5,a5,a2
    80002b0c:	00e7e7b3          	or	a5,a5,a4
    80002b10:	00b7f733          	and	a4,a5,a1
    80002b14:	0017f693          	andi	a3,a5,1
    80002b18:	00a70733          	add	a4,a4,a0
    80002b1c:	fc069ee3          	bnez	a3,80002af8 <vm_boot+0x1b4>
    80002b20:	00072003          	lw	zero,0(a4)
    80002b24:	fd9ff06f          	j	80002afc <vm_boot+0x1b8>
    80002b28:	0000                	unimp
    80002b2a:	0000                	unimp

0000000080002b2c <extra_boot>:
    80002b2c:	00008067          	ret

0000000080002b30 <trap_filter>:
    80002b30:	00000513          	li	a0,0
    80002b34:	00008067          	ret

0000000080002b38 <pf_filter>:
    80002b38:	00000513          	li	a0,0
    80002b3c:	00008067          	ret

0000000080002b40 <userstart>:
    80002b40:	00200193          	li	gp,2
    80002b44:	00002117          	auipc	sp,0x2
    80002b48:	4bc10113          	addi	sp,sp,1212 # 80005000 <begin_signature>
    80002b4c:	fdd00093          	li	ra,-35
    80002b50:	00110023          	sb	ra,0(sp)
    80002b54:	00010703          	lb	a4,0(sp)
    80002b58:	00e10023          	sb	a4,0(sp)
    80002b5c:	00010103          	lb	sp,0(sp)
    80002b60:	fdd00393          	li	t2,-35
    80002b64:	00710463          	beq	sp,t2,80002b6c <userstart+0x2c>
    80002b68:	6340106f          	j	8000419c <fail>
    80002b6c:	00002117          	auipc	sp,0x2
    80002b70:	49410113          	addi	sp,sp,1172 # 80005000 <begin_signature>
    80002b74:	00213423          	sd	sp,8(sp)
    80002b78:	00813203          	ld	tp,8(sp)
    80002b7c:	00120023          	sb	ra,0(tp) # 0 <_start-0x80000000>
    80002b80:	00220463          	beq	tp,sp,80002b88 <userstart+0x48>
    80002b84:	6180106f          	j	8000419c <fail>
    80002b88:	00020703          	lb	a4,0(tp) # 0 <_start-0x80000000>
    80002b8c:	00770463          	beq	a4,t2,80002b94 <test_3>
    80002b90:	60c0106f          	j	8000419c <fail>

0000000080002b94 <test_3>:
    80002b94:	00300193          	li	gp,3
    80002b98:	00002117          	auipc	sp,0x2
    80002b9c:	46810113          	addi	sp,sp,1128 # 80005000 <begin_signature>
    80002ba0:	fcd00093          	li	ra,-51
    80002ba4:	001100a3          	sb	ra,1(sp)
    80002ba8:	00110703          	lb	a4,1(sp)
    80002bac:	00e100a3          	sb	a4,1(sp)
    80002bb0:	00110103          	lb	sp,1(sp)
    80002bb4:	fcd00393          	li	t2,-51
    80002bb8:	00710463          	beq	sp,t2,80002bc0 <test_3+0x2c>
    80002bbc:	5e00106f          	j	8000419c <fail>
    80002bc0:	00002117          	auipc	sp,0x2
    80002bc4:	44010113          	addi	sp,sp,1088 # 80005000 <begin_signature>
    80002bc8:	00213423          	sd	sp,8(sp)
    80002bcc:	00813203          	ld	tp,8(sp)
    80002bd0:	001200a3          	sb	ra,1(tp) # 1 <_start-0x7fffffff>
    80002bd4:	00220463          	beq	tp,sp,80002bdc <test_3+0x48>
    80002bd8:	5c40106f          	j	8000419c <fail>
    80002bdc:	00120703          	lb	a4,1(tp) # 1 <_start-0x7fffffff>
    80002be0:	00770463          	beq	a4,t2,80002be8 <test_4>
    80002be4:	5b80106f          	j	8000419c <fail>

0000000080002be8 <test_4>:
    80002be8:	00400193          	li	gp,4
    80002bec:	00002117          	auipc	sp,0x2
    80002bf0:	41410113          	addi	sp,sp,1044 # 80005000 <begin_signature>
    80002bf4:	fcc00093          	li	ra,-52
    80002bf8:	00110123          	sb	ra,2(sp)
    80002bfc:	00210703          	lb	a4,2(sp)
    80002c00:	00e10123          	sb	a4,2(sp)
    80002c04:	00210103          	lb	sp,2(sp)
    80002c08:	fcc00393          	li	t2,-52
    80002c0c:	00710463          	beq	sp,t2,80002c14 <test_4+0x2c>
    80002c10:	58c0106f          	j	8000419c <fail>
    80002c14:	00002117          	auipc	sp,0x2
    80002c18:	3ec10113          	addi	sp,sp,1004 # 80005000 <begin_signature>
    80002c1c:	00213423          	sd	sp,8(sp)
    80002c20:	00813203          	ld	tp,8(sp)
    80002c24:	00120123          	sb	ra,2(tp) # 2 <_start-0x7ffffffe>
    80002c28:	00220463          	beq	tp,sp,80002c30 <test_4+0x48>
    80002c2c:	5700106f          	j	8000419c <fail>
    80002c30:	00220703          	lb	a4,2(tp) # 2 <_start-0x7ffffffe>
    80002c34:	00770463          	beq	a4,t2,80002c3c <test_5>
    80002c38:	5640106f          	j	8000419c <fail>

0000000080002c3c <test_5>:
    80002c3c:	00500193          	li	gp,5
    80002c40:	00002117          	auipc	sp,0x2
    80002c44:	3c010113          	addi	sp,sp,960 # 80005000 <begin_signature>
    80002c48:	fbc00093          	li	ra,-68
    80002c4c:	001101a3          	sb	ra,3(sp)
    80002c50:	00310703          	lb	a4,3(sp)
    80002c54:	00e101a3          	sb	a4,3(sp)
    80002c58:	00310103          	lb	sp,3(sp)
    80002c5c:	fbc00393          	li	t2,-68
    80002c60:	00710463          	beq	sp,t2,80002c68 <test_5+0x2c>
    80002c64:	5380106f          	j	8000419c <fail>
    80002c68:	00002117          	auipc	sp,0x2
    80002c6c:	39810113          	addi	sp,sp,920 # 80005000 <begin_signature>
    80002c70:	00213423          	sd	sp,8(sp)
    80002c74:	00813203          	ld	tp,8(sp)
    80002c78:	001201a3          	sb	ra,3(tp) # 3 <_start-0x7ffffffd>
    80002c7c:	00220463          	beq	tp,sp,80002c84 <test_5+0x48>
    80002c80:	51c0106f          	j	8000419c <fail>
    80002c84:	00320703          	lb	a4,3(tp) # 3 <_start-0x7ffffffd>
    80002c88:	00770463          	beq	a4,t2,80002c90 <test_6>
    80002c8c:	5100106f          	j	8000419c <fail>

0000000080002c90 <test_6>:
    80002c90:	00600193          	li	gp,6
    80002c94:	00002117          	auipc	sp,0x2
    80002c98:	36c10113          	addi	sp,sp,876 # 80005000 <begin_signature>
    80002c9c:	fbb00093          	li	ra,-69
    80002ca0:	00110223          	sb	ra,4(sp)
    80002ca4:	00410703          	lb	a4,4(sp)
    80002ca8:	00e10223          	sb	a4,4(sp)
    80002cac:	00410103          	lb	sp,4(sp)
    80002cb0:	fbb00393          	li	t2,-69
    80002cb4:	00710463          	beq	sp,t2,80002cbc <test_6+0x2c>
    80002cb8:	4e40106f          	j	8000419c <fail>
    80002cbc:	00002117          	auipc	sp,0x2
    80002cc0:	34410113          	addi	sp,sp,836 # 80005000 <begin_signature>
    80002cc4:	00213423          	sd	sp,8(sp)
    80002cc8:	00813203          	ld	tp,8(sp)
    80002ccc:	00120223          	sb	ra,4(tp) # 4 <_start-0x7ffffffc>
    80002cd0:	00220463          	beq	tp,sp,80002cd8 <test_6+0x48>
    80002cd4:	4c80106f          	j	8000419c <fail>
    80002cd8:	00420703          	lb	a4,4(tp) # 4 <_start-0x7ffffffc>
    80002cdc:	00770463          	beq	a4,t2,80002ce4 <test_7>
    80002ce0:	4bc0106f          	j	8000419c <fail>

0000000080002ce4 <test_7>:
    80002ce4:	00700193          	li	gp,7
    80002ce8:	00002117          	auipc	sp,0x2
    80002cec:	31810113          	addi	sp,sp,792 # 80005000 <begin_signature>
    80002cf0:	fab00093          	li	ra,-85
    80002cf4:	001102a3          	sb	ra,5(sp)
    80002cf8:	00510703          	lb	a4,5(sp)
    80002cfc:	00e102a3          	sb	a4,5(sp)
    80002d00:	00510103          	lb	sp,5(sp)
    80002d04:	fab00393          	li	t2,-85
    80002d08:	00710463          	beq	sp,t2,80002d10 <test_7+0x2c>
    80002d0c:	4900106f          	j	8000419c <fail>
    80002d10:	00002117          	auipc	sp,0x2
    80002d14:	2f010113          	addi	sp,sp,752 # 80005000 <begin_signature>
    80002d18:	00213423          	sd	sp,8(sp)
    80002d1c:	00813203          	ld	tp,8(sp)
    80002d20:	001202a3          	sb	ra,5(tp) # 5 <_start-0x7ffffffb>
    80002d24:	00220463          	beq	tp,sp,80002d2c <test_7+0x48>
    80002d28:	4740106f          	j	8000419c <fail>
    80002d2c:	00520703          	lb	a4,5(tp) # 5 <_start-0x7ffffffb>
    80002d30:	00770463          	beq	a4,t2,80002d38 <test_8>
    80002d34:	4680106f          	j	8000419c <fail>

0000000080002d38 <test_8>:
    80002d38:	00800193          	li	gp,8
    80002d3c:	00002117          	auipc	sp,0x2
    80002d40:	2c410113          	addi	sp,sp,708 # 80005000 <begin_signature>
    80002d44:	03300093          	li	ra,51
    80002d48:	00110023          	sb	ra,0(sp)
    80002d4c:	00010703          	lb	a4,0(sp)
    80002d50:	00e10023          	sb	a4,0(sp)
    80002d54:	00010103          	lb	sp,0(sp)
    80002d58:	03300393          	li	t2,51
    80002d5c:	00710463          	beq	sp,t2,80002d64 <test_8+0x2c>
    80002d60:	43c0106f          	j	8000419c <fail>
    80002d64:	00002117          	auipc	sp,0x2
    80002d68:	29c10113          	addi	sp,sp,668 # 80005000 <begin_signature>
    80002d6c:	00213423          	sd	sp,8(sp)
    80002d70:	00813203          	ld	tp,8(sp)
    80002d74:	00120023          	sb	ra,0(tp) # 0 <_start-0x80000000>
    80002d78:	00220463          	beq	tp,sp,80002d80 <test_8+0x48>
    80002d7c:	4200106f          	j	8000419c <fail>
    80002d80:	00020703          	lb	a4,0(tp) # 0 <_start-0x80000000>
    80002d84:	00770463          	beq	a4,t2,80002d8c <test_9>
    80002d88:	4140106f          	j	8000419c <fail>

0000000080002d8c <test_9>:
    80002d8c:	00900193          	li	gp,9
    80002d90:	00002117          	auipc	sp,0x2
    80002d94:	27010113          	addi	sp,sp,624 # 80005000 <begin_signature>
    80002d98:	02300093          	li	ra,35
    80002d9c:	001100a3          	sb	ra,1(sp)
    80002da0:	00110703          	lb	a4,1(sp)
    80002da4:	00e100a3          	sb	a4,1(sp)
    80002da8:	00110103          	lb	sp,1(sp)
    80002dac:	02300393          	li	t2,35
    80002db0:	00710463          	beq	sp,t2,80002db8 <test_9+0x2c>
    80002db4:	3e80106f          	j	8000419c <fail>
    80002db8:	00002117          	auipc	sp,0x2
    80002dbc:	24810113          	addi	sp,sp,584 # 80005000 <begin_signature>
    80002dc0:	00213423          	sd	sp,8(sp)
    80002dc4:	00813203          	ld	tp,8(sp)
    80002dc8:	001200a3          	sb	ra,1(tp) # 1 <_start-0x7fffffff>
    80002dcc:	00220463          	beq	tp,sp,80002dd4 <test_9+0x48>
    80002dd0:	3cc0106f          	j	8000419c <fail>
    80002dd4:	00120703          	lb	a4,1(tp) # 1 <_start-0x7fffffff>
    80002dd8:	00770463          	beq	a4,t2,80002de0 <test_10>
    80002ddc:	3c00106f          	j	8000419c <fail>

0000000080002de0 <test_10>:
    80002de0:	00a00193          	li	gp,10
    80002de4:	00002117          	auipc	sp,0x2
    80002de8:	21c10113          	addi	sp,sp,540 # 80005000 <begin_signature>
    80002dec:	02200093          	li	ra,34
    80002df0:	00110123          	sb	ra,2(sp)
    80002df4:	00210703          	lb	a4,2(sp)
    80002df8:	00e10123          	sb	a4,2(sp)
    80002dfc:	00210103          	lb	sp,2(sp)
    80002e00:	02200393          	li	t2,34
    80002e04:	00710463          	beq	sp,t2,80002e0c <test_10+0x2c>
    80002e08:	3940106f          	j	8000419c <fail>
    80002e0c:	00002117          	auipc	sp,0x2
    80002e10:	1f410113          	addi	sp,sp,500 # 80005000 <begin_signature>
    80002e14:	00213423          	sd	sp,8(sp)
    80002e18:	00813203          	ld	tp,8(sp)
    80002e1c:	00120123          	sb	ra,2(tp) # 2 <_start-0x7ffffffe>
    80002e20:	00220463          	beq	tp,sp,80002e28 <test_10+0x48>
    80002e24:	3780106f          	j	8000419c <fail>
    80002e28:	00220703          	lb	a4,2(tp) # 2 <_start-0x7ffffffe>
    80002e2c:	00770463          	beq	a4,t2,80002e34 <test_11>
    80002e30:	36c0106f          	j	8000419c <fail>

0000000080002e34 <test_11>:
    80002e34:	00b00193          	li	gp,11
    80002e38:	00002117          	auipc	sp,0x2
    80002e3c:	1c810113          	addi	sp,sp,456 # 80005000 <begin_signature>
    80002e40:	01200093          	li	ra,18
    80002e44:	001101a3          	sb	ra,3(sp)
    80002e48:	00310703          	lb	a4,3(sp)
    80002e4c:	00e101a3          	sb	a4,3(sp)
    80002e50:	00310103          	lb	sp,3(sp)
    80002e54:	01200393          	li	t2,18
    80002e58:	00710463          	beq	sp,t2,80002e60 <test_11+0x2c>
    80002e5c:	3400106f          	j	8000419c <fail>
    80002e60:	00002117          	auipc	sp,0x2
    80002e64:	1a010113          	addi	sp,sp,416 # 80005000 <begin_signature>
    80002e68:	00213423          	sd	sp,8(sp)
    80002e6c:	00813203          	ld	tp,8(sp)
    80002e70:	001201a3          	sb	ra,3(tp) # 3 <_start-0x7ffffffd>
    80002e74:	00220463          	beq	tp,sp,80002e7c <test_11+0x48>
    80002e78:	3240106f          	j	8000419c <fail>
    80002e7c:	00320703          	lb	a4,3(tp) # 3 <_start-0x7ffffffd>
    80002e80:	00770463          	beq	a4,t2,80002e88 <test_12>
    80002e84:	3180106f          	j	8000419c <fail>

0000000080002e88 <test_12>:
    80002e88:	00c00193          	li	gp,12
    80002e8c:	00002117          	auipc	sp,0x2
    80002e90:	17410113          	addi	sp,sp,372 # 80005000 <begin_signature>
    80002e94:	01100093          	li	ra,17
    80002e98:	00110223          	sb	ra,4(sp)
    80002e9c:	00410703          	lb	a4,4(sp)
    80002ea0:	00e10223          	sb	a4,4(sp)
    80002ea4:	00410103          	lb	sp,4(sp)
    80002ea8:	01100393          	li	t2,17
    80002eac:	00710463          	beq	sp,t2,80002eb4 <test_12+0x2c>
    80002eb0:	2ec0106f          	j	8000419c <fail>
    80002eb4:	00002117          	auipc	sp,0x2
    80002eb8:	14c10113          	addi	sp,sp,332 # 80005000 <begin_signature>
    80002ebc:	00213423          	sd	sp,8(sp)
    80002ec0:	00813203          	ld	tp,8(sp)
    80002ec4:	00120223          	sb	ra,4(tp) # 4 <_start-0x7ffffffc>
    80002ec8:	00220463          	beq	tp,sp,80002ed0 <test_12+0x48>
    80002ecc:	2d00106f          	j	8000419c <fail>
    80002ed0:	00420703          	lb	a4,4(tp) # 4 <_start-0x7ffffffc>
    80002ed4:	00770463          	beq	a4,t2,80002edc <test_13>
    80002ed8:	2c40106f          	j	8000419c <fail>

0000000080002edc <test_13>:
    80002edc:	00d00193          	li	gp,13
    80002ee0:	00002117          	auipc	sp,0x2
    80002ee4:	12010113          	addi	sp,sp,288 # 80005000 <begin_signature>
    80002ee8:	00100093          	li	ra,1
    80002eec:	001102a3          	sb	ra,5(sp)
    80002ef0:	00510703          	lb	a4,5(sp)
    80002ef4:	00e102a3          	sb	a4,5(sp)
    80002ef8:	00510103          	lb	sp,5(sp)
    80002efc:	00100393          	li	t2,1
    80002f00:	00710463          	beq	sp,t2,80002f08 <test_13+0x2c>
    80002f04:	2980106f          	j	8000419c <fail>
    80002f08:	00002117          	auipc	sp,0x2
    80002f0c:	0f810113          	addi	sp,sp,248 # 80005000 <begin_signature>
    80002f10:	00213423          	sd	sp,8(sp)
    80002f14:	00813203          	ld	tp,8(sp)
    80002f18:	001202a3          	sb	ra,5(tp) # 5 <_start-0x7ffffffb>
    80002f1c:	00220463          	beq	tp,sp,80002f24 <test_13+0x48>
    80002f20:	27c0106f          	j	8000419c <fail>
    80002f24:	00520703          	lb	a4,5(tp) # 5 <_start-0x7ffffffb>
    80002f28:	00770463          	beq	a4,t2,80002f30 <test_14>
    80002f2c:	2700106f          	j	8000419c <fail>

0000000080002f30 <test_14>:
    80002f30:	00e00193          	li	gp,14
    80002f34:	00002117          	auipc	sp,0x2
    80002f38:	0cc10113          	addi	sp,sp,204 # 80005000 <begin_signature>
    80002f3c:	03300093          	li	ra,51
    80002f40:	00110023          	sb	ra,0(sp)
    80002f44:	00014703          	lbu	a4,0(sp)
    80002f48:	00e10023          	sb	a4,0(sp)
    80002f4c:	00014103          	lbu	sp,0(sp)
    80002f50:	03300393          	li	t2,51
    80002f54:	00710463          	beq	sp,t2,80002f5c <test_14+0x2c>
    80002f58:	2440106f          	j	8000419c <fail>
    80002f5c:	00002117          	auipc	sp,0x2
    80002f60:	0a410113          	addi	sp,sp,164 # 80005000 <begin_signature>
    80002f64:	00213423          	sd	sp,8(sp)
    80002f68:	00813203          	ld	tp,8(sp)
    80002f6c:	00120023          	sb	ra,0(tp) # 0 <_start-0x80000000>
    80002f70:	00220463          	beq	tp,sp,80002f78 <test_14+0x48>
    80002f74:	2280106f          	j	8000419c <fail>
    80002f78:	00024703          	lbu	a4,0(tp) # 0 <_start-0x80000000>
    80002f7c:	00770463          	beq	a4,t2,80002f84 <test_15>
    80002f80:	21c0106f          	j	8000419c <fail>

0000000080002f84 <test_15>:
    80002f84:	00f00193          	li	gp,15
    80002f88:	00002117          	auipc	sp,0x2
    80002f8c:	07810113          	addi	sp,sp,120 # 80005000 <begin_signature>
    80002f90:	02300093          	li	ra,35
    80002f94:	001100a3          	sb	ra,1(sp)
    80002f98:	00114703          	lbu	a4,1(sp)
    80002f9c:	00e100a3          	sb	a4,1(sp)
    80002fa0:	00114103          	lbu	sp,1(sp)
    80002fa4:	02300393          	li	t2,35
    80002fa8:	00710463          	beq	sp,t2,80002fb0 <test_15+0x2c>
    80002fac:	1f00106f          	j	8000419c <fail>
    80002fb0:	00002117          	auipc	sp,0x2
    80002fb4:	05010113          	addi	sp,sp,80 # 80005000 <begin_signature>
    80002fb8:	00213423          	sd	sp,8(sp)
    80002fbc:	00813203          	ld	tp,8(sp)
    80002fc0:	001200a3          	sb	ra,1(tp) # 1 <_start-0x7fffffff>
    80002fc4:	00220463          	beq	tp,sp,80002fcc <test_15+0x48>
    80002fc8:	1d40106f          	j	8000419c <fail>
    80002fcc:	00124703          	lbu	a4,1(tp) # 1 <_start-0x7fffffff>
    80002fd0:	00770463          	beq	a4,t2,80002fd8 <test_16>
    80002fd4:	1c80106f          	j	8000419c <fail>

0000000080002fd8 <test_16>:
    80002fd8:	01000193          	li	gp,16
    80002fdc:	00002117          	auipc	sp,0x2
    80002fe0:	02410113          	addi	sp,sp,36 # 80005000 <begin_signature>
    80002fe4:	02200093          	li	ra,34
    80002fe8:	00110123          	sb	ra,2(sp)
    80002fec:	00214703          	lbu	a4,2(sp)
    80002ff0:	00e10123          	sb	a4,2(sp)
    80002ff4:	00214103          	lbu	sp,2(sp)
    80002ff8:	02200393          	li	t2,34
    80002ffc:	00710463          	beq	sp,t2,80003004 <test_16+0x2c>
    80003000:	19c0106f          	j	8000419c <fail>
    80003004:	00002117          	auipc	sp,0x2
    80003008:	ffc10113          	addi	sp,sp,-4 # 80005000 <begin_signature>
    8000300c:	00213423          	sd	sp,8(sp)
    80003010:	00813203          	ld	tp,8(sp)
    80003014:	00120123          	sb	ra,2(tp) # 2 <_start-0x7ffffffe>
    80003018:	00220463          	beq	tp,sp,80003020 <test_16+0x48>
    8000301c:	1800106f          	j	8000419c <fail>
    80003020:	00224703          	lbu	a4,2(tp) # 2 <_start-0x7ffffffe>
    80003024:	00770463          	beq	a4,t2,8000302c <test_17>
    80003028:	1740106f          	j	8000419c <fail>

000000008000302c <test_17>:
    8000302c:	01100193          	li	gp,17
    80003030:	00002117          	auipc	sp,0x2
    80003034:	fd010113          	addi	sp,sp,-48 # 80005000 <begin_signature>
    80003038:	01200093          	li	ra,18
    8000303c:	001101a3          	sb	ra,3(sp)
    80003040:	00314703          	lbu	a4,3(sp)
    80003044:	00e101a3          	sb	a4,3(sp)
    80003048:	00314103          	lbu	sp,3(sp)
    8000304c:	01200393          	li	t2,18
    80003050:	00710463          	beq	sp,t2,80003058 <test_17+0x2c>
    80003054:	1480106f          	j	8000419c <fail>
    80003058:	00002117          	auipc	sp,0x2
    8000305c:	fa810113          	addi	sp,sp,-88 # 80005000 <begin_signature>
    80003060:	00213423          	sd	sp,8(sp)
    80003064:	00813203          	ld	tp,8(sp)
    80003068:	001201a3          	sb	ra,3(tp) # 3 <_start-0x7ffffffd>
    8000306c:	00220463          	beq	tp,sp,80003074 <test_17+0x48>
    80003070:	12c0106f          	j	8000419c <fail>
    80003074:	00324703          	lbu	a4,3(tp) # 3 <_start-0x7ffffffd>
    80003078:	00770463          	beq	a4,t2,80003080 <test_18>
    8000307c:	1200106f          	j	8000419c <fail>

0000000080003080 <test_18>:
    80003080:	01200193          	li	gp,18
    80003084:	00002117          	auipc	sp,0x2
    80003088:	f7c10113          	addi	sp,sp,-132 # 80005000 <begin_signature>
    8000308c:	01100093          	li	ra,17
    80003090:	00110223          	sb	ra,4(sp)
    80003094:	00414703          	lbu	a4,4(sp)
    80003098:	00e10223          	sb	a4,4(sp)
    8000309c:	00414103          	lbu	sp,4(sp)
    800030a0:	01100393          	li	t2,17
    800030a4:	00710463          	beq	sp,t2,800030ac <test_18+0x2c>
    800030a8:	0f40106f          	j	8000419c <fail>
    800030ac:	00002117          	auipc	sp,0x2
    800030b0:	f5410113          	addi	sp,sp,-172 # 80005000 <begin_signature>
    800030b4:	00213423          	sd	sp,8(sp)
    800030b8:	00813203          	ld	tp,8(sp)
    800030bc:	00120223          	sb	ra,4(tp) # 4 <_start-0x7ffffffc>
    800030c0:	00220463          	beq	tp,sp,800030c8 <test_18+0x48>
    800030c4:	0d80106f          	j	8000419c <fail>
    800030c8:	00424703          	lbu	a4,4(tp) # 4 <_start-0x7ffffffc>
    800030cc:	00770463          	beq	a4,t2,800030d4 <test_19>
    800030d0:	0cc0106f          	j	8000419c <fail>

00000000800030d4 <test_19>:
    800030d4:	01300193          	li	gp,19
    800030d8:	00002117          	auipc	sp,0x2
    800030dc:	f2810113          	addi	sp,sp,-216 # 80005000 <begin_signature>
    800030e0:	00100093          	li	ra,1
    800030e4:	001102a3          	sb	ra,5(sp)
    800030e8:	00514703          	lbu	a4,5(sp)
    800030ec:	00e102a3          	sb	a4,5(sp)
    800030f0:	00514103          	lbu	sp,5(sp)
    800030f4:	00100393          	li	t2,1
    800030f8:	00710463          	beq	sp,t2,80003100 <test_19+0x2c>
    800030fc:	0a00106f          	j	8000419c <fail>
    80003100:	00002117          	auipc	sp,0x2
    80003104:	f0010113          	addi	sp,sp,-256 # 80005000 <begin_signature>
    80003108:	00213423          	sd	sp,8(sp)
    8000310c:	00813203          	ld	tp,8(sp)
    80003110:	001202a3          	sb	ra,5(tp) # 5 <_start-0x7ffffffb>
    80003114:	00220463          	beq	tp,sp,8000311c <test_19+0x48>
    80003118:	0840106f          	j	8000419c <fail>
    8000311c:	00524703          	lbu	a4,5(tp) # 5 <_start-0x7ffffffb>
    80003120:	00770463          	beq	a4,t2,80003128 <test_20>
    80003124:	0780106f          	j	8000419c <fail>

0000000080003128 <test_20>:
    80003128:	01400193          	li	gp,20
    8000312c:	00002117          	auipc	sp,0x2
    80003130:	ed410113          	addi	sp,sp,-300 # 80005000 <begin_signature>
    80003134:	aabbd0b7          	lui	ra,0xaabbd
    80003138:	cdd0809b          	addiw	ra,ra,-803
    8000313c:	00112023          	sw	ra,0(sp)
    80003140:	00012703          	lw	a4,0(sp)
    80003144:	00e12023          	sw	a4,0(sp)
    80003148:	00012103          	lw	sp,0(sp)
    8000314c:	aabbd3b7          	lui	t2,0xaabbd
    80003150:	cdd3839b          	addiw	t2,t2,-803
    80003154:	00710463          	beq	sp,t2,8000315c <test_20+0x34>
    80003158:	0440106f          	j	8000419c <fail>
    8000315c:	00002117          	auipc	sp,0x2
    80003160:	ea410113          	addi	sp,sp,-348 # 80005000 <begin_signature>
    80003164:	00213423          	sd	sp,8(sp)
    80003168:	00813203          	ld	tp,8(sp)
    8000316c:	00122023          	sw	ra,0(tp) # 0 <_start-0x80000000>
    80003170:	00220463          	beq	tp,sp,80003178 <test_20+0x50>
    80003174:	0280106f          	j	8000419c <fail>
    80003178:	00022703          	lw	a4,0(tp) # 0 <_start-0x80000000>
    8000317c:	00770463          	beq	a4,t2,80003184 <test_21>
    80003180:	01c0106f          	j	8000419c <fail>

0000000080003184 <test_21>:
    80003184:	01500193          	li	gp,21
    80003188:	00002117          	auipc	sp,0x2
    8000318c:	e7810113          	addi	sp,sp,-392 # 80005000 <begin_signature>
    80003190:	daabc0b7          	lui	ra,0xdaabc
    80003194:	ccd0809b          	addiw	ra,ra,-819
    80003198:	00112223          	sw	ra,4(sp)
    8000319c:	00412703          	lw	a4,4(sp)
    800031a0:	00e12223          	sw	a4,4(sp)
    800031a4:	00412103          	lw	sp,4(sp)
    800031a8:	daabc3b7          	lui	t2,0xdaabc
    800031ac:	ccd3839b          	addiw	t2,t2,-819
    800031b0:	7e7116e3          	bne	sp,t2,8000419c <fail>
    800031b4:	00002117          	auipc	sp,0x2
    800031b8:	e4c10113          	addi	sp,sp,-436 # 80005000 <begin_signature>
    800031bc:	00213423          	sd	sp,8(sp)
    800031c0:	00813203          	ld	tp,8(sp)
    800031c4:	00122223          	sw	ra,4(tp) # 4 <_start-0x7ffffffc>
    800031c8:	7c221ae3          	bne	tp,sp,8000419c <fail>
    800031cc:	00422703          	lw	a4,4(tp) # 4 <_start-0x7ffffffc>
    800031d0:	7c7716e3          	bne	a4,t2,8000419c <fail>

00000000800031d4 <test_22>:
    800031d4:	01600193          	li	gp,22
    800031d8:	00002117          	auipc	sp,0x2
    800031dc:	e2810113          	addi	sp,sp,-472 # 80005000 <begin_signature>
    800031e0:	ddaac0b7          	lui	ra,0xddaac
    800031e4:	bcc0809b          	addiw	ra,ra,-1076
    800031e8:	00112423          	sw	ra,8(sp)
    800031ec:	00812703          	lw	a4,8(sp)
    800031f0:	00e12423          	sw	a4,8(sp)
    800031f4:	00812103          	lw	sp,8(sp)
    800031f8:	ddaac3b7          	lui	t2,0xddaac
    800031fc:	bcc3839b          	addiw	t2,t2,-1076
    80003200:	78711ee3          	bne	sp,t2,8000419c <fail>
    80003204:	00002117          	auipc	sp,0x2
    80003208:	dfc10113          	addi	sp,sp,-516 # 80005000 <begin_signature>
    8000320c:	00213423          	sd	sp,8(sp)
    80003210:	00813203          	ld	tp,8(sp)
    80003214:	00122423          	sw	ra,8(tp) # 8 <_start-0x7ffffff8>
    80003218:	782212e3          	bne	tp,sp,8000419c <fail>
    8000321c:	00822703          	lw	a4,8(tp) # 8 <_start-0x7ffffff8>
    80003220:	76771ee3          	bne	a4,t2,8000419c <fail>

0000000080003224 <test_23>:
    80003224:	01700193          	li	gp,23
    80003228:	00002117          	auipc	sp,0x2
    8000322c:	dd810113          	addi	sp,sp,-552 # 80005000 <begin_signature>
    80003230:	cddab0b7          	lui	ra,0xcddab
    80003234:	bbc0809b          	addiw	ra,ra,-1092
    80003238:	00112623          	sw	ra,12(sp)
    8000323c:	00c12703          	lw	a4,12(sp)
    80003240:	00e12623          	sw	a4,12(sp)
    80003244:	00c12103          	lw	sp,12(sp)
    80003248:	cddab3b7          	lui	t2,0xcddab
    8000324c:	bbc3839b          	addiw	t2,t2,-1092
    80003250:	747116e3          	bne	sp,t2,8000419c <fail>
    80003254:	00002117          	auipc	sp,0x2
    80003258:	dac10113          	addi	sp,sp,-596 # 80005000 <begin_signature>
    8000325c:	00213423          	sd	sp,8(sp)
    80003260:	00813203          	ld	tp,8(sp)
    80003264:	00122623          	sw	ra,12(tp) # c <_start-0x7ffffff4>
    80003268:	72221ae3          	bne	tp,sp,8000419c <fail>
    8000326c:	00c22703          	lw	a4,12(tp) # c <_start-0x7ffffff4>
    80003270:	727716e3          	bne	a4,t2,8000419c <fail>

0000000080003274 <test_24>:
    80003274:	01800193          	li	gp,24
    80003278:	00002117          	auipc	sp,0x2
    8000327c:	d8810113          	addi	sp,sp,-632 # 80005000 <begin_signature>
    80003280:	ccddb0b7          	lui	ra,0xccddb
    80003284:	abb0809b          	addiw	ra,ra,-1349
    80003288:	00112823          	sw	ra,16(sp)
    8000328c:	01012703          	lw	a4,16(sp)
    80003290:	00e12823          	sw	a4,16(sp)
    80003294:	01012103          	lw	sp,16(sp)
    80003298:	ccddb3b7          	lui	t2,0xccddb
    8000329c:	abb3839b          	addiw	t2,t2,-1349
    800032a0:	6e711ee3          	bne	sp,t2,8000419c <fail>
    800032a4:	00002117          	auipc	sp,0x2
    800032a8:	d5c10113          	addi	sp,sp,-676 # 80005000 <begin_signature>
    800032ac:	00213423          	sd	sp,8(sp)
    800032b0:	00813203          	ld	tp,8(sp)
    800032b4:	00122823          	sw	ra,16(tp) # 10 <_start-0x7ffffff0>
    800032b8:	6e2212e3          	bne	tp,sp,8000419c <fail>
    800032bc:	01022703          	lw	a4,16(tp) # 10 <_start-0x7ffffff0>
    800032c0:	6c771ee3          	bne	a4,t2,8000419c <fail>

00000000800032c4 <test_25>:
    800032c4:	01900193          	li	gp,25
    800032c8:	00002117          	auipc	sp,0x2
    800032cc:	d3810113          	addi	sp,sp,-712 # 80005000 <begin_signature>
    800032d0:	bccde0b7          	lui	ra,0xbccde
    800032d4:	aab0809b          	addiw	ra,ra,-1365
    800032d8:	00112a23          	sw	ra,20(sp)
    800032dc:	01412703          	lw	a4,20(sp)
    800032e0:	00e12a23          	sw	a4,20(sp)
    800032e4:	01412103          	lw	sp,20(sp)
    800032e8:	bccde3b7          	lui	t2,0xbccde
    800032ec:	aab3839b          	addiw	t2,t2,-1365
    800032f0:	6a7116e3          	bne	sp,t2,8000419c <fail>
    800032f4:	00002117          	auipc	sp,0x2
    800032f8:	d0c10113          	addi	sp,sp,-756 # 80005000 <begin_signature>
    800032fc:	00213423          	sd	sp,8(sp)
    80003300:	00813203          	ld	tp,8(sp)
    80003304:	00122a23          	sw	ra,20(tp) # 14 <_start-0x7fffffec>
    80003308:	68221ae3          	bne	tp,sp,8000419c <fail>
    8000330c:	01422703          	lw	a4,20(tp) # 14 <_start-0x7fffffec>
    80003310:	687716e3          	bne	a4,t2,8000419c <fail>

0000000080003314 <test_26>:
    80003314:	01a00193          	li	gp,26
    80003318:	00002117          	auipc	sp,0x2
    8000331c:	ce810113          	addi	sp,sp,-792 # 80005000 <begin_signature>
    80003320:	001120b7          	lui	ra,0x112
    80003324:	2330809b          	addiw	ra,ra,563
    80003328:	00112023          	sw	ra,0(sp)
    8000332c:	00012703          	lw	a4,0(sp)
    80003330:	00e12023          	sw	a4,0(sp)
    80003334:	00012103          	lw	sp,0(sp)
    80003338:	001123b7          	lui	t2,0x112
    8000333c:	2333839b          	addiw	t2,t2,563
    80003340:	64711ee3          	bne	sp,t2,8000419c <fail>
    80003344:	00002117          	auipc	sp,0x2
    80003348:	cbc10113          	addi	sp,sp,-836 # 80005000 <begin_signature>
    8000334c:	00213423          	sd	sp,8(sp)
    80003350:	00813203          	ld	tp,8(sp)
    80003354:	00122023          	sw	ra,0(tp) # 0 <_start-0x80000000>
    80003358:	642212e3          	bne	tp,sp,8000419c <fail>
    8000335c:	00022703          	lw	a4,0(tp) # 0 <_start-0x80000000>
    80003360:	62771ee3          	bne	a4,t2,8000419c <fail>

0000000080003364 <test_27>:
    80003364:	01b00193          	li	gp,27
    80003368:	00002117          	auipc	sp,0x2
    8000336c:	c9810113          	addi	sp,sp,-872 # 80005000 <begin_signature>
    80003370:	300110b7          	lui	ra,0x30011
    80003374:	2230809b          	addiw	ra,ra,547
    80003378:	00112223          	sw	ra,4(sp)
    8000337c:	00412703          	lw	a4,4(sp)
    80003380:	00e12223          	sw	a4,4(sp)
    80003384:	00412103          	lw	sp,4(sp)
    80003388:	300113b7          	lui	t2,0x30011
    8000338c:	2233839b          	addiw	t2,t2,547
    80003390:	607116e3          	bne	sp,t2,8000419c <fail>
    80003394:	00002117          	auipc	sp,0x2
    80003398:	c6c10113          	addi	sp,sp,-916 # 80005000 <begin_signature>
    8000339c:	00213423          	sd	sp,8(sp)
    800033a0:	00813203          	ld	tp,8(sp)
    800033a4:	00122223          	sw	ra,4(tp) # 4 <_start-0x7ffffffc>
    800033a8:	5e221ae3          	bne	tp,sp,8000419c <fail>
    800033ac:	00422703          	lw	a4,4(tp) # 4 <_start-0x7ffffffc>
    800033b0:	5e7716e3          	bne	a4,t2,8000419c <fail>

00000000800033b4 <test_28>:
    800033b4:	01c00193          	li	gp,28
    800033b8:	00002117          	auipc	sp,0x2
    800033bc:	c4810113          	addi	sp,sp,-952 # 80005000 <begin_signature>
    800033c0:	330010b7          	lui	ra,0x33001
    800033c4:	1220809b          	addiw	ra,ra,290
    800033c8:	00112423          	sw	ra,8(sp)
    800033cc:	00812703          	lw	a4,8(sp)
    800033d0:	00e12423          	sw	a4,8(sp)
    800033d4:	00812103          	lw	sp,8(sp)
    800033d8:	330013b7          	lui	t2,0x33001
    800033dc:	1223839b          	addiw	t2,t2,290
    800033e0:	5a711ee3          	bne	sp,t2,8000419c <fail>
    800033e4:	00002117          	auipc	sp,0x2
    800033e8:	c1c10113          	addi	sp,sp,-996 # 80005000 <begin_signature>
    800033ec:	00213423          	sd	sp,8(sp)
    800033f0:	00813203          	ld	tp,8(sp)
    800033f4:	00122423          	sw	ra,8(tp) # 8 <_start-0x7ffffff8>
    800033f8:	5a2212e3          	bne	tp,sp,8000419c <fail>
    800033fc:	00822703          	lw	a4,8(tp) # 8 <_start-0x7ffffff8>
    80003400:	58771ee3          	bne	a4,t2,8000419c <fail>

0000000080003404 <test_29>:
    80003404:	01d00193          	li	gp,29
    80003408:	00002117          	auipc	sp,0x2
    8000340c:	bf810113          	addi	sp,sp,-1032 # 80005000 <begin_signature>
    80003410:	233000b7          	lui	ra,0x23300
    80003414:	1120809b          	addiw	ra,ra,274
    80003418:	00112623          	sw	ra,12(sp)
    8000341c:	00c12703          	lw	a4,12(sp)
    80003420:	00e12623          	sw	a4,12(sp)
    80003424:	00c12103          	lw	sp,12(sp)
    80003428:	233003b7          	lui	t2,0x23300
    8000342c:	1123839b          	addiw	t2,t2,274
    80003430:	567116e3          	bne	sp,t2,8000419c <fail>
    80003434:	00002117          	auipc	sp,0x2
    80003438:	bcc10113          	addi	sp,sp,-1076 # 80005000 <begin_signature>
    8000343c:	00213423          	sd	sp,8(sp)
    80003440:	00813203          	ld	tp,8(sp)
    80003444:	00122623          	sw	ra,12(tp) # c <_start-0x7ffffff4>
    80003448:	54221ae3          	bne	tp,sp,8000419c <fail>
    8000344c:	00c22703          	lw	a4,12(tp) # c <_start-0x7ffffff4>
    80003450:	547716e3          	bne	a4,t2,8000419c <fail>

0000000080003454 <test_30>:
    80003454:	01e00193          	li	gp,30
    80003458:	00002117          	auipc	sp,0x2
    8000345c:	ba810113          	addi	sp,sp,-1112 # 80005000 <begin_signature>
    80003460:	223300b7          	lui	ra,0x22330
    80003464:	0110809b          	addiw	ra,ra,17
    80003468:	00112823          	sw	ra,16(sp)
    8000346c:	01012703          	lw	a4,16(sp)
    80003470:	00e12823          	sw	a4,16(sp)
    80003474:	01012103          	lw	sp,16(sp)
    80003478:	223303b7          	lui	t2,0x22330
    8000347c:	0113839b          	addiw	t2,t2,17
    80003480:	50711ee3          	bne	sp,t2,8000419c <fail>
    80003484:	00002117          	auipc	sp,0x2
    80003488:	b7c10113          	addi	sp,sp,-1156 # 80005000 <begin_signature>
    8000348c:	00213423          	sd	sp,8(sp)
    80003490:	00813203          	ld	tp,8(sp)
    80003494:	00122823          	sw	ra,16(tp) # 10 <_start-0x7ffffff0>
    80003498:	502212e3          	bne	tp,sp,8000419c <fail>
    8000349c:	01022703          	lw	a4,16(tp) # 10 <_start-0x7ffffff0>
    800034a0:	4e771ee3          	bne	a4,t2,8000419c <fail>

00000000800034a4 <test_31>:
    800034a4:	01f00193          	li	gp,31
    800034a8:	00002117          	auipc	sp,0x2
    800034ac:	b5810113          	addi	sp,sp,-1192 # 80005000 <begin_signature>
    800034b0:	122330b7          	lui	ra,0x12233
    800034b4:	0010809b          	addiw	ra,ra,1
    800034b8:	00112a23          	sw	ra,20(sp)
    800034bc:	01412703          	lw	a4,20(sp)
    800034c0:	00e12a23          	sw	a4,20(sp)
    800034c4:	01412103          	lw	sp,20(sp)
    800034c8:	122333b7          	lui	t2,0x12233
    800034cc:	0013839b          	addiw	t2,t2,1
    800034d0:	4c7116e3          	bne	sp,t2,8000419c <fail>
    800034d4:	00002117          	auipc	sp,0x2
    800034d8:	b2c10113          	addi	sp,sp,-1236 # 80005000 <begin_signature>
    800034dc:	00213423          	sd	sp,8(sp)
    800034e0:	00813203          	ld	tp,8(sp)
    800034e4:	00122a23          	sw	ra,20(tp) # 14 <_start-0x7fffffec>
    800034e8:	4a221ae3          	bne	tp,sp,8000419c <fail>
    800034ec:	01422703          	lw	a4,20(tp) # 14 <_start-0x7fffffec>
    800034f0:	4a7716e3          	bne	a4,t2,8000419c <fail>

00000000800034f4 <test_32>:
    800034f4:	02000193          	li	gp,32
    800034f8:	00002117          	auipc	sp,0x2
    800034fc:	b0810113          	addi	sp,sp,-1272 # 80005000 <begin_signature>
    80003500:	ffffd0b7          	lui	ra,0xffffd
    80003504:	cdd0809b          	addiw	ra,ra,-803
    80003508:	00111023          	sh	ra,0(sp)
    8000350c:	00011703          	lh	a4,0(sp)
    80003510:	00e11023          	sh	a4,0(sp)
    80003514:	00011103          	lh	sp,0(sp)
    80003518:	ffffd3b7          	lui	t2,0xffffd
    8000351c:	cdd3839b          	addiw	t2,t2,-803
    80003520:	46711ee3          	bne	sp,t2,8000419c <fail>
    80003524:	00002117          	auipc	sp,0x2
    80003528:	adc10113          	addi	sp,sp,-1316 # 80005000 <begin_signature>
    8000352c:	00213423          	sd	sp,8(sp)
    80003530:	00813203          	ld	tp,8(sp)
    80003534:	00121023          	sh	ra,0(tp) # 0 <_start-0x80000000>
    80003538:	462212e3          	bne	tp,sp,8000419c <fail>
    8000353c:	00021703          	lh	a4,0(tp) # 0 <_start-0x80000000>
    80003540:	44771ee3          	bne	a4,t2,8000419c <fail>

0000000080003544 <test_33>:
    80003544:	02100193          	li	gp,33
    80003548:	00002117          	auipc	sp,0x2
    8000354c:	ab810113          	addi	sp,sp,-1352 # 80005000 <begin_signature>
    80003550:	ffffc0b7          	lui	ra,0xffffc
    80003554:	ccd0809b          	addiw	ra,ra,-819
    80003558:	00111123          	sh	ra,2(sp)
    8000355c:	00211703          	lh	a4,2(sp)
    80003560:	00e11123          	sh	a4,2(sp)
    80003564:	00211103          	lh	sp,2(sp)
    80003568:	ffffc3b7          	lui	t2,0xffffc
    8000356c:	ccd3839b          	addiw	t2,t2,-819
    80003570:	427116e3          	bne	sp,t2,8000419c <fail>
    80003574:	00002117          	auipc	sp,0x2
    80003578:	a8c10113          	addi	sp,sp,-1396 # 80005000 <begin_signature>
    8000357c:	00213423          	sd	sp,8(sp)
    80003580:	00813203          	ld	tp,8(sp)
    80003584:	00121123          	sh	ra,2(tp) # 2 <_start-0x7ffffffe>
    80003588:	40221ae3          	bne	tp,sp,8000419c <fail>
    8000358c:	00221703          	lh	a4,2(tp) # 2 <_start-0x7ffffffe>
    80003590:	407716e3          	bne	a4,t2,8000419c <fail>

0000000080003594 <test_34>:
    80003594:	02200193          	li	gp,34
    80003598:	00002117          	auipc	sp,0x2
    8000359c:	a6810113          	addi	sp,sp,-1432 # 80005000 <begin_signature>
    800035a0:	ffffc0b7          	lui	ra,0xffffc
    800035a4:	bcc0809b          	addiw	ra,ra,-1076
    800035a8:	00111223          	sh	ra,4(sp)
    800035ac:	00411703          	lh	a4,4(sp)
    800035b0:	00e11223          	sh	a4,4(sp)
    800035b4:	00411103          	lh	sp,4(sp)
    800035b8:	ffffc3b7          	lui	t2,0xffffc
    800035bc:	bcc3839b          	addiw	t2,t2,-1076
    800035c0:	3c711ee3          	bne	sp,t2,8000419c <fail>
    800035c4:	00002117          	auipc	sp,0x2
    800035c8:	a3c10113          	addi	sp,sp,-1476 # 80005000 <begin_signature>
    800035cc:	00213423          	sd	sp,8(sp)
    800035d0:	00813203          	ld	tp,8(sp)
    800035d4:	00121223          	sh	ra,4(tp) # 4 <_start-0x7ffffffc>
    800035d8:	3c2212e3          	bne	tp,sp,8000419c <fail>
    800035dc:	00421703          	lh	a4,4(tp) # 4 <_start-0x7ffffffc>
    800035e0:	3a771ee3          	bne	a4,t2,8000419c <fail>

00000000800035e4 <test_35>:
    800035e4:	02300193          	li	gp,35
    800035e8:	00002117          	auipc	sp,0x2
    800035ec:	a1810113          	addi	sp,sp,-1512 # 80005000 <begin_signature>
    800035f0:	ffffb0b7          	lui	ra,0xffffb
    800035f4:	bbc0809b          	addiw	ra,ra,-1092
    800035f8:	00111323          	sh	ra,6(sp)
    800035fc:	00611703          	lh	a4,6(sp)
    80003600:	00e11323          	sh	a4,6(sp)
    80003604:	00611103          	lh	sp,6(sp)
    80003608:	ffffb3b7          	lui	t2,0xffffb
    8000360c:	bbc3839b          	addiw	t2,t2,-1092
    80003610:	387116e3          	bne	sp,t2,8000419c <fail>
    80003614:	00002117          	auipc	sp,0x2
    80003618:	9ec10113          	addi	sp,sp,-1556 # 80005000 <begin_signature>
    8000361c:	00213423          	sd	sp,8(sp)
    80003620:	00813203          	ld	tp,8(sp)
    80003624:	00121323          	sh	ra,6(tp) # 6 <_start-0x7ffffffa>
    80003628:	36221ae3          	bne	tp,sp,8000419c <fail>
    8000362c:	00621703          	lh	a4,6(tp) # 6 <_start-0x7ffffffa>
    80003630:	367716e3          	bne	a4,t2,8000419c <fail>

0000000080003634 <test_36>:
    80003634:	02400193          	li	gp,36
    80003638:	00002117          	auipc	sp,0x2
    8000363c:	9c810113          	addi	sp,sp,-1592 # 80005000 <begin_signature>
    80003640:	ffffb0b7          	lui	ra,0xffffb
    80003644:	abb0809b          	addiw	ra,ra,-1349
    80003648:	00111423          	sh	ra,8(sp)
    8000364c:	00811703          	lh	a4,8(sp)
    80003650:	00e11423          	sh	a4,8(sp)
    80003654:	00811103          	lh	sp,8(sp)
    80003658:	ffffb3b7          	lui	t2,0xffffb
    8000365c:	abb3839b          	addiw	t2,t2,-1349
    80003660:	32711ee3          	bne	sp,t2,8000419c <fail>
    80003664:	00002117          	auipc	sp,0x2
    80003668:	99c10113          	addi	sp,sp,-1636 # 80005000 <begin_signature>
    8000366c:	00213423          	sd	sp,8(sp)
    80003670:	00813203          	ld	tp,8(sp)
    80003674:	00121423          	sh	ra,8(tp) # 8 <_start-0x7ffffff8>
    80003678:	322212e3          	bne	tp,sp,8000419c <fail>
    8000367c:	00821703          	lh	a4,8(tp) # 8 <_start-0x7ffffff8>
    80003680:	30771ee3          	bne	a4,t2,8000419c <fail>

0000000080003684 <test_37>:
    80003684:	02500193          	li	gp,37
    80003688:	00002117          	auipc	sp,0x2
    8000368c:	97810113          	addi	sp,sp,-1672 # 80005000 <begin_signature>
    80003690:	ffffe0b7          	lui	ra,0xffffe
    80003694:	aab0809b          	addiw	ra,ra,-1365
    80003698:	00111523          	sh	ra,10(sp)
    8000369c:	00a11703          	lh	a4,10(sp)
    800036a0:	00e11523          	sh	a4,10(sp)
    800036a4:	00a11103          	lh	sp,10(sp)
    800036a8:	ffffe3b7          	lui	t2,0xffffe
    800036ac:	aab3839b          	addiw	t2,t2,-1365
    800036b0:	2e7116e3          	bne	sp,t2,8000419c <fail>
    800036b4:	00002117          	auipc	sp,0x2
    800036b8:	94c10113          	addi	sp,sp,-1716 # 80005000 <begin_signature>
    800036bc:	00213423          	sd	sp,8(sp)
    800036c0:	00813203          	ld	tp,8(sp)
    800036c4:	00121523          	sh	ra,10(tp) # a <_start-0x7ffffff6>
    800036c8:	2c221ae3          	bne	tp,sp,8000419c <fail>
    800036cc:	00a21703          	lh	a4,10(tp) # a <_start-0x7ffffff6>
    800036d0:	2c7716e3          	bne	a4,t2,8000419c <fail>

00000000800036d4 <test_38>:
    800036d4:	02600193          	li	gp,38
    800036d8:	00002117          	auipc	sp,0x2
    800036dc:	92810113          	addi	sp,sp,-1752 # 80005000 <begin_signature>
    800036e0:	000020b7          	lui	ra,0x2
    800036e4:	2330809b          	addiw	ra,ra,563
    800036e8:	00111023          	sh	ra,0(sp)
    800036ec:	00011703          	lh	a4,0(sp)
    800036f0:	00e11023          	sh	a4,0(sp)
    800036f4:	00011103          	lh	sp,0(sp)
    800036f8:	000023b7          	lui	t2,0x2
    800036fc:	2333839b          	addiw	t2,t2,563
    80003700:	28711ee3          	bne	sp,t2,8000419c <fail>
    80003704:	00002117          	auipc	sp,0x2
    80003708:	8fc10113          	addi	sp,sp,-1796 # 80005000 <begin_signature>
    8000370c:	00213423          	sd	sp,8(sp)
    80003710:	00813203          	ld	tp,8(sp)
    80003714:	00121023          	sh	ra,0(tp) # 0 <_start-0x80000000>
    80003718:	282212e3          	bne	tp,sp,8000419c <fail>
    8000371c:	00021703          	lh	a4,0(tp) # 0 <_start-0x80000000>
    80003720:	26771ee3          	bne	a4,t2,8000419c <fail>

0000000080003724 <test_39>:
    80003724:	02700193          	li	gp,39
    80003728:	00002117          	auipc	sp,0x2
    8000372c:	8d810113          	addi	sp,sp,-1832 # 80005000 <begin_signature>
    80003730:	000010b7          	lui	ra,0x1
    80003734:	2230809b          	addiw	ra,ra,547
    80003738:	00111123          	sh	ra,2(sp)
    8000373c:	00211703          	lh	a4,2(sp)
    80003740:	00e11123          	sh	a4,2(sp)
    80003744:	00211103          	lh	sp,2(sp)
    80003748:	000013b7          	lui	t2,0x1
    8000374c:	2233839b          	addiw	t2,t2,547
    80003750:	247116e3          	bne	sp,t2,8000419c <fail>
    80003754:	00002117          	auipc	sp,0x2
    80003758:	8ac10113          	addi	sp,sp,-1876 # 80005000 <begin_signature>
    8000375c:	00213423          	sd	sp,8(sp)
    80003760:	00813203          	ld	tp,8(sp)
    80003764:	00121123          	sh	ra,2(tp) # 2 <_start-0x7ffffffe>
    80003768:	22221ae3          	bne	tp,sp,8000419c <fail>
    8000376c:	00221703          	lh	a4,2(tp) # 2 <_start-0x7ffffffe>
    80003770:	227716e3          	bne	a4,t2,8000419c <fail>

0000000080003774 <test_40>:
    80003774:	02800193          	li	gp,40
    80003778:	00002117          	auipc	sp,0x2
    8000377c:	88810113          	addi	sp,sp,-1912 # 80005000 <begin_signature>
    80003780:	000010b7          	lui	ra,0x1
    80003784:	1220809b          	addiw	ra,ra,290
    80003788:	00111223          	sh	ra,4(sp)
    8000378c:	00411703          	lh	a4,4(sp)
    80003790:	00e11223          	sh	a4,4(sp)
    80003794:	00411103          	lh	sp,4(sp)
    80003798:	000013b7          	lui	t2,0x1
    8000379c:	1223839b          	addiw	t2,t2,290
    800037a0:	1e711ee3          	bne	sp,t2,8000419c <fail>
    800037a4:	00002117          	auipc	sp,0x2
    800037a8:	85c10113          	addi	sp,sp,-1956 # 80005000 <begin_signature>
    800037ac:	00213423          	sd	sp,8(sp)
    800037b0:	00813203          	ld	tp,8(sp)
    800037b4:	00121223          	sh	ra,4(tp) # 4 <_start-0x7ffffffc>
    800037b8:	1e2212e3          	bne	tp,sp,8000419c <fail>
    800037bc:	00421703          	lh	a4,4(tp) # 4 <_start-0x7ffffffc>
    800037c0:	1c771ee3          	bne	a4,t2,8000419c <fail>

00000000800037c4 <test_41>:
    800037c4:	02900193          	li	gp,41
    800037c8:	00002117          	auipc	sp,0x2
    800037cc:	83810113          	addi	sp,sp,-1992 # 80005000 <begin_signature>
    800037d0:	11200093          	li	ra,274
    800037d4:	00111323          	sh	ra,6(sp)
    800037d8:	00611703          	lh	a4,6(sp)
    800037dc:	00e11323          	sh	a4,6(sp)
    800037e0:	00611103          	lh	sp,6(sp)
    800037e4:	11200393          	li	t2,274
    800037e8:	1a711ae3          	bne	sp,t2,8000419c <fail>
    800037ec:	00002117          	auipc	sp,0x2
    800037f0:	81410113          	addi	sp,sp,-2028 # 80005000 <begin_signature>
    800037f4:	00213423          	sd	sp,8(sp)
    800037f8:	00813203          	ld	tp,8(sp)
    800037fc:	00121323          	sh	ra,6(tp) # 6 <_start-0x7ffffffa>
    80003800:	18221ee3          	bne	tp,sp,8000419c <fail>
    80003804:	00621703          	lh	a4,6(tp) # 6 <_start-0x7ffffffa>
    80003808:	18771ae3          	bne	a4,t2,8000419c <fail>

000000008000380c <test_42>:
    8000380c:	02a00193          	li	gp,42
    80003810:	00001117          	auipc	sp,0x1
    80003814:	7f010113          	addi	sp,sp,2032 # 80005000 <begin_signature>
    80003818:	01100093          	li	ra,17
    8000381c:	00111423          	sh	ra,8(sp)
    80003820:	00811703          	lh	a4,8(sp)
    80003824:	00e11423          	sh	a4,8(sp)
    80003828:	00811103          	lh	sp,8(sp)
    8000382c:	01100393          	li	t2,17
    80003830:	167116e3          	bne	sp,t2,8000419c <fail>
    80003834:	00001117          	auipc	sp,0x1
    80003838:	7cc10113          	addi	sp,sp,1996 # 80005000 <begin_signature>
    8000383c:	00213423          	sd	sp,8(sp)
    80003840:	00813203          	ld	tp,8(sp)
    80003844:	00121423          	sh	ra,8(tp) # 8 <_start-0x7ffffff8>
    80003848:	14221ae3          	bne	tp,sp,8000419c <fail>
    8000384c:	00821703          	lh	a4,8(tp) # 8 <_start-0x7ffffff8>
    80003850:	147716e3          	bne	a4,t2,8000419c <fail>

0000000080003854 <test_43>:
    80003854:	02b00193          	li	gp,43
    80003858:	00001117          	auipc	sp,0x1
    8000385c:	7a810113          	addi	sp,sp,1960 # 80005000 <begin_signature>
    80003860:	000030b7          	lui	ra,0x3
    80003864:	0010809b          	addiw	ra,ra,1
    80003868:	00111523          	sh	ra,10(sp)
    8000386c:	00a11703          	lh	a4,10(sp)
    80003870:	00e11523          	sh	a4,10(sp)
    80003874:	00a11103          	lh	sp,10(sp)
    80003878:	000033b7          	lui	t2,0x3
    8000387c:	0013839b          	addiw	t2,t2,1
    80003880:	10711ee3          	bne	sp,t2,8000419c <fail>
    80003884:	00001117          	auipc	sp,0x1
    80003888:	77c10113          	addi	sp,sp,1916 # 80005000 <begin_signature>
    8000388c:	00213423          	sd	sp,8(sp)
    80003890:	00813203          	ld	tp,8(sp)
    80003894:	00121523          	sh	ra,10(tp) # a <_start-0x7ffffff6>
    80003898:	102212e3          	bne	tp,sp,8000419c <fail>
    8000389c:	00a21703          	lh	a4,10(tp) # a <_start-0x7ffffff6>
    800038a0:	0e771ee3          	bne	a4,t2,8000419c <fail>

00000000800038a4 <test_44>:
    800038a4:	02c00193          	li	gp,44
    800038a8:	00001117          	auipc	sp,0x1
    800038ac:	75810113          	addi	sp,sp,1880 # 80005000 <begin_signature>
    800038b0:	000020b7          	lui	ra,0x2
    800038b4:	2330809b          	addiw	ra,ra,563
    800038b8:	00111023          	sh	ra,0(sp)
    800038bc:	00015703          	lhu	a4,0(sp)
    800038c0:	00e11023          	sh	a4,0(sp)
    800038c4:	00015103          	lhu	sp,0(sp)
    800038c8:	000023b7          	lui	t2,0x2
    800038cc:	2333839b          	addiw	t2,t2,563
    800038d0:	0c7116e3          	bne	sp,t2,8000419c <fail>
    800038d4:	00001117          	auipc	sp,0x1
    800038d8:	72c10113          	addi	sp,sp,1836 # 80005000 <begin_signature>
    800038dc:	00213423          	sd	sp,8(sp)
    800038e0:	00813203          	ld	tp,8(sp)
    800038e4:	00121023          	sh	ra,0(tp) # 0 <_start-0x80000000>
    800038e8:	0a221ae3          	bne	tp,sp,8000419c <fail>
    800038ec:	00025703          	lhu	a4,0(tp) # 0 <_start-0x80000000>
    800038f0:	0a7716e3          	bne	a4,t2,8000419c <fail>

00000000800038f4 <test_45>:
    800038f4:	02d00193          	li	gp,45
    800038f8:	00001117          	auipc	sp,0x1
    800038fc:	70810113          	addi	sp,sp,1800 # 80005000 <begin_signature>
    80003900:	000010b7          	lui	ra,0x1
    80003904:	2230809b          	addiw	ra,ra,547
    80003908:	00111123          	sh	ra,2(sp)
    8000390c:	00215703          	lhu	a4,2(sp)
    80003910:	00e11123          	sh	a4,2(sp)
    80003914:	00215103          	lhu	sp,2(sp)
    80003918:	000013b7          	lui	t2,0x1
    8000391c:	2233839b          	addiw	t2,t2,547
    80003920:	06711ee3          	bne	sp,t2,8000419c <fail>
    80003924:	00001117          	auipc	sp,0x1
    80003928:	6dc10113          	addi	sp,sp,1756 # 80005000 <begin_signature>
    8000392c:	00213423          	sd	sp,8(sp)
    80003930:	00813203          	ld	tp,8(sp)
    80003934:	00121123          	sh	ra,2(tp) # 2 <_start-0x7ffffffe>
    80003938:	062212e3          	bne	tp,sp,8000419c <fail>
    8000393c:	00225703          	lhu	a4,2(tp) # 2 <_start-0x7ffffffe>
    80003940:	04771ee3          	bne	a4,t2,8000419c <fail>

0000000080003944 <test_46>:
    80003944:	02e00193          	li	gp,46
    80003948:	00001117          	auipc	sp,0x1
    8000394c:	6b810113          	addi	sp,sp,1720 # 80005000 <begin_signature>
    80003950:	000010b7          	lui	ra,0x1
    80003954:	1220809b          	addiw	ra,ra,290
    80003958:	00111223          	sh	ra,4(sp)
    8000395c:	00415703          	lhu	a4,4(sp)
    80003960:	00e11223          	sh	a4,4(sp)
    80003964:	00415103          	lhu	sp,4(sp)
    80003968:	000013b7          	lui	t2,0x1
    8000396c:	1223839b          	addiw	t2,t2,290
    80003970:	027116e3          	bne	sp,t2,8000419c <fail>
    80003974:	00001117          	auipc	sp,0x1
    80003978:	68c10113          	addi	sp,sp,1676 # 80005000 <begin_signature>
    8000397c:	00213423          	sd	sp,8(sp)
    80003980:	00813203          	ld	tp,8(sp)
    80003984:	00121223          	sh	ra,4(tp) # 4 <_start-0x7ffffffc>
    80003988:	00221ae3          	bne	tp,sp,8000419c <fail>
    8000398c:	00425703          	lhu	a4,4(tp) # 4 <_start-0x7ffffffc>
    80003990:	007716e3          	bne	a4,t2,8000419c <fail>

0000000080003994 <test_47>:
    80003994:	02f00193          	li	gp,47
    80003998:	00001117          	auipc	sp,0x1
    8000399c:	66810113          	addi	sp,sp,1640 # 80005000 <begin_signature>
    800039a0:	11200093          	li	ra,274
    800039a4:	00111323          	sh	ra,6(sp)
    800039a8:	00615703          	lhu	a4,6(sp)
    800039ac:	00e11323          	sh	a4,6(sp)
    800039b0:	00615103          	lhu	sp,6(sp)
    800039b4:	11200393          	li	t2,274
    800039b8:	7e711263          	bne	sp,t2,8000419c <fail>
    800039bc:	00001117          	auipc	sp,0x1
    800039c0:	64410113          	addi	sp,sp,1604 # 80005000 <begin_signature>
    800039c4:	00213423          	sd	sp,8(sp)
    800039c8:	00813203          	ld	tp,8(sp)
    800039cc:	00121323          	sh	ra,6(tp) # 6 <_start-0x7ffffffa>
    800039d0:	7c221663          	bne	tp,sp,8000419c <fail>
    800039d4:	00625703          	lhu	a4,6(tp) # 6 <_start-0x7ffffffa>
    800039d8:	7c771263          	bne	a4,t2,8000419c <fail>

00000000800039dc <test_48>:
    800039dc:	03000193          	li	gp,48
    800039e0:	00001117          	auipc	sp,0x1
    800039e4:	62010113          	addi	sp,sp,1568 # 80005000 <begin_signature>
    800039e8:	01100093          	li	ra,17
    800039ec:	00111423          	sh	ra,8(sp)
    800039f0:	00815703          	lhu	a4,8(sp)
    800039f4:	00e11423          	sh	a4,8(sp)
    800039f8:	00815103          	lhu	sp,8(sp)
    800039fc:	01100393          	li	t2,17
    80003a00:	78711e63          	bne	sp,t2,8000419c <fail>
    80003a04:	00001117          	auipc	sp,0x1
    80003a08:	5fc10113          	addi	sp,sp,1532 # 80005000 <begin_signature>
    80003a0c:	00213423          	sd	sp,8(sp)
    80003a10:	00813203          	ld	tp,8(sp)
    80003a14:	00121423          	sh	ra,8(tp) # 8 <_start-0x7ffffff8>
    80003a18:	78221263          	bne	tp,sp,8000419c <fail>
    80003a1c:	00825703          	lhu	a4,8(tp) # 8 <_start-0x7ffffff8>
    80003a20:	76771e63          	bne	a4,t2,8000419c <fail>

0000000080003a24 <test_49>:
    80003a24:	03100193          	li	gp,49
    80003a28:	00001117          	auipc	sp,0x1
    80003a2c:	5d810113          	addi	sp,sp,1496 # 80005000 <begin_signature>
    80003a30:	000030b7          	lui	ra,0x3
    80003a34:	0010809b          	addiw	ra,ra,1
    80003a38:	00111523          	sh	ra,10(sp)
    80003a3c:	00a15703          	lhu	a4,10(sp)
    80003a40:	00e11523          	sh	a4,10(sp)
    80003a44:	00a15103          	lhu	sp,10(sp)
    80003a48:	000033b7          	lui	t2,0x3
    80003a4c:	0013839b          	addiw	t2,t2,1
    80003a50:	74711663          	bne	sp,t2,8000419c <fail>
    80003a54:	00001117          	auipc	sp,0x1
    80003a58:	5ac10113          	addi	sp,sp,1452 # 80005000 <begin_signature>
    80003a5c:	00213423          	sd	sp,8(sp)
    80003a60:	00813203          	ld	tp,8(sp)
    80003a64:	00121523          	sh	ra,10(tp) # a <_start-0x7ffffff6>
    80003a68:	72221a63          	bne	tp,sp,8000419c <fail>
    80003a6c:	00a25703          	lhu	a4,10(tp) # a <_start-0x7ffffff6>
    80003a70:	72771663          	bne	a4,t2,8000419c <fail>

0000000080003a74 <test_50>:
    80003a74:	03200193          	li	gp,50
    80003a78:	00001117          	auipc	sp,0x1
    80003a7c:	58810113          	addi	sp,sp,1416 # 80005000 <begin_signature>
    80003a80:	044890b7          	lui	ra,0x4489
    80003a84:	cd10809b          	addiw	ra,ra,-815
    80003a88:	00d09093          	slli	ra,ra,0xd
    80003a8c:	2ab08093          	addi	ra,ra,683 # 44892ab <_start-0x7bb76d55>
    80003a90:	00d09093          	slli	ra,ra,0xd
    80003a94:	67708093          	addi	ra,ra,1655
    80003a98:	00113023          	sd	ra,0(sp)
    80003a9c:	00013703          	ld	a4,0(sp)
    80003aa0:	00e13023          	sd	a4,0(sp)
    80003aa4:	00013103          	ld	sp,0(sp)
    80003aa8:	044893b7          	lui	t2,0x4489
    80003aac:	cd13839b          	addiw	t2,t2,-815
    80003ab0:	00d39393          	slli	t2,t2,0xd
    80003ab4:	2ab38393          	addi	t2,t2,683 # 44892ab <_start-0x7bb76d55>
    80003ab8:	00d39393          	slli	t2,t2,0xd
    80003abc:	67738393          	addi	t2,t2,1655
    80003ac0:	6c711e63          	bne	sp,t2,8000419c <fail>
    80003ac4:	00001117          	auipc	sp,0x1
    80003ac8:	53c10113          	addi	sp,sp,1340 # 80005000 <begin_signature>
    80003acc:	00213423          	sd	sp,8(sp)
    80003ad0:	00813203          	ld	tp,8(sp)
    80003ad4:	00123023          	sd	ra,0(tp) # 0 <_start-0x80000000>
    80003ad8:	6c221263          	bne	tp,sp,8000419c <fail>
    80003adc:	00023703          	ld	a4,0(tp) # 0 <_start-0x80000000>
    80003ae0:	6a771e63          	bne	a4,t2,8000419c <fail>

0000000080003ae4 <test_51>:
    80003ae4:	03300193          	li	gp,51
    80003ae8:	00001117          	auipc	sp,0x1
    80003aec:	51810113          	addi	sp,sp,1304 # 80005000 <begin_signature>
    80003af0:	004490b7          	lui	ra,0x449
    80003af4:	8cd0809b          	addiw	ra,ra,-1843
    80003af8:	00e09093          	slli	ra,ra,0xe
    80003afc:	45508093          	addi	ra,ra,1109 # 449455 <_start-0x7fbb6bab>
    80003b00:	00c09093          	slli	ra,ra,0xc
    80003b04:	66708093          	addi	ra,ra,1639
    80003b08:	00c09093          	slli	ra,ra,0xc
    80003b0c:	78808093          	addi	ra,ra,1928
    80003b10:	00113423          	sd	ra,8(sp)
    80003b14:	00813703          	ld	a4,8(sp)
    80003b18:	00e13423          	sd	a4,8(sp)
    80003b1c:	00813103          	ld	sp,8(sp)
    80003b20:	004493b7          	lui	t2,0x449
    80003b24:	8cd3839b          	addiw	t2,t2,-1843
    80003b28:	00e39393          	slli	t2,t2,0xe
    80003b2c:	45538393          	addi	t2,t2,1109 # 449455 <_start-0x7fbb6bab>
    80003b30:	00c39393          	slli	t2,t2,0xc
    80003b34:	66738393          	addi	t2,t2,1639
    80003b38:	00c39393          	slli	t2,t2,0xc
    80003b3c:	78838393          	addi	t2,t2,1928
    80003b40:	64711e63          	bne	sp,t2,8000419c <fail>
    80003b44:	00001117          	auipc	sp,0x1
    80003b48:	4bc10113          	addi	sp,sp,1212 # 80005000 <begin_signature>
    80003b4c:	00213423          	sd	sp,8(sp)
    80003b50:	00813203          	ld	tp,8(sp)
    80003b54:	00123423          	sd	ra,8(tp) # 8 <_start-0x7ffffff8>
    80003b58:	64221263          	bne	tp,sp,8000419c <fail>
    80003b5c:	00823703          	ld	a4,8(tp) # 8 <_start-0x7ffffff8>
    80003b60:	62771e63          	bne	a4,t2,8000419c <fail>

0000000080003b64 <test_52>:
    80003b64:	03400193          	li	gp,52
    80003b68:	00001117          	auipc	sp,0x1
    80003b6c:	49810113          	addi	sp,sp,1176 # 80005000 <begin_signature>
    80003b70:	0111a0b7          	lui	ra,0x111a
    80003b74:	a230809b          	addiw	ra,ra,-1501
    80003b78:	00c09093          	slli	ra,ra,0xc
    80003b7c:	ab308093          	addi	ra,ra,-1357 # 1119ab3 <_start-0x7eee654d>
    80003b80:	00d09093          	slli	ra,ra,0xd
    80003b84:	77908093          	addi	ra,ra,1913
    80003b88:	00c09093          	slli	ra,ra,0xc
    80003b8c:	89908093          	addi	ra,ra,-1895
    80003b90:	00113823          	sd	ra,16(sp)
    80003b94:	01013703          	ld	a4,16(sp)
    80003b98:	00e13823          	sd	a4,16(sp)
    80003b9c:	01013103          	ld	sp,16(sp)
    80003ba0:	0111a3b7          	lui	t2,0x111a
    80003ba4:	a233839b          	addiw	t2,t2,-1501
    80003ba8:	00c39393          	slli	t2,t2,0xc
    80003bac:	ab338393          	addi	t2,t2,-1357 # 1119ab3 <_start-0x7eee654d>
    80003bb0:	00d39393          	slli	t2,t2,0xd
    80003bb4:	77938393          	addi	t2,t2,1913
    80003bb8:	00c39393          	slli	t2,t2,0xc
    80003bbc:	89938393          	addi	t2,t2,-1895
    80003bc0:	5c711e63          	bne	sp,t2,8000419c <fail>
    80003bc4:	00001117          	auipc	sp,0x1
    80003bc8:	43c10113          	addi	sp,sp,1084 # 80005000 <begin_signature>
    80003bcc:	00213423          	sd	sp,8(sp)
    80003bd0:	00813203          	ld	tp,8(sp)
    80003bd4:	00123823          	sd	ra,16(tp) # 10 <_start-0x7ffffff0>
    80003bd8:	5c221263          	bne	tp,sp,8000419c <fail>
    80003bdc:	01023703          	ld	a4,16(tp) # 10 <_start-0x7ffffff0>
    80003be0:	5a771e63          	bne	a4,t2,8000419c <fail>

0000000080003be4 <test_53>:
    80003be4:	03500193          	li	gp,53
    80003be8:	00001117          	auipc	sp,0x1
    80003bec:	41810113          	addi	sp,sp,1048 # 80005000 <begin_signature>
    80003bf0:	0abbd0b7          	lui	ra,0xabbd
    80003bf4:	cdd0809b          	addiw	ra,ra,-803
    80003bf8:	00113023          	sd	ra,0(sp)
    80003bfc:	00013703          	ld	a4,0(sp)
    80003c00:	00e13023          	sd	a4,0(sp)
    80003c04:	00013103          	ld	sp,0(sp)
    80003c08:	0abbd3b7          	lui	t2,0xabbd
    80003c0c:	cdd3839b          	addiw	t2,t2,-803
    80003c10:	58711663          	bne	sp,t2,8000419c <fail>
    80003c14:	00001117          	auipc	sp,0x1
    80003c18:	3ec10113          	addi	sp,sp,1004 # 80005000 <begin_signature>
    80003c1c:	00213423          	sd	sp,8(sp)
    80003c20:	00813203          	ld	tp,8(sp)
    80003c24:	00123023          	sd	ra,0(tp) # 0 <_start-0x80000000>
    80003c28:	56221a63          	bne	tp,sp,8000419c <fail>
    80003c2c:	00023703          	ld	a4,0(tp) # 0 <_start-0x80000000>
    80003c30:	56771663          	bne	a4,t2,8000419c <fail>

0000000080003c34 <test_54>:
    80003c34:	03600193          	li	gp,54
    80003c38:	00001117          	auipc	sp,0x1
    80003c3c:	3c810113          	addi	sp,sp,968 # 80005000 <begin_signature>
    80003c40:	0aabc0b7          	lui	ra,0xaabc
    80003c44:	ccd0809b          	addiw	ra,ra,-819
    80003c48:	00113423          	sd	ra,8(sp)
    80003c4c:	00813703          	ld	a4,8(sp)
    80003c50:	00e13423          	sd	a4,8(sp)
    80003c54:	00813103          	ld	sp,8(sp)
    80003c58:	0aabc3b7          	lui	t2,0xaabc
    80003c5c:	ccd3839b          	addiw	t2,t2,-819
    80003c60:	52711e63          	bne	sp,t2,8000419c <fail>
    80003c64:	00001117          	auipc	sp,0x1
    80003c68:	39c10113          	addi	sp,sp,924 # 80005000 <begin_signature>
    80003c6c:	00213423          	sd	sp,8(sp)
    80003c70:	00813203          	ld	tp,8(sp)
    80003c74:	00123423          	sd	ra,8(tp) # 8 <_start-0x7ffffff8>
    80003c78:	52221263          	bne	tp,sp,8000419c <fail>
    80003c7c:	00823703          	ld	a4,8(tp) # 8 <_start-0x7ffffff8>
    80003c80:	50771e63          	bne	a4,t2,8000419c <fail>

0000000080003c84 <test_55>:
    80003c84:	03700193          	li	gp,55
    80003c88:	00001117          	auipc	sp,0x1
    80003c8c:	37810113          	addi	sp,sp,888 # 80005000 <begin_signature>
    80003c90:	0daac0b7          	lui	ra,0xdaac
    80003c94:	bcc0809b          	addiw	ra,ra,-1076
    80003c98:	00113823          	sd	ra,16(sp)
    80003c9c:	01013703          	ld	a4,16(sp)
    80003ca0:	00e13823          	sd	a4,16(sp)
    80003ca4:	01013103          	ld	sp,16(sp)
    80003ca8:	0daac3b7          	lui	t2,0xdaac
    80003cac:	bcc3839b          	addiw	t2,t2,-1076
    80003cb0:	4e711663          	bne	sp,t2,8000419c <fail>
    80003cb4:	00001117          	auipc	sp,0x1
    80003cb8:	34c10113          	addi	sp,sp,844 # 80005000 <begin_signature>
    80003cbc:	00213423          	sd	sp,8(sp)
    80003cc0:	00813203          	ld	tp,8(sp)
    80003cc4:	00123823          	sd	ra,16(tp) # 10 <_start-0x7ffffff0>
    80003cc8:	4c221a63          	bne	tp,sp,8000419c <fail>
    80003ccc:	01023703          	ld	a4,16(tp) # 10 <_start-0x7ffffff0>
    80003cd0:	4c771663          	bne	a4,t2,8000419c <fail>

0000000080003cd4 <test_56>:
    80003cd4:	03800193          	li	gp,56
    80003cd8:	00001117          	auipc	sp,0x1
    80003cdc:	32810113          	addi	sp,sp,808 # 80005000 <begin_signature>
    80003ce0:	0ddab0b7          	lui	ra,0xddab
    80003ce4:	bbc0809b          	addiw	ra,ra,-1092
    80003ce8:	00113c23          	sd	ra,24(sp)
    80003cec:	01813703          	ld	a4,24(sp)
    80003cf0:	00e13c23          	sd	a4,24(sp)
    80003cf4:	01813103          	ld	sp,24(sp)
    80003cf8:	0ddab3b7          	lui	t2,0xddab
    80003cfc:	bbc3839b          	addiw	t2,t2,-1092
    80003d00:	48711e63          	bne	sp,t2,8000419c <fail>
    80003d04:	00001117          	auipc	sp,0x1
    80003d08:	2fc10113          	addi	sp,sp,764 # 80005000 <begin_signature>
    80003d0c:	00213423          	sd	sp,8(sp)
    80003d10:	00813203          	ld	tp,8(sp)
    80003d14:	00123c23          	sd	ra,24(tp) # 18 <_start-0x7fffffe8>
    80003d18:	48221263          	bne	tp,sp,8000419c <fail>
    80003d1c:	01823703          	ld	a4,24(tp) # 18 <_start-0x7fffffe8>
    80003d20:	46771e63          	bne	a4,t2,8000419c <fail>

0000000080003d24 <test_57>:
    80003d24:	03900193          	li	gp,57
    80003d28:	00001117          	auipc	sp,0x1
    80003d2c:	2d810113          	addi	sp,sp,728 # 80005000 <begin_signature>
    80003d30:	0cddb0b7          	lui	ra,0xcddb
    80003d34:	abb0809b          	addiw	ra,ra,-1349
    80003d38:	02113023          	sd	ra,32(sp)
    80003d3c:	02013703          	ld	a4,32(sp)
    80003d40:	02e13023          	sd	a4,32(sp)
    80003d44:	02013103          	ld	sp,32(sp)
    80003d48:	0cddb3b7          	lui	t2,0xcddb
    80003d4c:	abb3839b          	addiw	t2,t2,-1349
    80003d50:	44711663          	bne	sp,t2,8000419c <fail>
    80003d54:	00001117          	auipc	sp,0x1
    80003d58:	2ac10113          	addi	sp,sp,684 # 80005000 <begin_signature>
    80003d5c:	00213423          	sd	sp,8(sp)
    80003d60:	00813203          	ld	tp,8(sp)
    80003d64:	02123023          	sd	ra,32(tp) # 20 <_start-0x7fffffe0>
    80003d68:	42221a63          	bne	tp,sp,8000419c <fail>
    80003d6c:	02023703          	ld	a4,32(tp) # 20 <_start-0x7fffffe0>
    80003d70:	42771663          	bne	a4,t2,8000419c <fail>

0000000080003d74 <test_58>:
    80003d74:	03a00193          	li	gp,58
    80003d78:	00001117          	auipc	sp,0x1
    80003d7c:	28810113          	addi	sp,sp,648 # 80005000 <begin_signature>
    80003d80:	0ccde0b7          	lui	ra,0xccde
    80003d84:	aab0809b          	addiw	ra,ra,-1365
    80003d88:	02113423          	sd	ra,40(sp)
    80003d8c:	02813703          	ld	a4,40(sp)
    80003d90:	02e13423          	sd	a4,40(sp)
    80003d94:	02813103          	ld	sp,40(sp)
    80003d98:	0ccde3b7          	lui	t2,0xccde
    80003d9c:	aab3839b          	addiw	t2,t2,-1365
    80003da0:	3e711e63          	bne	sp,t2,8000419c <fail>
    80003da4:	00001117          	auipc	sp,0x1
    80003da8:	25c10113          	addi	sp,sp,604 # 80005000 <begin_signature>
    80003dac:	00213423          	sd	sp,8(sp)
    80003db0:	00813203          	ld	tp,8(sp)
    80003db4:	02123423          	sd	ra,40(tp) # 28 <_start-0x7fffffd8>
    80003db8:	3e221263          	bne	tp,sp,8000419c <fail>
    80003dbc:	02823703          	ld	a4,40(tp) # 28 <_start-0x7fffffd8>
    80003dc0:	3c771e63          	bne	a4,t2,8000419c <fail>

0000000080003dc4 <test_59>:
    80003dc4:	03b00193          	li	gp,59
    80003dc8:	00001117          	auipc	sp,0x1
    80003dcc:	23810113          	addi	sp,sp,568 # 80005000 <begin_signature>
    80003dd0:	001120b7          	lui	ra,0x112
    80003dd4:	2330809b          	addiw	ra,ra,563
    80003dd8:	00113023          	sd	ra,0(sp)
    80003ddc:	00013703          	ld	a4,0(sp)
    80003de0:	00e13023          	sd	a4,0(sp)
    80003de4:	00013103          	ld	sp,0(sp)
    80003de8:	001123b7          	lui	t2,0x112
    80003dec:	2333839b          	addiw	t2,t2,563
    80003df0:	3a711663          	bne	sp,t2,8000419c <fail>
    80003df4:	00001117          	auipc	sp,0x1
    80003df8:	20c10113          	addi	sp,sp,524 # 80005000 <begin_signature>
    80003dfc:	00213423          	sd	sp,8(sp)
    80003e00:	00813203          	ld	tp,8(sp)
    80003e04:	00123023          	sd	ra,0(tp) # 0 <_start-0x80000000>
    80003e08:	38221a63          	bne	tp,sp,8000419c <fail>
    80003e0c:	00023703          	ld	a4,0(tp) # 0 <_start-0x80000000>
    80003e10:	38771663          	bne	a4,t2,8000419c <fail>

0000000080003e14 <test_60>:
    80003e14:	03c00193          	li	gp,60
    80003e18:	00001117          	auipc	sp,0x1
    80003e1c:	1e810113          	addi	sp,sp,488 # 80005000 <begin_signature>
    80003e20:	300110b7          	lui	ra,0x30011
    80003e24:	2230809b          	addiw	ra,ra,547
    80003e28:	00113423          	sd	ra,8(sp)
    80003e2c:	00813703          	ld	a4,8(sp)
    80003e30:	00e13423          	sd	a4,8(sp)
    80003e34:	00813103          	ld	sp,8(sp)
    80003e38:	300113b7          	lui	t2,0x30011
    80003e3c:	2233839b          	addiw	t2,t2,547
    80003e40:	34711e63          	bne	sp,t2,8000419c <fail>
    80003e44:	00001117          	auipc	sp,0x1
    80003e48:	1bc10113          	addi	sp,sp,444 # 80005000 <begin_signature>
    80003e4c:	00213423          	sd	sp,8(sp)
    80003e50:	00813203          	ld	tp,8(sp)
    80003e54:	00123423          	sd	ra,8(tp) # 8 <_start-0x7ffffff8>
    80003e58:	34221263          	bne	tp,sp,8000419c <fail>
    80003e5c:	00823703          	ld	a4,8(tp) # 8 <_start-0x7ffffff8>
    80003e60:	32771e63          	bne	a4,t2,8000419c <fail>

0000000080003e64 <test_61>:
    80003e64:	03d00193          	li	gp,61
    80003e68:	00001117          	auipc	sp,0x1
    80003e6c:	19810113          	addi	sp,sp,408 # 80005000 <begin_signature>
    80003e70:	330010b7          	lui	ra,0x33001
    80003e74:	1220809b          	addiw	ra,ra,290
    80003e78:	00113823          	sd	ra,16(sp)
    80003e7c:	01013703          	ld	a4,16(sp)
    80003e80:	00e13823          	sd	a4,16(sp)
    80003e84:	01013103          	ld	sp,16(sp)
    80003e88:	330013b7          	lui	t2,0x33001
    80003e8c:	1223839b          	addiw	t2,t2,290
    80003e90:	30711663          	bne	sp,t2,8000419c <fail>
    80003e94:	00001117          	auipc	sp,0x1
    80003e98:	16c10113          	addi	sp,sp,364 # 80005000 <begin_signature>
    80003e9c:	00213423          	sd	sp,8(sp)
    80003ea0:	00813203          	ld	tp,8(sp)
    80003ea4:	00123823          	sd	ra,16(tp) # 10 <_start-0x7ffffff0>
    80003ea8:	2e221a63          	bne	tp,sp,8000419c <fail>
    80003eac:	01023703          	ld	a4,16(tp) # 10 <_start-0x7ffffff0>
    80003eb0:	2e771663          	bne	a4,t2,8000419c <fail>

0000000080003eb4 <test_62>:
    80003eb4:	03e00193          	li	gp,62
    80003eb8:	00001117          	auipc	sp,0x1
    80003ebc:	14810113          	addi	sp,sp,328 # 80005000 <begin_signature>
    80003ec0:	233000b7          	lui	ra,0x23300
    80003ec4:	1120809b          	addiw	ra,ra,274
    80003ec8:	00113c23          	sd	ra,24(sp)
    80003ecc:	01813703          	ld	a4,24(sp)
    80003ed0:	00e13c23          	sd	a4,24(sp)
    80003ed4:	01813103          	ld	sp,24(sp)
    80003ed8:	233003b7          	lui	t2,0x23300
    80003edc:	1123839b          	addiw	t2,t2,274
    80003ee0:	2a711e63          	bne	sp,t2,8000419c <fail>
    80003ee4:	00001117          	auipc	sp,0x1
    80003ee8:	11c10113          	addi	sp,sp,284 # 80005000 <begin_signature>
    80003eec:	00213423          	sd	sp,8(sp)
    80003ef0:	00813203          	ld	tp,8(sp)
    80003ef4:	00123c23          	sd	ra,24(tp) # 18 <_start-0x7fffffe8>
    80003ef8:	2a221263          	bne	tp,sp,8000419c <fail>
    80003efc:	01823703          	ld	a4,24(tp) # 18 <_start-0x7fffffe8>
    80003f00:	28771e63          	bne	a4,t2,8000419c <fail>

0000000080003f04 <test_63>:
    80003f04:	03f00193          	li	gp,63
    80003f08:	00001117          	auipc	sp,0x1
    80003f0c:	0f810113          	addi	sp,sp,248 # 80005000 <begin_signature>
    80003f10:	223300b7          	lui	ra,0x22330
    80003f14:	0110809b          	addiw	ra,ra,17
    80003f18:	02113023          	sd	ra,32(sp)
    80003f1c:	02013703          	ld	a4,32(sp)
    80003f20:	02e13023          	sd	a4,32(sp)
    80003f24:	02013103          	ld	sp,32(sp)
    80003f28:	223303b7          	lui	t2,0x22330
    80003f2c:	0113839b          	addiw	t2,t2,17
    80003f30:	26711663          	bne	sp,t2,8000419c <fail>
    80003f34:	00001117          	auipc	sp,0x1
    80003f38:	0cc10113          	addi	sp,sp,204 # 80005000 <begin_signature>
    80003f3c:	00213423          	sd	sp,8(sp)
    80003f40:	00813203          	ld	tp,8(sp)
    80003f44:	02123023          	sd	ra,32(tp) # 20 <_start-0x7fffffe0>
    80003f48:	24221a63          	bne	tp,sp,8000419c <fail>
    80003f4c:	02023703          	ld	a4,32(tp) # 20 <_start-0x7fffffe0>
    80003f50:	24771663          	bne	a4,t2,8000419c <fail>

0000000080003f54 <test_64>:
    80003f54:	04000193          	li	gp,64
    80003f58:	00001117          	auipc	sp,0x1
    80003f5c:	0a810113          	addi	sp,sp,168 # 80005000 <begin_signature>
    80003f60:	122330b7          	lui	ra,0x12233
    80003f64:	0010809b          	addiw	ra,ra,1
    80003f68:	02113423          	sd	ra,40(sp)
    80003f6c:	02813703          	ld	a4,40(sp)
    80003f70:	02e13423          	sd	a4,40(sp)
    80003f74:	02813103          	ld	sp,40(sp)
    80003f78:	122333b7          	lui	t2,0x12233
    80003f7c:	0013839b          	addiw	t2,t2,1
    80003f80:	20711e63          	bne	sp,t2,8000419c <fail>
    80003f84:	00001117          	auipc	sp,0x1
    80003f88:	07c10113          	addi	sp,sp,124 # 80005000 <begin_signature>
    80003f8c:	00213423          	sd	sp,8(sp)
    80003f90:	00813203          	ld	tp,8(sp)
    80003f94:	02123423          	sd	ra,40(tp) # 28 <_start-0x7fffffd8>
    80003f98:	20221263          	bne	tp,sp,8000419c <fail>
    80003f9c:	02823703          	ld	a4,40(tp) # 28 <_start-0x7fffffd8>
    80003fa0:	1e771e63          	bne	a4,t2,8000419c <fail>

0000000080003fa4 <test_65>:
    80003fa4:	04100193          	li	gp,65
    80003fa8:	00001117          	auipc	sp,0x1
    80003fac:	05810113          	addi	sp,sp,88 # 80005000 <begin_signature>
    80003fb0:	001120b7          	lui	ra,0x112
    80003fb4:	2330809b          	addiw	ra,ra,563
    80003fb8:	00112023          	sw	ra,0(sp)
    80003fbc:	00016703          	lwu	a4,0(sp)
    80003fc0:	00e12023          	sw	a4,0(sp)
    80003fc4:	00016103          	lwu	sp,0(sp)
    80003fc8:	001123b7          	lui	t2,0x112
    80003fcc:	2333839b          	addiw	t2,t2,563
    80003fd0:	1c711663          	bne	sp,t2,8000419c <fail>
    80003fd4:	00001117          	auipc	sp,0x1
    80003fd8:	02c10113          	addi	sp,sp,44 # 80005000 <begin_signature>
    80003fdc:	00213423          	sd	sp,8(sp)
    80003fe0:	00813203          	ld	tp,8(sp)
    80003fe4:	00122023          	sw	ra,0(tp) # 0 <_start-0x80000000>
    80003fe8:	1a221a63          	bne	tp,sp,8000419c <fail>
    80003fec:	00026703          	lwu	a4,0(tp) # 0 <_start-0x80000000>
    80003ff0:	1a771663          	bne	a4,t2,8000419c <fail>

0000000080003ff4 <test_66>:
    80003ff4:	04200193          	li	gp,66
    80003ff8:	00001117          	auipc	sp,0x1
    80003ffc:	00810113          	addi	sp,sp,8 # 80005000 <begin_signature>
    80004000:	330010b7          	lui	ra,0x33001
    80004004:	1220809b          	addiw	ra,ra,290
    80004008:	00112423          	sw	ra,8(sp)
    8000400c:	00816703          	lwu	a4,8(sp)
    80004010:	00e12423          	sw	a4,8(sp)
    80004014:	00816103          	lwu	sp,8(sp)
    80004018:	330013b7          	lui	t2,0x33001
    8000401c:	1223839b          	addiw	t2,t2,290
    80004020:	16711e63          	bne	sp,t2,8000419c <fail>
    80004024:	00001117          	auipc	sp,0x1
    80004028:	fdc10113          	addi	sp,sp,-36 # 80005000 <begin_signature>
    8000402c:	00213423          	sd	sp,8(sp)
    80004030:	00813203          	ld	tp,8(sp)
    80004034:	00122423          	sw	ra,8(tp) # 8 <_start-0x7ffffff8>
    80004038:	16221263          	bne	tp,sp,8000419c <fail>
    8000403c:	00826703          	lwu	a4,8(tp) # 8 <_start-0x7ffffff8>
    80004040:	14771e63          	bne	a4,t2,8000419c <fail>

0000000080004044 <test_67>:
    80004044:	04300193          	li	gp,67
    80004048:	00001117          	auipc	sp,0x1
    8000404c:	fb810113          	addi	sp,sp,-72 # 80005000 <begin_signature>
    80004050:	300110b7          	lui	ra,0x30011
    80004054:	2230809b          	addiw	ra,ra,547
    80004058:	00112223          	sw	ra,4(sp)
    8000405c:	00416703          	lwu	a4,4(sp)
    80004060:	00e12223          	sw	a4,4(sp)
    80004064:	00416103          	lwu	sp,4(sp)
    80004068:	300113b7          	lui	t2,0x30011
    8000406c:	2233839b          	addiw	t2,t2,547
    80004070:	12711663          	bne	sp,t2,8000419c <fail>
    80004074:	00001117          	auipc	sp,0x1
    80004078:	f8c10113          	addi	sp,sp,-116 # 80005000 <begin_signature>
    8000407c:	00213423          	sd	sp,8(sp)
    80004080:	00813203          	ld	tp,8(sp)
    80004084:	00122223          	sw	ra,4(tp) # 4 <_start-0x7ffffffc>
    80004088:	10221a63          	bne	tp,sp,8000419c <fail>
    8000408c:	00426703          	lwu	a4,4(tp) # 4 <_start-0x7ffffffc>
    80004090:	10771663          	bne	a4,t2,8000419c <fail>

0000000080004094 <test_68>:
    80004094:	04400193          	li	gp,68
    80004098:	00001117          	auipc	sp,0x1
    8000409c:	f6810113          	addi	sp,sp,-152 # 80005000 <begin_signature>
    800040a0:	233000b7          	lui	ra,0x23300
    800040a4:	1120809b          	addiw	ra,ra,274
    800040a8:	00112623          	sw	ra,12(sp)
    800040ac:	00c16703          	lwu	a4,12(sp)
    800040b0:	00e12623          	sw	a4,12(sp)
    800040b4:	00c16103          	lwu	sp,12(sp)
    800040b8:	233003b7          	lui	t2,0x23300
    800040bc:	1123839b          	addiw	t2,t2,274
    800040c0:	0c711e63          	bne	sp,t2,8000419c <fail>
    800040c4:	00001117          	auipc	sp,0x1
    800040c8:	f3c10113          	addi	sp,sp,-196 # 80005000 <begin_signature>
    800040cc:	00213423          	sd	sp,8(sp)
    800040d0:	00813203          	ld	tp,8(sp)
    800040d4:	00122623          	sw	ra,12(tp) # c <_start-0x7ffffff4>
    800040d8:	0c221263          	bne	tp,sp,8000419c <fail>
    800040dc:	00c26703          	lwu	a4,12(tp) # c <_start-0x7ffffff4>
    800040e0:	0a771e63          	bne	a4,t2,8000419c <fail>

00000000800040e4 <test_69>:
    800040e4:	04500193          	li	gp,69
    800040e8:	00001117          	auipc	sp,0x1
    800040ec:	f1810113          	addi	sp,sp,-232 # 80005000 <begin_signature>
    800040f0:	223300b7          	lui	ra,0x22330
    800040f4:	0110809b          	addiw	ra,ra,17
    800040f8:	00112823          	sw	ra,16(sp)
    800040fc:	01016703          	lwu	a4,16(sp)
    80004100:	00e12823          	sw	a4,16(sp)
    80004104:	01016103          	lwu	sp,16(sp)
    80004108:	223303b7          	lui	t2,0x22330
    8000410c:	0113839b          	addiw	t2,t2,17
    80004110:	08711663          	bne	sp,t2,8000419c <fail>
    80004114:	00001117          	auipc	sp,0x1
    80004118:	eec10113          	addi	sp,sp,-276 # 80005000 <begin_signature>
    8000411c:	00213423          	sd	sp,8(sp)
    80004120:	00813203          	ld	tp,8(sp)
    80004124:	00122823          	sw	ra,16(tp) # 10 <_start-0x7ffffff0>
    80004128:	06221a63          	bne	tp,sp,8000419c <fail>
    8000412c:	01026703          	lwu	a4,16(tp) # 10 <_start-0x7ffffff0>
    80004130:	06771663          	bne	a4,t2,8000419c <fail>

0000000080004134 <test_70>:
    80004134:	04600193          	li	gp,70
    80004138:	00001117          	auipc	sp,0x1
    8000413c:	ec810113          	addi	sp,sp,-312 # 80005000 <begin_signature>
    80004140:	122330b7          	lui	ra,0x12233
    80004144:	0010809b          	addiw	ra,ra,1
    80004148:	00112a23          	sw	ra,20(sp)
    8000414c:	01416703          	lwu	a4,20(sp)
    80004150:	00e12a23          	sw	a4,20(sp)
    80004154:	01416103          	lwu	sp,20(sp)
    80004158:	122333b7          	lui	t2,0x12233
    8000415c:	0013839b          	addiw	t2,t2,1
    80004160:	02711e63          	bne	sp,t2,8000419c <fail>
    80004164:	00001117          	auipc	sp,0x1
    80004168:	e9c10113          	addi	sp,sp,-356 # 80005000 <begin_signature>
    8000416c:	00213423          	sd	sp,8(sp)
    80004170:	00813203          	ld	tp,8(sp)
    80004174:	00122a23          	sw	ra,20(tp) # 14 <_start-0x7fffffec>
    80004178:	02221263          	bne	tp,sp,8000419c <fail>
    8000417c:	01426703          	lwu	a4,20(tp) # 14 <_start-0x7fffffec>
    80004180:	00771e63          	bne	a4,t2,8000419c <fail>
    80004184:	0ef00513          	li	a0,239
    80004188:	00001597          	auipc	a1,0x1
    8000418c:	e7858593          	addi	a1,a1,-392 # 80005000 <begin_signature>
    80004190:	00a581a3          	sb	a0,3(a1)
    80004194:	00358603          	lb	a2,3(a1)
    80004198:	00301a63          	bne	zero,gp,800041ac <pass>

000000008000419c <fail>:
    8000419c:	00119513          	slli	a0,gp,0x1
    800041a0:	00050063          	beqz	a0,800041a0 <fail+0x4>
    800041a4:	00156513          	ori	a0,a0,1
    800041a8:	00000073          	ecall

00000000800041ac <pass>:
    800041ac:	00100513          	li	a0,1
    800041b0:	00000073          	ecall
    800041b4:	c0001073          	unimp
