
rv64ud-v-move:     file format elf64-littleriscv


Disassembly of section .text.init:

0000000080000000 <_start>:
    80000000:	00c0006f          	j	8000000c <handle_reset>

0000000080000004 <nmi_vector>:
    80000004:	25c0206f          	j	80002260 <wtf>

0000000080000008 <trap_vector>:
    80000008:	2580206f          	j	80002260 <wtf>

000000008000000c <handle_reset>:
    8000000c:	00000093          	li	ra,0
    80000010:	00000113          	li	sp,0
    80000014:	00000193          	li	gp,0
    80000018:	00000213          	li	tp,0
    8000001c:	00000293          	li	t0,0
    80000020:	00000313          	li	t1,0
    80000024:	00000393          	li	t2,0
    80000028:	00000413          	li	s0,0
    8000002c:	00000493          	li	s1,0
    80000030:	00000513          	li	a0,0
    80000034:	00000593          	li	a1,0
    80000038:	00000613          	li	a2,0
    8000003c:	00000693          	li	a3,0
    80000040:	00000713          	li	a4,0
    80000044:	00000793          	li	a5,0
    80000048:	00000813          	li	a6,0
    8000004c:	00000893          	li	a7,0
    80000050:	00000913          	li	s2,0
    80000054:	00000993          	li	s3,0
    80000058:	00000a13          	li	s4,0
    8000005c:	00000a93          	li	s5,0
    80000060:	00000b13          	li	s6,0
    80000064:	00000b93          	li	s7,0
    80000068:	00000c13          	li	s8,0
    8000006c:	00000c93          	li	s9,0
    80000070:	00000d13          	li	s10,0
    80000074:	00000d93          	li	s11,0
    80000078:	00000e13          	li	t3,0
    8000007c:	00000e93          	li	t4,0
    80000080:	00000f13          	li	t5,0
    80000084:	00000f93          	li	t6,0
    80000088:	00000297          	auipc	t0,0x0
    8000008c:	01028293          	addi	t0,t0,16 # 80000098 <handle_reset+0x8c>
    80000090:	30529073          	csrw	mtvec,t0
    80000094:	74445073          	csrwi	0x744,8
    80000098:	00000297          	auipc	t0,0x0
    8000009c:	f7028293          	addi	t0,t0,-144 # 80000008 <trap_vector>
    800000a0:	30529073          	csrw	mtvec,t0
    800000a4:	0000c117          	auipc	sp,0xc
    800000a8:	62c10113          	addi	sp,sp,1580 # 8000c6d0 <_end+0x3ee0>
    800000ac:	f14022f3          	csrr	t0,mhartid
    800000b0:	00c29293          	slli	t0,t0,0xc
    800000b4:	00510133          	add	sp,sp,t0
    800000b8:	34011073          	csrw	mscratch,sp
    800000bc:	271020ef          	jal	ra,80002b2c <extra_boot>
    800000c0:	00003517          	auipc	a0,0x3
    800000c4:	a8050513          	addi	a0,a0,-1408 # 80002b40 <userstart>
    800000c8:	07d0206f          	j	80002944 <vm_boot>

00000000800000cc <pop_tf>:
    800000cc:	10853283          	ld	t0,264(a0)
    800000d0:	14129073          	csrw	sepc,t0
    800000d4:	00853083          	ld	ra,8(a0)
    800000d8:	01053103          	ld	sp,16(a0)
    800000dc:	01853183          	ld	gp,24(a0)
    800000e0:	02053203          	ld	tp,32(a0)
    800000e4:	02853283          	ld	t0,40(a0)
    800000e8:	03053303          	ld	t1,48(a0)
    800000ec:	03853383          	ld	t2,56(a0)
    800000f0:	04053403          	ld	s0,64(a0)
    800000f4:	04853483          	ld	s1,72(a0)
    800000f8:	05853583          	ld	a1,88(a0)
    800000fc:	06053603          	ld	a2,96(a0)
    80000100:	06853683          	ld	a3,104(a0)
    80000104:	07053703          	ld	a4,112(a0)
    80000108:	07853783          	ld	a5,120(a0)
    8000010c:	08053803          	ld	a6,128(a0)
    80000110:	08853883          	ld	a7,136(a0)
    80000114:	09053903          	ld	s2,144(a0)
    80000118:	09853983          	ld	s3,152(a0)
    8000011c:	0a053a03          	ld	s4,160(a0)
    80000120:	0a853a83          	ld	s5,168(a0)
    80000124:	0b053b03          	ld	s6,176(a0)
    80000128:	0b853b83          	ld	s7,184(a0)
    8000012c:	0c053c03          	ld	s8,192(a0)
    80000130:	0c853c83          	ld	s9,200(a0)
    80000134:	0d053d03          	ld	s10,208(a0)
    80000138:	0d853d83          	ld	s11,216(a0)
    8000013c:	0e053e03          	ld	t3,224(a0)
    80000140:	0e853e83          	ld	t4,232(a0)
    80000144:	0f053f03          	ld	t5,240(a0)
    80000148:	0f853f83          	ld	t6,248(a0)
    8000014c:	05053503          	ld	a0,80(a0)
    80000150:	10200073          	sret

0000000080000154 <trap_entry>:
    80000154:	14011173          	csrrw	sp,sscratch,sp
    80000158:	00113423          	sd	ra,8(sp)
    8000015c:	00313c23          	sd	gp,24(sp)
    80000160:	02413023          	sd	tp,32(sp)
    80000164:	02513423          	sd	t0,40(sp)
    80000168:	02613823          	sd	t1,48(sp)
    8000016c:	02713c23          	sd	t2,56(sp)
    80000170:	04813023          	sd	s0,64(sp)
    80000174:	04913423          	sd	s1,72(sp)
    80000178:	04a13823          	sd	a0,80(sp)
    8000017c:	04b13c23          	sd	a1,88(sp)
    80000180:	06c13023          	sd	a2,96(sp)
    80000184:	06d13423          	sd	a3,104(sp)
    80000188:	06e13823          	sd	a4,112(sp)
    8000018c:	06f13c23          	sd	a5,120(sp)
    80000190:	09013023          	sd	a6,128(sp)
    80000194:	09113423          	sd	a7,136(sp)
    80000198:	09213823          	sd	s2,144(sp)
    8000019c:	09313c23          	sd	s3,152(sp)
    800001a0:	0b413023          	sd	s4,160(sp)
    800001a4:	0b513423          	sd	s5,168(sp)
    800001a8:	0b613823          	sd	s6,176(sp)
    800001ac:	0b713c23          	sd	s7,184(sp)
    800001b0:	0d813023          	sd	s8,192(sp)
    800001b4:	0d913423          	sd	s9,200(sp)
    800001b8:	0da13823          	sd	s10,208(sp)
    800001bc:	0db13c23          	sd	s11,216(sp)
    800001c0:	0fc13023          	sd	t3,224(sp)
    800001c4:	0fd13423          	sd	t4,232(sp)
    800001c8:	0fe13823          	sd	t5,240(sp)
    800001cc:	0ff13c23          	sd	t6,248(sp)
    800001d0:	140112f3          	csrrw	t0,sscratch,sp
    800001d4:	00513823          	sd	t0,16(sp)
    800001d8:	100022f3          	csrr	t0,sstatus
    800001dc:	10513023          	sd	t0,256(sp)
    800001e0:	141022f3          	csrr	t0,sepc
    800001e4:	10513423          	sd	t0,264(sp)
    800001e8:	143022f3          	csrr	t0,sbadaddr
    800001ec:	10513823          	sd	t0,272(sp)
    800001f0:	142022f3          	csrr	t0,scause
    800001f4:	10513c23          	sd	t0,280(sp)
    800001f8:	00010513          	mv	a0,sp
    800001fc:	3ec0206f          	j	800025e8 <handle_trap>
    80000200:	00              	Address 0x0000000080000200 is out of bounds.


Disassembly of section .text:

0000000080002000 <memcpy>:
    80002000:	00c5e7b3          	or	a5,a1,a2
    80002004:	00f567b3          	or	a5,a0,a5
    80002008:	0077f793          	andi	a5,a5,7
    8000200c:	00c506b3          	add	a3,a0,a2
    80002010:	02078463          	beqz	a5,80002038 <memcpy+0x38>
    80002014:	00c58633          	add	a2,a1,a2
    80002018:	00050793          	mv	a5,a0
    8000201c:	02d57e63          	bleu	a3,a0,80002058 <memcpy+0x58>
    80002020:	00158593          	addi	a1,a1,1
    80002024:	fff5c703          	lbu	a4,-1(a1)
    80002028:	00178793          	addi	a5,a5,1
    8000202c:	fee78fa3          	sb	a4,-1(a5)
    80002030:	feb618e3          	bne	a2,a1,80002020 <memcpy+0x20>
    80002034:	00008067          	ret
    80002038:	fed57ee3          	bleu	a3,a0,80002034 <memcpy+0x34>
    8000203c:	00050793          	mv	a5,a0
    80002040:	00858593          	addi	a1,a1,8
    80002044:	ff85b703          	ld	a4,-8(a1)
    80002048:	00878793          	addi	a5,a5,8
    8000204c:	fee7bc23          	sd	a4,-8(a5)
    80002050:	fed7e8e3          	bltu	a5,a3,80002040 <memcpy+0x40>
    80002054:	00008067          	ret
    80002058:	00008067          	ret

000000008000205c <memset>:
    8000205c:	00c567b3          	or	a5,a0,a2
    80002060:	0077f793          	andi	a5,a5,7
    80002064:	00c50633          	add	a2,a0,a2
    80002068:	0ff5f593          	andi	a1,a1,255
    8000206c:	00078e63          	beqz	a5,80002088 <memset+0x2c>
    80002070:	00050793          	mv	a5,a0
    80002074:	04c57263          	bleu	a2,a0,800020b8 <memset+0x5c>
    80002078:	00178793          	addi	a5,a5,1
    8000207c:	feb78fa3          	sb	a1,-1(a5)
    80002080:	fef61ce3          	bne	a2,a5,80002078 <memset+0x1c>
    80002084:	00008067          	ret
    80002088:	00859793          	slli	a5,a1,0x8
    8000208c:	00b7e5b3          	or	a1,a5,a1
    80002090:	01059793          	slli	a5,a1,0x10
    80002094:	00b7e7b3          	or	a5,a5,a1
    80002098:	02079593          	slli	a1,a5,0x20
    8000209c:	00f5e5b3          	or	a1,a1,a5
    800020a0:	fec572e3          	bleu	a2,a0,80002084 <memset+0x28>
    800020a4:	00050793          	mv	a5,a0
    800020a8:	00878793          	addi	a5,a5,8
    800020ac:	feb7bc23          	sd	a1,-8(a5)
    800020b0:	fec7ece3          	bltu	a5,a2,800020a8 <memset+0x4c>
    800020b4:	00008067          	ret
    800020b8:	00008067          	ret

00000000800020bc <strlen>:
    800020bc:	00054783          	lbu	a5,0(a0)
    800020c0:	00050713          	mv	a4,a0
    800020c4:	00078c63          	beqz	a5,800020dc <strlen+0x20>
    800020c8:	00150513          	addi	a0,a0,1
    800020cc:	00054783          	lbu	a5,0(a0)
    800020d0:	fe079ce3          	bnez	a5,800020c8 <strlen+0xc>
    800020d4:	40e50533          	sub	a0,a0,a4
    800020d8:	00008067          	ret
    800020dc:	00000513          	li	a0,0
    800020e0:	00008067          	ret

00000000800020e4 <strcmp>:
    800020e4:	00150513          	addi	a0,a0,1
    800020e8:	fff54783          	lbu	a5,-1(a0)
    800020ec:	00158593          	addi	a1,a1,1
    800020f0:	fff5c703          	lbu	a4,-1(a1)
    800020f4:	00078a63          	beqz	a5,80002108 <strcmp+0x24>
    800020f8:	fee786e3          	beq	a5,a4,800020e4 <strcmp>
    800020fc:	0007851b          	sext.w	a0,a5
    80002100:	40e5053b          	subw	a0,a0,a4
    80002104:	00008067          	ret
    80002108:	00000513          	li	a0,0
    8000210c:	ff5ff06f          	j	80002100 <strcmp+0x1c>

0000000080002110 <memcmp>:
    80002110:	00b567b3          	or	a5,a0,a1
    80002114:	0077f793          	andi	a5,a5,7
    80002118:	04079263          	bnez	a5,8000215c <memcmp+0x4c>
    8000211c:	ff867693          	andi	a3,a2,-8
    80002120:	00d506b3          	add	a3,a0,a3
    80002124:	00050813          	mv	a6,a0
    80002128:	02d57a63          	bleu	a3,a0,8000215c <memcmp+0x4c>
    8000212c:	0005b703          	ld	a4,0(a1)
    80002130:	00053783          	ld	a5,0(a0)
    80002134:	00f70a63          	beq	a4,a5,80002148 <memcmp+0x38>
    80002138:	0240006f          	j	8000215c <memcmp+0x4c>
    8000213c:	00053703          	ld	a4,0(a0)
    80002140:	0005b783          	ld	a5,0(a1)
    80002144:	00f71863          	bne	a4,a5,80002154 <memcmp+0x44>
    80002148:	00850513          	addi	a0,a0,8
    8000214c:	00858593          	addi	a1,a1,8
    80002150:	fed566e3          	bltu	a0,a3,8000213c <memcmp+0x2c>
    80002154:	41050833          	sub	a6,a0,a6
    80002158:	41060633          	sub	a2,a2,a6
    8000215c:	00c58633          	add	a2,a1,a2
    80002160:	0140006f          	j	80002174 <memcmp+0x64>
    80002164:	00158593          	addi	a1,a1,1
    80002168:	fff54783          	lbu	a5,-1(a0)
    8000216c:	fff5c703          	lbu	a4,-1(a1)
    80002170:	00e79a63          	bne	a5,a4,80002184 <memcmp+0x74>
    80002174:	00150513          	addi	a0,a0,1
    80002178:	fec596e3          	bne	a1,a2,80002164 <memcmp+0x54>
    8000217c:	00000513          	li	a0,0
    80002180:	00008067          	ret
    80002184:	40e7853b          	subw	a0,a5,a4
    80002188:	00008067          	ret

000000008000218c <strcpy>:
    8000218c:	00050793          	mv	a5,a0
    80002190:	00158593          	addi	a1,a1,1
    80002194:	fff5c703          	lbu	a4,-1(a1)
    80002198:	00178793          	addi	a5,a5,1
    8000219c:	fee78fa3          	sb	a4,-1(a5)
    800021a0:	fe0718e3          	bnez	a4,80002190 <strcpy+0x4>
    800021a4:	00008067          	ret

00000000800021a8 <atol>:
    800021a8:	00054783          	lbu	a5,0(a0)
    800021ac:	02000713          	li	a4,32
    800021b0:	00e79863          	bne	a5,a4,800021c0 <atol+0x18>
    800021b4:	00150513          	addi	a0,a0,1
    800021b8:	00054783          	lbu	a5,0(a0)
    800021bc:	fee78ce3          	beq	a5,a4,800021b4 <atol+0xc>
    800021c0:	fd57871b          	addiw	a4,a5,-43
    800021c4:	0fd77713          	andi	a4,a4,253
    800021c8:	04070263          	beqz	a4,8000220c <atol+0x64>
    800021cc:	00054683          	lbu	a3,0(a0)
    800021d0:	00050793          	mv	a5,a0
    800021d4:	00000613          	li	a2,0
    800021d8:	04068863          	beqz	a3,80002228 <atol+0x80>
    800021dc:	00000513          	li	a0,0
    800021e0:	00178793          	addi	a5,a5,1
    800021e4:	fd06859b          	addiw	a1,a3,-48
    800021e8:	00251713          	slli	a4,a0,0x2
    800021ec:	0007c683          	lbu	a3,0(a5)
    800021f0:	00a70533          	add	a0,a4,a0
    800021f4:	00151513          	slli	a0,a0,0x1
    800021f8:	00a58533          	add	a0,a1,a0
    800021fc:	fe0692e3          	bnez	a3,800021e0 <atol+0x38>
    80002200:	00060463          	beqz	a2,80002208 <atol+0x60>
    80002204:	40a00533          	neg	a0,a0
    80002208:	00008067          	ret
    8000220c:	00154683          	lbu	a3,1(a0)
    80002210:	fd378793          	addi	a5,a5,-45
    80002214:	0017b613          	seqz	a2,a5
    80002218:	00150793          	addi	a5,a0,1
    8000221c:	fc0690e3          	bnez	a3,800021dc <atol+0x34>
    80002220:	00000513          	li	a0,0
    80002224:	fddff06f          	j	80002200 <atol+0x58>
    80002228:	00000513          	li	a0,0
    8000222c:	00008067          	ret
    80002230:	0000                	unimp
    80002232:	0000                	unimp

0000000080002234 <terminate>:
    80002234:	fffff797          	auipc	a5,0xfffff
    80002238:	dcc78793          	addi	a5,a5,-564 # 80001000 <tohost>
    8000223c:	0007b703          	ld	a4,0(a5)
    80002240:	00070a63          	beqz	a4,80002254 <terminate+0x20>
    80002244:	fffff717          	auipc	a4,0xfffff
    80002248:	de073e23          	sd	zero,-516(a4) # 80001040 <fromhost>
    8000224c:	0007b703          	ld	a4,0(a5)
    80002250:	fe071ae3          	bnez	a4,80002244 <terminate+0x10>
    80002254:	fffff797          	auipc	a5,0xfffff
    80002258:	daa7b623          	sd	a0,-596(a5) # 80001000 <tohost>
    8000225c:	0000006f          	j	8000225c <terminate+0x28>

0000000080002260 <wtf>:
    80002260:	ff010113          	addi	sp,sp,-16
    80002264:	34900513          	li	a0,841
    80002268:	00113423          	sd	ra,8(sp)
    8000226c:	00000097          	auipc	ra,0x0
    80002270:	fc8080e7          	jalr	-56(ra) # 80002234 <terminate>

0000000080002274 <printhex>:
    80002274:	fe010113          	addi	sp,sp,-32
    80002278:	01710713          	addi	a4,sp,23
    8000227c:	00710813          	addi	a6,sp,7
    80002280:	00900593          	li	a1,9
    80002284:	00f57793          	andi	a5,a0,15
    80002288:	03000613          	li	a2,48
    8000228c:	0ff7f693          	andi	a3,a5,255
    80002290:	00f5f463          	bleu	a5,a1,80002298 <printhex+0x24>
    80002294:	05700613          	li	a2,87
    80002298:	00c687bb          	addw	a5,a3,a2
    8000229c:	00f70023          	sb	a5,0(a4)
    800022a0:	fff70713          	addi	a4,a4,-1
    800022a4:	00455513          	srli	a0,a0,0x4
    800022a8:	fd071ee3          	bne	a4,a6,80002284 <printhex+0x10>
    800022ac:	00814783          	lbu	a5,8(sp)
    800022b0:	00010c23          	sb	zero,24(sp)
    800022b4:	04078463          	beqz	a5,800022fc <printhex+0x88>
    800022b8:	10100513          	li	a0,257
    800022bc:	00810693          	addi	a3,sp,8
    800022c0:	fffff717          	auipc	a4,0xfffff
    800022c4:	d4070713          	addi	a4,a4,-704 # 80001000 <tohost>
    800022c8:	03051513          	slli	a0,a0,0x30
    800022cc:	00073583          	ld	a1,0(a4)
    800022d0:	00168693          	addi	a3,a3,1
    800022d4:	00a7e633          	or	a2,a5,a0
    800022d8:	00058a63          	beqz	a1,800022ec <printhex+0x78>
    800022dc:	fffff797          	auipc	a5,0xfffff
    800022e0:	d607b223          	sd	zero,-668(a5) # 80001040 <fromhost>
    800022e4:	00073783          	ld	a5,0(a4)
    800022e8:	fe079ae3          	bnez	a5,800022dc <printhex+0x68>
    800022ec:	0006c783          	lbu	a5,0(a3)
    800022f0:	fffff597          	auipc	a1,0xfffff
    800022f4:	d0c5b823          	sd	a2,-752(a1) # 80001000 <tohost>
    800022f8:	fc079ae3          	bnez	a5,800022cc <printhex+0x58>
    800022fc:	02010113          	addi	sp,sp,32
    80002300:	00008067          	ret

0000000080002304 <handle_fault>:
    80002304:	fb010113          	addi	sp,sp,-80
    80002308:	00100793          	li	a5,1
    8000230c:	02913c23          	sd	s1,56(sp)
    80002310:	fffff4b7          	lui	s1,0xfffff
    80002314:	00f12223          	sw	a5,4(sp)
    80002318:	04113423          	sd	ra,72(sp)
    8000231c:	04813023          	sd	s0,64(sp)
    80002320:	03213823          	sd	s2,48(sp)
    80002324:	03313423          	sd	s3,40(sp)
    80002328:	03413023          	sd	s4,32(sp)
    8000232c:	01513c23          	sd	s5,24(sp)
    80002330:	00013423          	sd	zero,8(sp)
    80002334:	00950733          	add	a4,a0,s1
    80002338:	0003e7b7          	lui	a5,0x3e
    8000233c:	16f77263          	bleu	a5,a4,800024a0 <handle_fault+0x19c>
    80002340:	00c55993          	srli	s3,a0,0xc
    80002344:	60098a13          	addi	s4,s3,1536
    80002348:	00002917          	auipc	s2,0x2
    8000234c:	cb890913          	addi	s2,s2,-840 # 80004000 <begin_signature>
    80002350:	003a1793          	slli	a5,s4,0x3
    80002354:	00f907b3          	add	a5,s2,a5
    80002358:	0007b703          	ld	a4,0(a5) # 3e000 <_start-0x7ffc2000>
    8000235c:	009574b3          	and	s1,a0,s1
    80002360:	0e071263          	bnez	a4,80002444 <handle_fault+0x140>
    80002364:	00006797          	auipc	a5,0x6
    80002368:	48478793          	addi	a5,a5,1156 # 800087e8 <freelist_head>
    8000236c:	0007ba83          	ld	s5,0(a5)
    80002370:	220a8463          	beqz	s5,80002598 <handle_fault+0x294>
    80002374:	008ab783          	ld	a5,8(s5)
    80002378:	00006717          	auipc	a4,0x6
    8000237c:	46870713          	addi	a4,a4,1128 # 800087e0 <freelist_tail>
    80002380:	00073703          	ld	a4,0(a4)
    80002384:	00006697          	auipc	a3,0x6
    80002388:	46f6b223          	sd	a5,1124(a3) # 800087e8 <freelist_head>
    8000238c:	10e78463          	beq	a5,a4,80002494 <handle_fault+0x190>
    80002390:	00410613          	addi	a2,sp,4
    80002394:	00810593          	addi	a1,sp,8
    80002398:	00048513          	mv	a0,s1
    8000239c:	000ab403          	ld	s0,0(s5)
    800023a0:	798000ef          	jal	ra,80002b38 <pf_filter>
    800023a4:	0c051c63          	bnez	a0,8000247c <handle_fault+0x178>
    800023a8:	00c45413          	srli	s0,s0,0xc
    800023ac:	00a41413          	slli	s0,s0,0xa
    800023b0:	01f46413          	ori	s0,s0,31
    800023b4:	003a1a13          	slli	s4,s4,0x3
    800023b8:	01490933          	add	s2,s2,s4
    800023bc:	0c046793          	ori	a5,s0,192
    800023c0:	00f93023          	sd	a5,0(s2)
    800023c4:	12048073          	sfence.vma	s1
    800023c8:	00006797          	auipc	a5,0x6
    800023cc:	02878793          	addi	a5,a5,40 # 800083f0 <user_mapping>
    800023d0:	00499993          	slli	s3,s3,0x4
    800023d4:	013789b3          	add	s3,a5,s3
    800023d8:	0009b783          	ld	a5,0(s3)
    800023dc:	10079e63          	bnez	a5,800024f8 <handle_fault+0x1f4>
    800023e0:	000ab783          	ld	a5,0(s5)
    800023e4:	00f9b023          	sd	a5,0(s3)
    800023e8:	008ab783          	ld	a5,8(s5)
    800023ec:	00f9b423          	sd	a5,8(s3)
    800023f0:	000409b7          	lui	s3,0x40
    800023f4:	1009a9f3          	csrrs	s3,sstatus,s3
    800023f8:	ffe005b7          	lui	a1,0xffe00
    800023fc:	00001637          	lui	a2,0x1
    80002400:	00b485b3          	add	a1,s1,a1
    80002404:	00048513          	mv	a0,s1
    80002408:	00000097          	auipc	ra,0x0
    8000240c:	bf8080e7          	jalr	-1032(ra) # 80002000 <memcpy>
    80002410:	10099073          	csrw	sstatus,s3
    80002414:	00893023          	sd	s0,0(s2)
    80002418:	12048073          	sfence.vma	s1
    8000241c:	0000100f          	fence.i
    80002420:	04813083          	ld	ra,72(sp)
    80002424:	04013403          	ld	s0,64(sp)
    80002428:	03813483          	ld	s1,56(sp)
    8000242c:	03013903          	ld	s2,48(sp)
    80002430:	02813983          	ld	s3,40(sp)
    80002434:	02013a03          	ld	s4,32(sp)
    80002438:	01813a83          	ld	s5,24(sp)
    8000243c:	05010113          	addi	sp,sp,80
    80002440:	00008067          	ret
    80002444:	04077693          	andi	a3,a4,64
    80002448:	00069a63          	bnez	a3,8000245c <handle_fault+0x158>
    8000244c:	04076713          	ori	a4,a4,64
    80002450:	00e7b023          	sd	a4,0(a5)
    80002454:	12048073          	sfence.vma	s1
    80002458:	fc9ff06f          	j	80002420 <handle_fault+0x11c>
    8000245c:	08077693          	andi	a3,a4,128
    80002460:	0e069463          	bnez	a3,80002548 <handle_fault+0x244>
    80002464:	00f00693          	li	a3,15
    80002468:	0ed59063          	bne	a1,a3,80002548 <handle_fault+0x244>
    8000246c:	08076713          	ori	a4,a4,128
    80002470:	00e7b023          	sd	a4,0(a5)
    80002474:	12048073          	sfence.vma	s1
    80002478:	fa9ff06f          	j	80002420 <handle_fault+0x11c>
    8000247c:	000ab403          	ld	s0,0(s5)
    80002480:	00813783          	ld	a5,8(sp)
    80002484:	00c45413          	srli	s0,s0,0xc
    80002488:	00a41413          	slli	s0,s0,0xa
    8000248c:	00f46433          	or	s0,s0,a5
    80002490:	f25ff06f          	j	800023b4 <handle_fault+0xb0>
    80002494:	00006797          	auipc	a5,0x6
    80002498:	3407b623          	sd	zero,844(a5) # 800087e0 <freelist_tail>
    8000249c:	ef5ff06f          	j	80002390 <handle_fault+0x8c>
    800024a0:	10100613          	li	a2,257
    800024a4:	04100713          	li	a4,65
    800024a8:	00001697          	auipc	a3,0x1
    800024ac:	59868693          	addi	a3,a3,1432 # 80003a40 <pass+0x10>
    800024b0:	fffff797          	auipc	a5,0xfffff
    800024b4:	b5078793          	addi	a5,a5,-1200 # 80001000 <tohost>
    800024b8:	03061613          	slli	a2,a2,0x30
    800024bc:	0007b503          	ld	a0,0(a5)
    800024c0:	00168693          	addi	a3,a3,1
    800024c4:	00c765b3          	or	a1,a4,a2
    800024c8:	00050a63          	beqz	a0,800024dc <handle_fault+0x1d8>
    800024cc:	fffff717          	auipc	a4,0xfffff
    800024d0:	b6073a23          	sd	zero,-1164(a4) # 80001040 <fromhost>
    800024d4:	0007b703          	ld	a4,0(a5)
    800024d8:	fe071ae3          	bnez	a4,800024cc <handle_fault+0x1c8>
    800024dc:	0006c703          	lbu	a4,0(a3)
    800024e0:	fffff517          	auipc	a0,0xfffff
    800024e4:	b2b53023          	sd	a1,-1248(a0) # 80001000 <tohost>
    800024e8:	fc071ae3          	bnez	a4,800024bc <handle_fault+0x1b8>
    800024ec:	00300513          	li	a0,3
    800024f0:	00000097          	auipc	ra,0x0
    800024f4:	d44080e7          	jalr	-700(ra) # 80002234 <terminate>
    800024f8:	10100693          	li	a3,257
    800024fc:	04100713          	li	a4,65
    80002500:	00001617          	auipc	a2,0x1
    80002504:	5f060613          	addi	a2,a2,1520 # 80003af0 <pass+0xc0>
    80002508:	fffff797          	auipc	a5,0xfffff
    8000250c:	af878793          	addi	a5,a5,-1288 # 80001000 <tohost>
    80002510:	03069693          	slli	a3,a3,0x30
    80002514:	0007b503          	ld	a0,0(a5)
    80002518:	00160613          	addi	a2,a2,1
    8000251c:	00d765b3          	or	a1,a4,a3
    80002520:	00050a63          	beqz	a0,80002534 <handle_fault+0x230>
    80002524:	fffff717          	auipc	a4,0xfffff
    80002528:	b0073e23          	sd	zero,-1252(a4) # 80001040 <fromhost>
    8000252c:	0007b703          	ld	a4,0(a5)
    80002530:	fe071ae3          	bnez	a4,80002524 <handle_fault+0x220>
    80002534:	00064703          	lbu	a4,0(a2)
    80002538:	fffff517          	auipc	a0,0xfffff
    8000253c:	acb53423          	sd	a1,-1336(a0) # 80001000 <tohost>
    80002540:	fc071ae3          	bnez	a4,80002514 <handle_fault+0x210>
    80002544:	fa9ff06f          	j	800024ec <handle_fault+0x1e8>
    80002548:	10100613          	li	a2,257
    8000254c:	04100713          	li	a4,65
    80002550:	00001697          	auipc	a3,0x1
    80002554:	54068693          	addi	a3,a3,1344 # 80003a90 <pass+0x60>
    80002558:	fffff797          	auipc	a5,0xfffff
    8000255c:	aa878793          	addi	a5,a5,-1368 # 80001000 <tohost>
    80002560:	03061613          	slli	a2,a2,0x30
    80002564:	0007b503          	ld	a0,0(a5)
    80002568:	00168693          	addi	a3,a3,1
    8000256c:	00c765b3          	or	a1,a4,a2
    80002570:	00050a63          	beqz	a0,80002584 <handle_fault+0x280>
    80002574:	fffff717          	auipc	a4,0xfffff
    80002578:	ac073623          	sd	zero,-1332(a4) # 80001040 <fromhost>
    8000257c:	0007b703          	ld	a4,0(a5)
    80002580:	fe071ae3          	bnez	a4,80002574 <handle_fault+0x270>
    80002584:	0006c703          	lbu	a4,0(a3)
    80002588:	fffff517          	auipc	a0,0xfffff
    8000258c:	a6b53c23          	sd	a1,-1416(a0) # 80001000 <tohost>
    80002590:	fc071ae3          	bnez	a4,80002564 <handle_fault+0x260>
    80002594:	f59ff06f          	j	800024ec <handle_fault+0x1e8>
    80002598:	10100693          	li	a3,257
    8000259c:	04100713          	li	a4,65
    800025a0:	00001617          	auipc	a2,0x1
    800025a4:	53860613          	addi	a2,a2,1336 # 80003ad8 <pass+0xa8>
    800025a8:	fffff797          	auipc	a5,0xfffff
    800025ac:	a5878793          	addi	a5,a5,-1448 # 80001000 <tohost>
    800025b0:	03069693          	slli	a3,a3,0x30
    800025b4:	0007b503          	ld	a0,0(a5)
    800025b8:	00160613          	addi	a2,a2,1
    800025bc:	00d765b3          	or	a1,a4,a3
    800025c0:	00050a63          	beqz	a0,800025d4 <handle_fault+0x2d0>
    800025c4:	fffff717          	auipc	a4,0xfffff
    800025c8:	a6073e23          	sd	zero,-1412(a4) # 80001040 <fromhost>
    800025cc:	0007b703          	ld	a4,0(a5)
    800025d0:	fe071ae3          	bnez	a4,800025c4 <handle_fault+0x2c0>
    800025d4:	00064703          	lbu	a4,0(a2)
    800025d8:	fffff517          	auipc	a0,0xfffff
    800025dc:	a2b53423          	sd	a1,-1496(a0) # 80001000 <tohost>
    800025e0:	fc071ae3          	bnez	a4,800025b4 <handle_fault+0x2b0>
    800025e4:	f09ff06f          	j	800024ec <handle_fault+0x1e8>

00000000800025e8 <handle_trap>:
    800025e8:	f9010113          	addi	sp,sp,-112
    800025ec:	06813023          	sd	s0,96(sp)
    800025f0:	06113423          	sd	ra,104(sp)
    800025f4:	04913c23          	sd	s1,88(sp)
    800025f8:	05213823          	sd	s2,80(sp)
    800025fc:	05313423          	sd	s3,72(sp)
    80002600:	05413023          	sd	s4,64(sp)
    80002604:	03513c23          	sd	s5,56(sp)
    80002608:	03613823          	sd	s6,48(sp)
    8000260c:	03713423          	sd	s7,40(sp)
    80002610:	03813023          	sd	s8,32(sp)
    80002614:	01913c23          	sd	s9,24(sp)
    80002618:	01a13823          	sd	s10,16(sp)
    8000261c:	01b13423          	sd	s11,8(sp)
    80002620:	00050413          	mv	s0,a0
    80002624:	00000097          	auipc	ra,0x0
    80002628:	50c080e7          	jalr	1292(ra) # 80002b30 <trap_filter>
    8000262c:	0e051863          	bnez	a0,8000271c <handle_trap+0x134>
    80002630:	11843583          	ld	a1,280(s0)
    80002634:	00800793          	li	a5,8
    80002638:	14f58663          	beq	a1,a5,80002784 <handle_trap+0x19c>
    8000263c:	00200793          	li	a5,2
    80002640:	06f58463          	beq	a1,a5,800026a8 <handle_trap+0xc0>
    80002644:	ff458793          	addi	a5,a1,-12 # ffffffffffdffff4 <_end+0xffffffff7fdf7804>
    80002648:	00100713          	li	a4,1
    8000264c:	00f77663          	bleu	a5,a4,80002658 <handle_trap+0x70>
    80002650:	00f00793          	li	a5,15
    80002654:	20f59063          	bne	a1,a5,80002854 <handle_trap+0x26c>
    80002658:	11043503          	ld	a0,272(s0)
    8000265c:	00000097          	auipc	ra,0x0
    80002660:	ca8080e7          	jalr	-856(ra) # 80002304 <handle_fault>
    80002664:	00040513          	mv	a0,s0
    80002668:	06013403          	ld	s0,96(sp)
    8000266c:	06813083          	ld	ra,104(sp)
    80002670:	05813483          	ld	s1,88(sp)
    80002674:	05013903          	ld	s2,80(sp)
    80002678:	04813983          	ld	s3,72(sp)
    8000267c:	04013a03          	ld	s4,64(sp)
    80002680:	03813a83          	ld	s5,56(sp)
    80002684:	03013b03          	ld	s6,48(sp)
    80002688:	02813b83          	ld	s7,40(sp)
    8000268c:	02013c03          	ld	s8,32(sp)
    80002690:	01813c83          	ld	s9,24(sp)
    80002694:	01013d03          	ld	s10,16(sp)
    80002698:	00813d83          	ld	s11,8(sp)
    8000269c:	07010113          	addi	sp,sp,112
    800026a0:	ffffe317          	auipc	t1,0xffffe
    800026a4:	a2c30067          	jr	-1492(t1) # 800000cc <pop_tf>
    800026a8:	10843703          	ld	a4,264(s0)
    800026ac:	00377793          	andi	a5,a4,3
    800026b0:	08079263          	bnez	a5,80002734 <handle_trap+0x14c>
    800026b4:	008007ef          	jal	a5,800026bc <handle_trap+0xd4>
    800026b8:	00301073          	fssr	zero
    800026bc:	00072703          	lw	a4,0(a4)
    800026c0:	0007a783          	lw	a5,0(a5)
    800026c4:	06f70463          	beq	a4,a5,8000272c <handle_trap+0x144>
    800026c8:	10100513          	li	a0,257
    800026cc:	04100793          	li	a5,65
    800026d0:	00001697          	auipc	a3,0x1
    800026d4:	4f868693          	addi	a3,a3,1272 # 80003bc8 <pass+0x198>
    800026d8:	fffff717          	auipc	a4,0xfffff
    800026dc:	92870713          	addi	a4,a4,-1752 # 80001000 <tohost>
    800026e0:	03051513          	slli	a0,a0,0x30
    800026e4:	00073583          	ld	a1,0(a4)
    800026e8:	00168693          	addi	a3,a3,1
    800026ec:	00a7e633          	or	a2,a5,a0
    800026f0:	00058a63          	beqz	a1,80002704 <handle_trap+0x11c>
    800026f4:	fffff797          	auipc	a5,0xfffff
    800026f8:	9407b623          	sd	zero,-1716(a5) # 80001040 <fromhost>
    800026fc:	00073783          	ld	a5,0(a4)
    80002700:	fe079ae3          	bnez	a5,800026f4 <handle_trap+0x10c>
    80002704:	0006c783          	lbu	a5,0(a3)
    80002708:	fffff597          	auipc	a1,0xfffff
    8000270c:	8ec5bc23          	sd	a2,-1800(a1) # 80001000 <tohost>
    80002710:	fc079ae3          	bnez	a5,800026e4 <handle_trap+0xfc>
    80002714:	00300513          	li	a0,3
    80002718:	b1dff0ef          	jal	ra,80002234 <terminate>
    8000271c:	00040513          	mv	a0,s0
    80002720:	ffffe097          	auipc	ra,0xffffe
    80002724:	9ac080e7          	jalr	-1620(ra) # 800000cc <pop_tf>
    80002728:	f09ff06f          	j	80002630 <handle_trap+0x48>
    8000272c:	00100513          	li	a0,1
    80002730:	b05ff0ef          	jal	ra,80002234 <terminate>
    80002734:	10100793          	li	a5,257
    80002738:	00001617          	auipc	a2,0x1
    8000273c:	46860613          	addi	a2,a2,1128 # 80003ba0 <pass+0x170>
    80002740:	04100693          	li	a3,65
    80002744:	fffff717          	auipc	a4,0xfffff
    80002748:	8bc70713          	addi	a4,a4,-1860 # 80001000 <tohost>
    8000274c:	03079793          	slli	a5,a5,0x30
    80002750:	00073503          	ld	a0,0(a4)
    80002754:	00160613          	addi	a2,a2,1
    80002758:	00f6e5b3          	or	a1,a3,a5
    8000275c:	00050a63          	beqz	a0,80002770 <handle_trap+0x188>
    80002760:	fffff697          	auipc	a3,0xfffff
    80002764:	8e06b023          	sd	zero,-1824(a3) # 80001040 <fromhost>
    80002768:	00073683          	ld	a3,0(a4)
    8000276c:	fe069ae3          	bnez	a3,80002760 <handle_trap+0x178>
    80002770:	00064683          	lbu	a3,0(a2)
    80002774:	fffff517          	auipc	a0,0xfffff
    80002778:	88b53623          	sd	a1,-1908(a0) # 80001000 <tohost>
    8000277c:	fc069ae3          	bnez	a3,80002750 <handle_trap+0x168>
    80002780:	f95ff06f          	j	80002714 <handle_trap+0x12c>
    80002784:	05042983          	lw	s3,80(s0)
    80002788:	00006d17          	auipc	s10,0x6
    8000278c:	c68d0d13          	addi	s10,s10,-920 # 800083f0 <user_mapping>
    80002790:	00001437          	lui	s0,0x1
    80002794:	00002b97          	auipc	s7,0x2
    80002798:	86cb8b93          	addi	s7,s7,-1940 # 80004000 <begin_signature>
    8000279c:	00040b37          	lui	s6,0x40
    800027a0:	ffe00ab7          	lui	s5,0xffe00
    800027a4:	00006a17          	auipc	s4,0x6
    800027a8:	03ca0a13          	addi	s4,s4,60 # 800087e0 <freelist_tail>
    800027ac:	0003f937          	lui	s2,0x3f
    800027b0:	01c0006f          	j	800027cc <handle_trap+0x1e4>
    800027b4:	00f73423          	sd	a5,8(a4)
    800027b8:	00006717          	auipc	a4,0x6
    800027bc:	02f73423          	sd	a5,40(a4) # 800087e0 <freelist_tail>
    800027c0:	000017b7          	lui	a5,0x1
    800027c4:	00f40433          	add	s0,s0,a5
    800027c8:	15240663          	beq	s0,s2,80002914 <handle_trap+0x32c>
    800027cc:	00c45793          	srli	a5,s0,0xc
    800027d0:	00479493          	slli	s1,a5,0x4
    800027d4:	009d0733          	add	a4,s10,s1
    800027d8:	00073703          	ld	a4,0(a4)
    800027dc:	fe0702e3          	beqz	a4,800027c0 <handle_trap+0x1d8>
    800027e0:	60078793          	addi	a5,a5,1536 # 1600 <_start-0x7fffea00>
    800027e4:	00379793          	slli	a5,a5,0x3
    800027e8:	00fb87b3          	add	a5,s7,a5
    800027ec:	0007bc03          	ld	s8,0(a5)
    800027f0:	040c7793          	andi	a5,s8,64
    800027f4:	0e078463          	beqz	a5,800028dc <handle_trap+0x2f4>
    800027f8:	100b2cf3          	csrrs	s9,sstatus,s6
    800027fc:	01540db3          	add	s11,s0,s5
    80002800:	00001637          	lui	a2,0x1
    80002804:	000d8593          	mv	a1,s11
    80002808:	00040513          	mv	a0,s0
    8000280c:	905ff0ef          	jal	ra,80002110 <memcmp>
    80002810:	00050e63          	beqz	a0,8000282c <handle_trap+0x244>
    80002814:	080c7c13          	andi	s8,s8,128
    80002818:	080c0663          	beqz	s8,800028a4 <handle_trap+0x2bc>
    8000281c:	00001637          	lui	a2,0x1
    80002820:	00040593          	mv	a1,s0
    80002824:	000d8513          	mv	a0,s11
    80002828:	fd8ff0ef          	jal	ra,80002000 <memcpy>
    8000282c:	009d07b3          	add	a5,s10,s1
    80002830:	100c9073          	csrw	sstatus,s9
    80002834:	000a3703          	ld	a4,0(s4)
    80002838:	0007b023          	sd	zero,0(a5)
    8000283c:	f6071ce3          	bnez	a4,800027b4 <handle_trap+0x1cc>
    80002840:	00006717          	auipc	a4,0x6
    80002844:	faf73023          	sd	a5,-96(a4) # 800087e0 <freelist_tail>
    80002848:	00006717          	auipc	a4,0x6
    8000284c:	faf73023          	sd	a5,-96(a4) # 800087e8 <freelist_head>
    80002850:	f71ff06f          	j	800027c0 <handle_trap+0x1d8>
    80002854:	10100793          	li	a5,257
    80002858:	04100613          	li	a2,65
    8000285c:	00001697          	auipc	a3,0x1
    80002860:	39c68693          	addi	a3,a3,924 # 80003bf8 <pass+0x1c8>
    80002864:	ffffe717          	auipc	a4,0xffffe
    80002868:	79c70713          	addi	a4,a4,1948 # 80001000 <tohost>
    8000286c:	03079793          	slli	a5,a5,0x30
    80002870:	00073503          	ld	a0,0(a4)
    80002874:	00168693          	addi	a3,a3,1
    80002878:	00f665b3          	or	a1,a2,a5
    8000287c:	00050a63          	beqz	a0,80002890 <handle_trap+0x2a8>
    80002880:	ffffe617          	auipc	a2,0xffffe
    80002884:	7c063023          	sd	zero,1984(a2) # 80001040 <fromhost>
    80002888:	00073603          	ld	a2,0(a4)
    8000288c:	fe061ae3          	bnez	a2,80002880 <handle_trap+0x298>
    80002890:	0006c603          	lbu	a2,0(a3)
    80002894:	ffffe517          	auipc	a0,0xffffe
    80002898:	76b53623          	sd	a1,1900(a0) # 80001000 <tohost>
    8000289c:	fc061ae3          	bnez	a2,80002870 <handle_trap+0x288>
    800028a0:	e75ff06f          	j	80002714 <handle_trap+0x12c>
    800028a4:	10100793          	li	a5,257
    800028a8:	04100613          	li	a2,65
    800028ac:	00001697          	auipc	a3,0x1
    800028b0:	2bc68693          	addi	a3,a3,700 # 80003b68 <pass+0x138>
    800028b4:	ffffe717          	auipc	a4,0xffffe
    800028b8:	74c70713          	addi	a4,a4,1868 # 80001000 <tohost>
    800028bc:	03079793          	slli	a5,a5,0x30
    800028c0:	00168693          	addi	a3,a3,1
    800028c4:	00f665b3          	or	a1,a2,a5
    800028c8:	00073603          	ld	a2,0(a4)
    800028cc:	04060863          	beqz	a2,8000291c <handle_trap+0x334>
    800028d0:	ffffe617          	auipc	a2,0xffffe
    800028d4:	76063823          	sd	zero,1904(a2) # 80001040 <fromhost>
    800028d8:	ff1ff06f          	j	800028c8 <handle_trap+0x2e0>
    800028dc:	10100793          	li	a5,257
    800028e0:	04100613          	li	a2,65
    800028e4:	00001697          	auipc	a3,0x1
    800028e8:	24c68693          	addi	a3,a3,588 # 80003b30 <pass+0x100>
    800028ec:	ffffe717          	auipc	a4,0xffffe
    800028f0:	71470713          	addi	a4,a4,1812 # 80001000 <tohost>
    800028f4:	03079793          	slli	a5,a5,0x30
    800028f8:	00168693          	addi	a3,a3,1
    800028fc:	00f665b3          	or	a1,a2,a5
    80002900:	00073603          	ld	a2,0(a4)
    80002904:	02060663          	beqz	a2,80002930 <handle_trap+0x348>
    80002908:	ffffe617          	auipc	a2,0xffffe
    8000290c:	72063c23          	sd	zero,1848(a2) # 80001040 <fromhost>
    80002910:	ff1ff06f          	j	80002900 <handle_trap+0x318>
    80002914:	00098513          	mv	a0,s3
    80002918:	91dff0ef          	jal	ra,80002234 <terminate>
    8000291c:	0006c603          	lbu	a2,0(a3)
    80002920:	ffffe517          	auipc	a0,0xffffe
    80002924:	6eb53023          	sd	a1,1760(a0) # 80001000 <tohost>
    80002928:	f8061ce3          	bnez	a2,800028c0 <handle_trap+0x2d8>
    8000292c:	de9ff06f          	j	80002714 <handle_trap+0x12c>
    80002930:	0006c603          	lbu	a2,0(a3)
    80002934:	ffffe517          	auipc	a0,0xffffe
    80002938:	6cb53623          	sd	a1,1740(a0) # 80001000 <tohost>
    8000293c:	fa061ee3          	bnez	a2,800028f8 <handle_trap+0x310>
    80002940:	dd5ff06f          	j	80002714 <handle_trap+0x12c>

0000000080002944 <vm_boot>:
    80002944:	f14027f3          	csrr	a5,mhartid
    80002948:	18079863          	bnez	a5,80002ad8 <vm_boot+0x194>
    8000294c:	00002697          	auipc	a3,0x2
    80002950:	6b468693          	addi	a3,a3,1716 # 80005000 <begin_signature+0x1000>
    80002954:	00003717          	auipc	a4,0x3
    80002958:	6ac70713          	addi	a4,a4,1708 # 80006000 <begin_signature+0x2000>
    8000295c:	00c6d693          	srli	a3,a3,0xc
    80002960:	00c75713          	srli	a4,a4,0xc
    80002964:	00004797          	auipc	a5,0x4
    80002968:	69c78793          	addi	a5,a5,1692 # 80007000 <begin_signature+0x3000>
    8000296c:	00a69693          	slli	a3,a3,0xa
    80002970:	00a71713          	slli	a4,a4,0xa
    80002974:	0016e693          	ori	a3,a3,1
    80002978:	00176713          	ori	a4,a4,1
    8000297c:	00c7d793          	srli	a5,a5,0xc
    80002980:	00001617          	auipc	a2,0x1
    80002984:	68d63023          	sd	a3,1664(a2) # 80004000 <begin_signature>
    80002988:	00a79793          	slli	a5,a5,0xa
    8000298c:	00002697          	auipc	a3,0x2
    80002990:	66e6b623          	sd	a4,1644(a3) # 80004ff8 <begin_signature+0xff8>
    80002994:	20000737          	lui	a4,0x20000
    80002998:	ed010113          	addi	sp,sp,-304
    8000299c:	0cf70713          	addi	a4,a4,207 # 200000cf <_start-0x5fffff31>
    800029a0:	0017e793          	ori	a5,a5,1
    800029a4:	00004697          	auipc	a3,0x4
    800029a8:	64e6ba23          	sd	a4,1620(a3) # 80006ff8 <begin_signature+0x2ff8>
    800029ac:	12113423          	sd	ra,296(sp)
    800029b0:	00002717          	auipc	a4,0x2
    800029b4:	64f73823          	sd	a5,1616(a4) # 80005000 <begin_signature+0x1000>
    800029b8:	12813023          	sd	s0,288(sp)
    800029bc:	800007b7          	lui	a5,0x80000
    800029c0:	12078073          	sfence.vma	a5
    800029c4:	fff00793          	li	a5,-1
    800029c8:	01f00713          	li	a4,31
    800029cc:	00b7d793          	srli	a5,a5,0xb
    800029d0:	00000297          	auipc	t0,0x0
    800029d4:	01428293          	addi	t0,t0,20 # 800029e4 <vm_boot+0xa0>
    800029d8:	305292f3          	csrrw	t0,mtvec,t0
    800029dc:	3b079073          	csrw	pmpaddr0,a5
    800029e0:	3a071073          	csrw	pmpcfg0,a4
    800029e4:	30529073          	csrw	mtvec,t0
    800029e8:	bff00813          	li	a6,-1025
    800029ec:	01581813          	slli	a6,a6,0x15
    800029f0:	ffffd797          	auipc	a5,0xffffd
    800029f4:	76478793          	addi	a5,a5,1892 # 80000154 <trap_entry>
    800029f8:	010787b3          	add	a5,a5,a6
    800029fc:	10579073          	csrw	stvec,a5
    80002a00:	340027f3          	csrr	a5,mscratch
    80002a04:	010787b3          	add	a5,a5,a6
    80002a08:	14079073          	csrw	sscratch,a5
    80002a0c:	0000b7b7          	lui	a5,0xb
    80002a10:	1007879b          	addiw	a5,a5,256
    80002a14:	30279073          	csrw	medeleg,a5
    80002a18:	0001e7b7          	lui	a5,0x1e
    80002a1c:	6007879b          	addiw	a5,a5,1536
    80002a20:	30079073          	csrw	mstatus,a5
    80002a24:	30405073          	csrwi	mie,0
    80002a28:	00005717          	auipc	a4,0x5
    80002a2c:	5d870713          	addi	a4,a4,1496 # 80008000 <freelist_nodes>
    80002a30:	010707b3          	add	a5,a4,a6
    80002a34:	3e078693          	addi	a3,a5,992 # 1e3e0 <_start-0x7ffe1c20>
    80002a38:	00006617          	auipc	a2,0x6
    80002a3c:	daf63823          	sd	a5,-592(a2) # 800087e8 <freelist_head>
    80002a40:	000808b7          	lui	a7,0x80
    80002a44:	00006797          	auipc	a5,0x6
    80002a48:	d8d7be23          	sd	a3,-612(a5) # 800087e0 <freelist_tail>
    80002a4c:	00006317          	auipc	t1,0x6
    80002a50:	9a430313          	addi	t1,t1,-1628 # 800083f0 <user_mapping>
    80002a54:	00300793          	li	a5,3
    80002a58:	03f88893          	addi	a7,a7,63 # 8003f <_start-0x7ff7ffc1>
    80002a5c:	01080813          	addi	a6,a6,16
    80002a60:	0017d613          	srli	a2,a5,0x1
    80002a64:	011786b3          	add	a3,a5,a7
    80002a68:	00f647b3          	xor	a5,a2,a5
    80002a6c:	010705b3          	add	a1,a4,a6
    80002a70:	00c69693          	slli	a3,a3,0xc
    80002a74:	00579793          	slli	a5,a5,0x5
    80002a78:	00d73023          	sd	a3,0(a4)
    80002a7c:	00b73423          	sd	a1,8(a4)
    80002a80:	0207f793          	andi	a5,a5,32
    80002a84:	01070713          	addi	a4,a4,16
    80002a88:	00f667b3          	or	a5,a2,a5
    80002a8c:	fce31ae3          	bne	t1,a4,80002a60 <vm_boot+0x11c>
    80002a90:	00050413          	mv	s0,a0
    80002a94:	12000613          	li	a2,288
    80002a98:	00000593          	li	a1,0
    80002a9c:	00010513          	mv	a0,sp
    80002aa0:	00006797          	auipc	a5,0x6
    80002aa4:	9407b423          	sd	zero,-1720(a5) # 800083e8 <freelist_nodes+0x3e8>
    80002aa8:	fffff097          	auipc	ra,0xfffff
    80002aac:	5b4080e7          	jalr	1460(ra) # 8000205c <memset>
    80002ab0:	800007b7          	lui	a5,0x80000
    80002ab4:	00f40433          	add	s0,s0,a5
    80002ab8:	00010513          	mv	a0,sp
    80002abc:	10813423          	sd	s0,264(sp)
    80002ac0:	ffffd097          	auipc	ra,0xffffd
    80002ac4:	60c080e7          	jalr	1548(ra) # 800000cc <pop_tf>
    80002ac8:	12813083          	ld	ra,296(sp)
    80002acc:	12013403          	ld	s0,288(sp)
    80002ad0:	13010113          	addi	sp,sp,304
    80002ad4:	00008067          	ret
    80002ad8:	00100613          	li	a2,1
    80002adc:	0163a7b7          	lui	a5,0x163a
    80002ae0:	000805b7          	lui	a1,0x80
    80002ae4:	01f61513          	slli	a0,a2,0x1f
    80002ae8:	84d78793          	addi	a5,a5,-1971 # 163984d <_start-0x7e9c67b3>
    80002aec:	ffc58593          	addi	a1,a1,-4 # 7fffc <_start-0x7ff80004>
    80002af0:	03e61613          	slli	a2,a2,0x3e
    80002af4:	01c0006f          	j	80002b10 <vm_boot+0x1cc>
    80002af8:	0007202f          	amoadd.w	zero,zero,(a4)
    80002afc:	0017d713          	srli	a4,a5,0x1
    80002b00:	00e7c7b3          	xor	a5,a5,a4
    80002b04:	03e79793          	slli	a5,a5,0x3e
    80002b08:	00c7f7b3          	and	a5,a5,a2
    80002b0c:	00e7e7b3          	or	a5,a5,a4
    80002b10:	00b7f733          	and	a4,a5,a1
    80002b14:	0017f693          	andi	a3,a5,1
    80002b18:	00a70733          	add	a4,a4,a0
    80002b1c:	fc069ee3          	bnez	a3,80002af8 <vm_boot+0x1b4>
    80002b20:	00072003          	lw	zero,0(a4)
    80002b24:	fd9ff06f          	j	80002afc <vm_boot+0x1b8>
    80002b28:	0000                	unimp
    80002b2a:	0000                	unimp

0000000080002b2c <extra_boot>:
    80002b2c:	00008067          	ret

0000000080002b30 <trap_filter>:
    80002b30:	00000513          	li	a0,0
    80002b34:	00008067          	ret

0000000080002b38 <pf_filter>:
    80002b38:	00000513          	li	a0,0
    80002b3c:	00008067          	ret

0000000080002b40 <userstart>:
    80002b40:	00301073          	fssr	zero

0000000080002b44 <test_10>:
    80002b44:	00a00193          	li	gp,10
    80002b48:	002475b7          	lui	a1,0x247
    80002b4c:	8ad5859b          	addiw	a1,a1,-1875
    80002b50:	00e59593          	slli	a1,a1,0xe
    80002b54:	c4d58593          	addi	a1,a1,-947 # 246c4d <_start-0x7fdb93b3>
    80002b58:	00c59593          	slli	a1,a1,0xc
    80002b5c:	5e758593          	addi	a1,a1,1511
    80002b60:	00d59593          	slli	a1,a1,0xd
    80002b64:	ef058593          	addi	a1,a1,-272
    80002b68:	00000613          	li	a2,0
    80002b6c:	f20580d3          	fmv.d.x	ft1,a1
    80002b70:	f2060153          	fmv.d.x	ft2,a2
    80002b74:	22208053          	fsgnj.d	ft0,ft1,ft2
    80002b78:	e2000553          	fmv.x.d	a0,ft0
    80002b7c:	002473b7          	lui	t2,0x247
    80002b80:	8ad3839b          	addiw	t2,t2,-1875
    80002b84:	00e39393          	slli	t2,t2,0xe
    80002b88:	c4d38393          	addi	t2,t2,-947 # 246c4d <_start-0x7fdb93b3>
    80002b8c:	00c39393          	slli	t2,t2,0xc
    80002b90:	5e738393          	addi	t2,t2,1511
    80002b94:	00d39393          	slli	t2,t2,0xd
    80002b98:	ef038393          	addi	t2,t2,-272
    80002b9c:	687512e3          	bne	a0,t2,80003a20 <fail>

0000000080002ba0 <test_11>:
    80002ba0:	00b00193          	li	gp,11
    80002ba4:	002475b7          	lui	a1,0x247
    80002ba8:	8ad5859b          	addiw	a1,a1,-1875
    80002bac:	00e59593          	slli	a1,a1,0xe
    80002bb0:	c4d58593          	addi	a1,a1,-947 # 246c4d <_start-0x7fdb93b3>
    80002bb4:	00c59593          	slli	a1,a1,0xc
    80002bb8:	5e758593          	addi	a1,a1,1511
    80002bbc:	00d59593          	slli	a1,a1,0xd
    80002bc0:	ef058593          	addi	a1,a1,-272
    80002bc4:	fff00613          	li	a2,-1
    80002bc8:	f20580d3          	fmv.d.x	ft1,a1
    80002bcc:	f2060153          	fmv.d.x	ft2,a2
    80002bd0:	22208053          	fsgnj.d	ft0,ft1,ft2
    80002bd4:	e2000553          	fmv.x.d	a0,ft0
    80002bd8:	ff2473b7          	lui	t2,0xff247
    80002bdc:	8ad3839b          	addiw	t2,t2,-1875
    80002be0:	00e39393          	slli	t2,t2,0xe
    80002be4:	c4d38393          	addi	t2,t2,-947 # ffffffffff246c4d <_end+0xffffffff7f23e45d>
    80002be8:	00c39393          	slli	t2,t2,0xc
    80002bec:	5e738393          	addi	t2,t2,1511
    80002bf0:	00d39393          	slli	t2,t2,0xd
    80002bf4:	ef038393          	addi	t2,t2,-272
    80002bf8:	627514e3          	bne	a0,t2,80003a20 <fail>

0000000080002bfc <test_12>:
    80002bfc:	00c00193          	li	gp,12
    80002c00:	ff2475b7          	lui	a1,0xff247
    80002c04:	8ad5859b          	addiw	a1,a1,-1875
    80002c08:	00e59593          	slli	a1,a1,0xe
    80002c0c:	c4d58593          	addi	a1,a1,-947 # ffffffffff246c4d <_end+0xffffffff7f23e45d>
    80002c10:	00c59593          	slli	a1,a1,0xc
    80002c14:	5e758593          	addi	a1,a1,1511
    80002c18:	00d59593          	slli	a1,a1,0xd
    80002c1c:	ef058593          	addi	a1,a1,-272
    80002c20:	00000613          	li	a2,0
    80002c24:	f20580d3          	fmv.d.x	ft1,a1
    80002c28:	f2060153          	fmv.d.x	ft2,a2
    80002c2c:	22208053          	fsgnj.d	ft0,ft1,ft2
    80002c30:	e2000553          	fmv.x.d	a0,ft0
    80002c34:	002473b7          	lui	t2,0x247
    80002c38:	8ad3839b          	addiw	t2,t2,-1875
    80002c3c:	00e39393          	slli	t2,t2,0xe
    80002c40:	c4d38393          	addi	t2,t2,-947 # 246c4d <_start-0x7fdb93b3>
    80002c44:	00c39393          	slli	t2,t2,0xc
    80002c48:	5e738393          	addi	t2,t2,1511
    80002c4c:	00d39393          	slli	t2,t2,0xd
    80002c50:	ef038393          	addi	t2,t2,-272
    80002c54:	5c7516e3          	bne	a0,t2,80003a20 <fail>

0000000080002c58 <test_13>:
    80002c58:	00d00193          	li	gp,13
    80002c5c:	ff2475b7          	lui	a1,0xff247
    80002c60:	8ad5859b          	addiw	a1,a1,-1875
    80002c64:	00e59593          	slli	a1,a1,0xe
    80002c68:	c4d58593          	addi	a1,a1,-947 # ffffffffff246c4d <_end+0xffffffff7f23e45d>
    80002c6c:	00c59593          	slli	a1,a1,0xc
    80002c70:	5e758593          	addi	a1,a1,1511
    80002c74:	00d59593          	slli	a1,a1,0xd
    80002c78:	ef058593          	addi	a1,a1,-272
    80002c7c:	fff00613          	li	a2,-1
    80002c80:	f20580d3          	fmv.d.x	ft1,a1
    80002c84:	f2060153          	fmv.d.x	ft2,a2
    80002c88:	22208053          	fsgnj.d	ft0,ft1,ft2
    80002c8c:	e2000553          	fmv.x.d	a0,ft0
    80002c90:	ff2473b7          	lui	t2,0xff247
    80002c94:	8ad3839b          	addiw	t2,t2,-1875
    80002c98:	00e39393          	slli	t2,t2,0xe
    80002c9c:	c4d38393          	addi	t2,t2,-947 # ffffffffff246c4d <_end+0xffffffff7f23e45d>
    80002ca0:	00c39393          	slli	t2,t2,0xc
    80002ca4:	5e738393          	addi	t2,t2,1511
    80002ca8:	00d39393          	slli	t2,t2,0xd
    80002cac:	ef038393          	addi	t2,t2,-272
    80002cb0:	567518e3          	bne	a0,t2,80003a20 <fail>

0000000080002cb4 <test_20>:
    80002cb4:	01400193          	li	gp,20
    80002cb8:	002475b7          	lui	a1,0x247
    80002cbc:	8ad5859b          	addiw	a1,a1,-1875
    80002cc0:	00e59593          	slli	a1,a1,0xe
    80002cc4:	c4d58593          	addi	a1,a1,-947 # 246c4d <_start-0x7fdb93b3>
    80002cc8:	00c59593          	slli	a1,a1,0xc
    80002ccc:	5e758593          	addi	a1,a1,1511
    80002cd0:	00d59593          	slli	a1,a1,0xd
    80002cd4:	ef058593          	addi	a1,a1,-272
    80002cd8:	00000613          	li	a2,0
    80002cdc:	f20580d3          	fmv.d.x	ft1,a1
    80002ce0:	f2060153          	fmv.d.x	ft2,a2
    80002ce4:	22209053          	fsgnjn.d	ft0,ft1,ft2
    80002ce8:	e2000553          	fmv.x.d	a0,ft0
    80002cec:	ff2473b7          	lui	t2,0xff247
    80002cf0:	8ad3839b          	addiw	t2,t2,-1875
    80002cf4:	00e39393          	slli	t2,t2,0xe
    80002cf8:	c4d38393          	addi	t2,t2,-947 # ffffffffff246c4d <_end+0xffffffff7f23e45d>
    80002cfc:	00c39393          	slli	t2,t2,0xc
    80002d00:	5e738393          	addi	t2,t2,1511
    80002d04:	00d39393          	slli	t2,t2,0xd
    80002d08:	ef038393          	addi	t2,t2,-272
    80002d0c:	50751ae3          	bne	a0,t2,80003a20 <fail>

0000000080002d10 <test_21>:
    80002d10:	01500193          	li	gp,21
    80002d14:	002475b7          	lui	a1,0x247
    80002d18:	8ad5859b          	addiw	a1,a1,-1875
    80002d1c:	00e59593          	slli	a1,a1,0xe
    80002d20:	c4d58593          	addi	a1,a1,-947 # 246c4d <_start-0x7fdb93b3>
    80002d24:	00c59593          	slli	a1,a1,0xc
    80002d28:	5e758593          	addi	a1,a1,1511
    80002d2c:	00d59593          	slli	a1,a1,0xd
    80002d30:	ef058593          	addi	a1,a1,-272
    80002d34:	fff00613          	li	a2,-1
    80002d38:	f20580d3          	fmv.d.x	ft1,a1
    80002d3c:	f2060153          	fmv.d.x	ft2,a2
    80002d40:	22209053          	fsgnjn.d	ft0,ft1,ft2
    80002d44:	e2000553          	fmv.x.d	a0,ft0
    80002d48:	002473b7          	lui	t2,0x247
    80002d4c:	8ad3839b          	addiw	t2,t2,-1875
    80002d50:	00e39393          	slli	t2,t2,0xe
    80002d54:	c4d38393          	addi	t2,t2,-947 # 246c4d <_start-0x7fdb93b3>
    80002d58:	00c39393          	slli	t2,t2,0xc
    80002d5c:	5e738393          	addi	t2,t2,1511
    80002d60:	00d39393          	slli	t2,t2,0xd
    80002d64:	ef038393          	addi	t2,t2,-272
    80002d68:	4a751ce3          	bne	a0,t2,80003a20 <fail>

0000000080002d6c <test_22>:
    80002d6c:	01600193          	li	gp,22
    80002d70:	ff2475b7          	lui	a1,0xff247
    80002d74:	8ad5859b          	addiw	a1,a1,-1875
    80002d78:	00e59593          	slli	a1,a1,0xe
    80002d7c:	c4d58593          	addi	a1,a1,-947 # ffffffffff246c4d <_end+0xffffffff7f23e45d>
    80002d80:	00c59593          	slli	a1,a1,0xc
    80002d84:	5e758593          	addi	a1,a1,1511
    80002d88:	00d59593          	slli	a1,a1,0xd
    80002d8c:	ef058593          	addi	a1,a1,-272
    80002d90:	00000613          	li	a2,0
    80002d94:	f20580d3          	fmv.d.x	ft1,a1
    80002d98:	f2060153          	fmv.d.x	ft2,a2
    80002d9c:	22209053          	fsgnjn.d	ft0,ft1,ft2
    80002da0:	e2000553          	fmv.x.d	a0,ft0
    80002da4:	ff2473b7          	lui	t2,0xff247
    80002da8:	8ad3839b          	addiw	t2,t2,-1875
    80002dac:	00e39393          	slli	t2,t2,0xe
    80002db0:	c4d38393          	addi	t2,t2,-947 # ffffffffff246c4d <_end+0xffffffff7f23e45d>
    80002db4:	00c39393          	slli	t2,t2,0xc
    80002db8:	5e738393          	addi	t2,t2,1511
    80002dbc:	00d39393          	slli	t2,t2,0xd
    80002dc0:	ef038393          	addi	t2,t2,-272
    80002dc4:	44751ee3          	bne	a0,t2,80003a20 <fail>

0000000080002dc8 <test_23>:
    80002dc8:	01700193          	li	gp,23
    80002dcc:	ff2475b7          	lui	a1,0xff247
    80002dd0:	8ad5859b          	addiw	a1,a1,-1875
    80002dd4:	00e59593          	slli	a1,a1,0xe
    80002dd8:	c4d58593          	addi	a1,a1,-947 # ffffffffff246c4d <_end+0xffffffff7f23e45d>
    80002ddc:	00c59593          	slli	a1,a1,0xc
    80002de0:	5e758593          	addi	a1,a1,1511
    80002de4:	00d59593          	slli	a1,a1,0xd
    80002de8:	ef058593          	addi	a1,a1,-272
    80002dec:	fff00613          	li	a2,-1
    80002df0:	f20580d3          	fmv.d.x	ft1,a1
    80002df4:	f2060153          	fmv.d.x	ft2,a2
    80002df8:	22209053          	fsgnjn.d	ft0,ft1,ft2
    80002dfc:	e2000553          	fmv.x.d	a0,ft0
    80002e00:	002473b7          	lui	t2,0x247
    80002e04:	8ad3839b          	addiw	t2,t2,-1875
    80002e08:	00e39393          	slli	t2,t2,0xe
    80002e0c:	c4d38393          	addi	t2,t2,-947 # 246c4d <_start-0x7fdb93b3>
    80002e10:	00c39393          	slli	t2,t2,0xc
    80002e14:	5e738393          	addi	t2,t2,1511
    80002e18:	00d39393          	slli	t2,t2,0xd
    80002e1c:	ef038393          	addi	t2,t2,-272
    80002e20:	407510e3          	bne	a0,t2,80003a20 <fail>

0000000080002e24 <test_30>:
    80002e24:	01e00193          	li	gp,30
    80002e28:	002475b7          	lui	a1,0x247
    80002e2c:	8ad5859b          	addiw	a1,a1,-1875
    80002e30:	00e59593          	slli	a1,a1,0xe
    80002e34:	c4d58593          	addi	a1,a1,-947 # 246c4d <_start-0x7fdb93b3>
    80002e38:	00c59593          	slli	a1,a1,0xc
    80002e3c:	5e758593          	addi	a1,a1,1511
    80002e40:	00d59593          	slli	a1,a1,0xd
    80002e44:	ef058593          	addi	a1,a1,-272
    80002e48:	00000613          	li	a2,0
    80002e4c:	f20580d3          	fmv.d.x	ft1,a1
    80002e50:	f2060153          	fmv.d.x	ft2,a2
    80002e54:	2220a053          	fsgnjx.d	ft0,ft1,ft2
    80002e58:	e2000553          	fmv.x.d	a0,ft0
    80002e5c:	002473b7          	lui	t2,0x247
    80002e60:	8ad3839b          	addiw	t2,t2,-1875
    80002e64:	00e39393          	slli	t2,t2,0xe
    80002e68:	c4d38393          	addi	t2,t2,-947 # 246c4d <_start-0x7fdb93b3>
    80002e6c:	00c39393          	slli	t2,t2,0xc
    80002e70:	5e738393          	addi	t2,t2,1511
    80002e74:	00d39393          	slli	t2,t2,0xd
    80002e78:	ef038393          	addi	t2,t2,-272
    80002e7c:	3a7512e3          	bne	a0,t2,80003a20 <fail>

0000000080002e80 <test_31>:
    80002e80:	01f00193          	li	gp,31
    80002e84:	002475b7          	lui	a1,0x247
    80002e88:	8ad5859b          	addiw	a1,a1,-1875
    80002e8c:	00e59593          	slli	a1,a1,0xe
    80002e90:	c4d58593          	addi	a1,a1,-947 # 246c4d <_start-0x7fdb93b3>
    80002e94:	00c59593          	slli	a1,a1,0xc
    80002e98:	5e758593          	addi	a1,a1,1511
    80002e9c:	00d59593          	slli	a1,a1,0xd
    80002ea0:	ef058593          	addi	a1,a1,-272
    80002ea4:	fff00613          	li	a2,-1
    80002ea8:	f20580d3          	fmv.d.x	ft1,a1
    80002eac:	f2060153          	fmv.d.x	ft2,a2
    80002eb0:	2220a053          	fsgnjx.d	ft0,ft1,ft2
    80002eb4:	e2000553          	fmv.x.d	a0,ft0
    80002eb8:	ff2473b7          	lui	t2,0xff247
    80002ebc:	8ad3839b          	addiw	t2,t2,-1875
    80002ec0:	00e39393          	slli	t2,t2,0xe
    80002ec4:	c4d38393          	addi	t2,t2,-947 # ffffffffff246c4d <_end+0xffffffff7f23e45d>
    80002ec8:	00c39393          	slli	t2,t2,0xc
    80002ecc:	5e738393          	addi	t2,t2,1511
    80002ed0:	00d39393          	slli	t2,t2,0xd
    80002ed4:	ef038393          	addi	t2,t2,-272
    80002ed8:	347514e3          	bne	a0,t2,80003a20 <fail>

0000000080002edc <test_32>:
    80002edc:	02000193          	li	gp,32
    80002ee0:	ff2475b7          	lui	a1,0xff247
    80002ee4:	8ad5859b          	addiw	a1,a1,-1875
    80002ee8:	00e59593          	slli	a1,a1,0xe
    80002eec:	c4d58593          	addi	a1,a1,-947 # ffffffffff246c4d <_end+0xffffffff7f23e45d>
    80002ef0:	00c59593          	slli	a1,a1,0xc
    80002ef4:	5e758593          	addi	a1,a1,1511
    80002ef8:	00d59593          	slli	a1,a1,0xd
    80002efc:	ef058593          	addi	a1,a1,-272
    80002f00:	00000613          	li	a2,0
    80002f04:	f20580d3          	fmv.d.x	ft1,a1
    80002f08:	f2060153          	fmv.d.x	ft2,a2
    80002f0c:	2220a053          	fsgnjx.d	ft0,ft1,ft2
    80002f10:	e2000553          	fmv.x.d	a0,ft0
    80002f14:	ff2473b7          	lui	t2,0xff247
    80002f18:	8ad3839b          	addiw	t2,t2,-1875
    80002f1c:	00e39393          	slli	t2,t2,0xe
    80002f20:	c4d38393          	addi	t2,t2,-947 # ffffffffff246c4d <_end+0xffffffff7f23e45d>
    80002f24:	00c39393          	slli	t2,t2,0xc
    80002f28:	5e738393          	addi	t2,t2,1511
    80002f2c:	00d39393          	slli	t2,t2,0xd
    80002f30:	ef038393          	addi	t2,t2,-272
    80002f34:	2e7516e3          	bne	a0,t2,80003a20 <fail>

0000000080002f38 <test_33>:
    80002f38:	02100193          	li	gp,33
    80002f3c:	ff2475b7          	lui	a1,0xff247
    80002f40:	8ad5859b          	addiw	a1,a1,-1875
    80002f44:	00e59593          	slli	a1,a1,0xe
    80002f48:	c4d58593          	addi	a1,a1,-947 # ffffffffff246c4d <_end+0xffffffff7f23e45d>
    80002f4c:	00c59593          	slli	a1,a1,0xc
    80002f50:	5e758593          	addi	a1,a1,1511
    80002f54:	00d59593          	slli	a1,a1,0xd
    80002f58:	ef058593          	addi	a1,a1,-272
    80002f5c:	fff00613          	li	a2,-1
    80002f60:	f20580d3          	fmv.d.x	ft1,a1
    80002f64:	f2060153          	fmv.d.x	ft2,a2
    80002f68:	2220a053          	fsgnjx.d	ft0,ft1,ft2
    80002f6c:	e2000553          	fmv.x.d	a0,ft0
    80002f70:	002473b7          	lui	t2,0x247
    80002f74:	8ad3839b          	addiw	t2,t2,-1875
    80002f78:	00e39393          	slli	t2,t2,0xe
    80002f7c:	c4d38393          	addi	t2,t2,-947 # 246c4d <_start-0x7fdb93b3>
    80002f80:	00c39393          	slli	t2,t2,0xc
    80002f84:	5e738393          	addi	t2,t2,1511
    80002f88:	00d39393          	slli	t2,t2,0xd
    80002f8c:	ef038393          	addi	t2,t2,-272
    80002f90:	287518e3          	bne	a0,t2,80003a20 <fail>

0000000080002f94 <test_40>:
    80002f94:	02800193          	li	gp,40
    80002f98:	0010059b          	addiw	a1,zero,1
    80002f9c:	02659593          	slli	a1,a1,0x26
    80002fa0:	f0958593          	addi	a1,a1,-247
    80002fa4:	00d59593          	slli	a1,a1,0xd
    80002fa8:	34558593          	addi	a1,a1,837
    80002fac:	00c59593          	slli	a1,a1,0xc
    80002fb0:	67858593          	addi	a1,a1,1656
    80002fb4:	00000613          	li	a2,0
    80002fb8:	f20580d3          	fmv.d.x	ft1,a1
    80002fbc:	f2060153          	fmv.d.x	ft2,a2
    80002fc0:	20208053          	fsgnj.s	ft0,ft1,ft2
    80002fc4:	e0000553          	fmv.x.s	a0,ft0
    80002fc8:	7fc003b7          	lui	t2,0x7fc00
    80002fcc:	24751ae3          	bne	a0,t2,80003a20 <fail>

0000000080002fd0 <test_140>:
    80002fd0:	08c00193          	li	gp,140
    80002fd4:	0010059b          	addiw	a1,zero,1
    80002fd8:	02659593          	slli	a1,a1,0x26
    80002fdc:	f0958593          	addi	a1,a1,-247
    80002fe0:	00d59593          	slli	a1,a1,0xd
    80002fe4:	34558593          	addi	a1,a1,837
    80002fe8:	00c59593          	slli	a1,a1,0xc
    80002fec:	67858593          	addi	a1,a1,1656
    80002ff0:	00000613          	li	a2,0
    80002ff4:	f20580d3          	fmv.d.x	ft1,a1
    80002ff8:	f2060153          	fmv.d.x	ft2,a2
    80002ffc:	20208053          	fsgnj.s	ft0,ft1,ft2
    80003000:	e2000553          	fmv.x.d	a0,ft0
    80003004:	dff0039b          	addiw	t2,zero,-513
    80003008:	01639393          	slli	t2,t2,0x16
    8000300c:	20751ae3          	bne	a0,t2,80003a20 <fail>

0000000080003010 <test_41>:
    80003010:	02900193          	li	gp,41
    80003014:	ffe125b7          	lui	a1,0xffe12
    80003018:	3455859b          	addiw	a1,a1,837
    8000301c:	00c59593          	slli	a1,a1,0xc
    80003020:	67858593          	addi	a1,a1,1656 # ffffffffffe12678 <_end+0xffffffff7fe09e88>
    80003024:	00000613          	li	a2,0
    80003028:	f20580d3          	fmv.d.x	ft1,a1
    8000302c:	f2060153          	fmv.d.x	ft2,a2
    80003030:	20208053          	fsgnj.s	ft0,ft1,ft2
    80003034:	e0000553          	fmv.x.s	a0,ft0
    80003038:	7fc003b7          	lui	t2,0x7fc00
    8000303c:	1e7512e3          	bne	a0,t2,80003a20 <fail>

0000000080003040 <test_141>:
    80003040:	08d00193          	li	gp,141
    80003044:	ffe125b7          	lui	a1,0xffe12
    80003048:	3455859b          	addiw	a1,a1,837
    8000304c:	00c59593          	slli	a1,a1,0xc
    80003050:	67858593          	addi	a1,a1,1656 # ffffffffffe12678 <_end+0xffffffff7fe09e88>
    80003054:	00000613          	li	a2,0
    80003058:	f20580d3          	fmv.d.x	ft1,a1
    8000305c:	f2060153          	fmv.d.x	ft2,a2
    80003060:	20208053          	fsgnj.s	ft0,ft1,ft2
    80003064:	e2000553          	fmv.x.d	a0,ft0
    80003068:	dff0039b          	addiw	t2,zero,-513
    8000306c:	01639393          	slli	t2,t2,0x16
    80003070:	1a7518e3          	bne	a0,t2,80003a20 <fail>

0000000080003074 <test_42>:
    80003074:	02a00193          	li	gp,42
    80003078:	0010059b          	addiw	a1,zero,1
    8000307c:	02659593          	slli	a1,a1,0x26
    80003080:	f8958593          	addi	a1,a1,-119
    80003084:	00d59593          	slli	a1,a1,0xd
    80003088:	34558593          	addi	a1,a1,837
    8000308c:	00c59593          	slli	a1,a1,0xc
    80003090:	67858593          	addi	a1,a1,1656
    80003094:	00000613          	li	a2,0
    80003098:	f20580d3          	fmv.d.x	ft1,a1
    8000309c:	f2060153          	fmv.d.x	ft2,a2
    800030a0:	20208053          	fsgnj.s	ft0,ft1,ft2
    800030a4:	e0000553          	fmv.x.s	a0,ft0
    800030a8:	7fc003b7          	lui	t2,0x7fc00
    800030ac:	16751ae3          	bne	a0,t2,80003a20 <fail>

00000000800030b0 <test_142>:
    800030b0:	08e00193          	li	gp,142
    800030b4:	0010059b          	addiw	a1,zero,1
    800030b8:	02659593          	slli	a1,a1,0x26
    800030bc:	f8958593          	addi	a1,a1,-119
    800030c0:	00d59593          	slli	a1,a1,0xd
    800030c4:	34558593          	addi	a1,a1,837
    800030c8:	00c59593          	slli	a1,a1,0xc
    800030cc:	67858593          	addi	a1,a1,1656
    800030d0:	00000613          	li	a2,0
    800030d4:	f20580d3          	fmv.d.x	ft1,a1
    800030d8:	f2060153          	fmv.d.x	ft2,a2
    800030dc:	20208053          	fsgnj.s	ft0,ft1,ft2
    800030e0:	e2000553          	fmv.x.d	a0,ft0
    800030e4:	dff0039b          	addiw	t2,zero,-513
    800030e8:	01639393          	slli	t2,t2,0x16
    800030ec:	12751ae3          	bne	a0,t2,80003a20 <fail>

00000000800030f0 <test_43>:
    800030f0:	02b00193          	li	gp,43
    800030f4:	fff125b7          	lui	a1,0xfff12
    800030f8:	3455859b          	addiw	a1,a1,837
    800030fc:	00c59593          	slli	a1,a1,0xc
    80003100:	67858593          	addi	a1,a1,1656 # fffffffffff12678 <_end+0xffffffff7ff09e88>
    80003104:	00000613          	li	a2,0
    80003108:	f20580d3          	fmv.d.x	ft1,a1
    8000310c:	f2060153          	fmv.d.x	ft2,a2
    80003110:	20208053          	fsgnj.s	ft0,ft1,ft2
    80003114:	e0000553          	fmv.x.s	a0,ft0
    80003118:	123453b7          	lui	t2,0x12345
    8000311c:	6783839b          	addiw	t2,t2,1656
    80003120:	107510e3          	bne	a0,t2,80003a20 <fail>

0000000080003124 <test_143>:
    80003124:	08f00193          	li	gp,143
    80003128:	fff125b7          	lui	a1,0xfff12
    8000312c:	3455859b          	addiw	a1,a1,837
    80003130:	00c59593          	slli	a1,a1,0xc
    80003134:	67858593          	addi	a1,a1,1656 # fffffffffff12678 <_end+0xffffffff7ff09e88>
    80003138:	00000613          	li	a2,0
    8000313c:	f20580d3          	fmv.d.x	ft1,a1
    80003140:	f2060153          	fmv.d.x	ft2,a2
    80003144:	20208053          	fsgnj.s	ft0,ft1,ft2
    80003148:	e2000553          	fmv.x.d	a0,ft0
    8000314c:	fff123b7          	lui	t2,0xfff12
    80003150:	3453839b          	addiw	t2,t2,837
    80003154:	00c39393          	slli	t2,t2,0xc
    80003158:	67838393          	addi	t2,t2,1656 # fffffffffff12678 <_end+0xffffffff7ff09e88>
    8000315c:	0c7512e3          	bne	a0,t2,80003a20 <fail>

0000000080003160 <test_50>:
    80003160:	03200193          	li	gp,50
    80003164:	0010059b          	addiw	a1,zero,1
    80003168:	02659593          	slli	a1,a1,0x26
    8000316c:	f0958593          	addi	a1,a1,-247
    80003170:	00d59593          	slli	a1,a1,0xd
    80003174:	34558593          	addi	a1,a1,837
    80003178:	00c59593          	slli	a1,a1,0xc
    8000317c:	67858593          	addi	a1,a1,1656
    80003180:	0010061b          	addiw	a2,zero,1
    80003184:	01f61613          	slli	a2,a2,0x1f
    80003188:	f20580d3          	fmv.d.x	ft1,a1
    8000318c:	f2060153          	fmv.d.x	ft2,a2
    80003190:	20208053          	fsgnj.s	ft0,ft1,ft2
    80003194:	e0000553          	fmv.x.s	a0,ft0
    80003198:	7fc003b7          	lui	t2,0x7fc00
    8000319c:	087512e3          	bne	a0,t2,80003a20 <fail>

00000000800031a0 <test_150>:
    800031a0:	09600193          	li	gp,150
    800031a4:	0010059b          	addiw	a1,zero,1
    800031a8:	02659593          	slli	a1,a1,0x26
    800031ac:	f0958593          	addi	a1,a1,-247
    800031b0:	00d59593          	slli	a1,a1,0xd
    800031b4:	34558593          	addi	a1,a1,837
    800031b8:	00c59593          	slli	a1,a1,0xc
    800031bc:	67858593          	addi	a1,a1,1656
    800031c0:	0010061b          	addiw	a2,zero,1
    800031c4:	01f61613          	slli	a2,a2,0x1f
    800031c8:	f20580d3          	fmv.d.x	ft1,a1
    800031cc:	f2060153          	fmv.d.x	ft2,a2
    800031d0:	20208053          	fsgnj.s	ft0,ft1,ft2
    800031d4:	e2000553          	fmv.x.d	a0,ft0
    800031d8:	dff0039b          	addiw	t2,zero,-513
    800031dc:	01639393          	slli	t2,t2,0x16
    800031e0:	047510e3          	bne	a0,t2,80003a20 <fail>

00000000800031e4 <test_51>:
    800031e4:	03300193          	li	gp,51
    800031e8:	ffe125b7          	lui	a1,0xffe12
    800031ec:	3455859b          	addiw	a1,a1,837
    800031f0:	00c59593          	slli	a1,a1,0xc
    800031f4:	67858593          	addi	a1,a1,1656 # ffffffffffe12678 <_end+0xffffffff7fe09e88>
    800031f8:	0010061b          	addiw	a2,zero,1
    800031fc:	01f61613          	slli	a2,a2,0x1f
    80003200:	f20580d3          	fmv.d.x	ft1,a1
    80003204:	f2060153          	fmv.d.x	ft2,a2
    80003208:	20208053          	fsgnj.s	ft0,ft1,ft2
    8000320c:	e0000553          	fmv.x.s	a0,ft0
    80003210:	7fc003b7          	lui	t2,0x7fc00
    80003214:	007516e3          	bne	a0,t2,80003a20 <fail>

0000000080003218 <test_151>:
    80003218:	09700193          	li	gp,151
    8000321c:	ffe125b7          	lui	a1,0xffe12
    80003220:	3455859b          	addiw	a1,a1,837
    80003224:	00c59593          	slli	a1,a1,0xc
    80003228:	67858593          	addi	a1,a1,1656 # ffffffffffe12678 <_end+0xffffffff7fe09e88>
    8000322c:	0010061b          	addiw	a2,zero,1
    80003230:	01f61613          	slli	a2,a2,0x1f
    80003234:	f20580d3          	fmv.d.x	ft1,a1
    80003238:	f2060153          	fmv.d.x	ft2,a2
    8000323c:	20208053          	fsgnj.s	ft0,ft1,ft2
    80003240:	e2000553          	fmv.x.d	a0,ft0
    80003244:	dff0039b          	addiw	t2,zero,-513
    80003248:	01639393          	slli	t2,t2,0x16
    8000324c:	7c751a63          	bne	a0,t2,80003a20 <fail>

0000000080003250 <test_52>:
    80003250:	03400193          	li	gp,52
    80003254:	0010059b          	addiw	a1,zero,1
    80003258:	02659593          	slli	a1,a1,0x26
    8000325c:	f8958593          	addi	a1,a1,-119
    80003260:	00d59593          	slli	a1,a1,0xd
    80003264:	34558593          	addi	a1,a1,837
    80003268:	00c59593          	slli	a1,a1,0xc
    8000326c:	67858593          	addi	a1,a1,1656
    80003270:	0010061b          	addiw	a2,zero,1
    80003274:	01f61613          	slli	a2,a2,0x1f
    80003278:	f20580d3          	fmv.d.x	ft1,a1
    8000327c:	f2060153          	fmv.d.x	ft2,a2
    80003280:	20208053          	fsgnj.s	ft0,ft1,ft2
    80003284:	e0000553          	fmv.x.s	a0,ft0
    80003288:	7fc003b7          	lui	t2,0x7fc00
    8000328c:	78751a63          	bne	a0,t2,80003a20 <fail>

0000000080003290 <test_152>:
    80003290:	09800193          	li	gp,152
    80003294:	0010059b          	addiw	a1,zero,1
    80003298:	02659593          	slli	a1,a1,0x26
    8000329c:	f8958593          	addi	a1,a1,-119
    800032a0:	00d59593          	slli	a1,a1,0xd
    800032a4:	34558593          	addi	a1,a1,837
    800032a8:	00c59593          	slli	a1,a1,0xc
    800032ac:	67858593          	addi	a1,a1,1656
    800032b0:	0010061b          	addiw	a2,zero,1
    800032b4:	01f61613          	slli	a2,a2,0x1f
    800032b8:	f20580d3          	fmv.d.x	ft1,a1
    800032bc:	f2060153          	fmv.d.x	ft2,a2
    800032c0:	20208053          	fsgnj.s	ft0,ft1,ft2
    800032c4:	e2000553          	fmv.x.d	a0,ft0
    800032c8:	dff0039b          	addiw	t2,zero,-513
    800032cc:	01639393          	slli	t2,t2,0x16
    800032d0:	74751863          	bne	a0,t2,80003a20 <fail>

00000000800032d4 <test_53>:
    800032d4:	03500193          	li	gp,53
    800032d8:	fff125b7          	lui	a1,0xfff12
    800032dc:	3455859b          	addiw	a1,a1,837
    800032e0:	00c59593          	slli	a1,a1,0xc
    800032e4:	67858593          	addi	a1,a1,1656 # fffffffffff12678 <_end+0xffffffff7ff09e88>
    800032e8:	0010061b          	addiw	a2,zero,1
    800032ec:	01f61613          	slli	a2,a2,0x1f
    800032f0:	f20580d3          	fmv.d.x	ft1,a1
    800032f4:	f2060153          	fmv.d.x	ft2,a2
    800032f8:	20208053          	fsgnj.s	ft0,ft1,ft2
    800032fc:	e0000553          	fmv.x.s	a0,ft0
    80003300:	123453b7          	lui	t2,0x12345
    80003304:	6783839b          	addiw	t2,t2,1656
    80003308:	70751c63          	bne	a0,t2,80003a20 <fail>

000000008000330c <test_153>:
    8000330c:	09900193          	li	gp,153
    80003310:	fff125b7          	lui	a1,0xfff12
    80003314:	3455859b          	addiw	a1,a1,837
    80003318:	00c59593          	slli	a1,a1,0xc
    8000331c:	67858593          	addi	a1,a1,1656 # fffffffffff12678 <_end+0xffffffff7ff09e88>
    80003320:	0010061b          	addiw	a2,zero,1
    80003324:	01f61613          	slli	a2,a2,0x1f
    80003328:	f20580d3          	fmv.d.x	ft1,a1
    8000332c:	f2060153          	fmv.d.x	ft2,a2
    80003330:	20208053          	fsgnj.s	ft0,ft1,ft2
    80003334:	e2000553          	fmv.x.d	a0,ft0
    80003338:	fff123b7          	lui	t2,0xfff12
    8000333c:	3453839b          	addiw	t2,t2,837
    80003340:	00c39393          	slli	t2,t2,0xc
    80003344:	67838393          	addi	t2,t2,1656 # fffffffffff12678 <_end+0xffffffff7ff09e88>
    80003348:	6c751c63          	bne	a0,t2,80003a20 <fail>

000000008000334c <test_60>:
    8000334c:	03c00193          	li	gp,60
    80003350:	0010059b          	addiw	a1,zero,1
    80003354:	02659593          	slli	a1,a1,0x26
    80003358:	f0958593          	addi	a1,a1,-247
    8000335c:	00d59593          	slli	a1,a1,0xd
    80003360:	34558593          	addi	a1,a1,837
    80003364:	00c59593          	slli	a1,a1,0xc
    80003368:	67858593          	addi	a1,a1,1656
    8000336c:	80000637          	lui	a2,0x80000
    80003370:	f20580d3          	fmv.d.x	ft1,a1
    80003374:	f2060153          	fmv.d.x	ft2,a2
    80003378:	20208053          	fsgnj.s	ft0,ft1,ft2
    8000337c:	e0000553          	fmv.x.s	a0,ft0
    80003380:	ffc003b7          	lui	t2,0xffc00
    80003384:	68751e63          	bne	a0,t2,80003a20 <fail>

0000000080003388 <test_160>:
    80003388:	0a000193          	li	gp,160
    8000338c:	0010059b          	addiw	a1,zero,1
    80003390:	02659593          	slli	a1,a1,0x26
    80003394:	f0958593          	addi	a1,a1,-247
    80003398:	00d59593          	slli	a1,a1,0xd
    8000339c:	34558593          	addi	a1,a1,837
    800033a0:	00c59593          	slli	a1,a1,0xc
    800033a4:	67858593          	addi	a1,a1,1656
    800033a8:	80000637          	lui	a2,0x80000
    800033ac:	f20580d3          	fmv.d.x	ft1,a1
    800033b0:	f2060153          	fmv.d.x	ft2,a2
    800033b4:	20208053          	fsgnj.s	ft0,ft1,ft2
    800033b8:	e2000553          	fmv.x.d	a0,ft0
    800033bc:	ffc003b7          	lui	t2,0xffc00
    800033c0:	66751063          	bne	a0,t2,80003a20 <fail>

00000000800033c4 <test_61>:
    800033c4:	03d00193          	li	gp,61
    800033c8:	ffe125b7          	lui	a1,0xffe12
    800033cc:	3455859b          	addiw	a1,a1,837
    800033d0:	00c59593          	slli	a1,a1,0xc
    800033d4:	67858593          	addi	a1,a1,1656 # ffffffffffe12678 <_end+0xffffffff7fe09e88>
    800033d8:	80000637          	lui	a2,0x80000
    800033dc:	f20580d3          	fmv.d.x	ft1,a1
    800033e0:	f2060153          	fmv.d.x	ft2,a2
    800033e4:	20208053          	fsgnj.s	ft0,ft1,ft2
    800033e8:	e0000553          	fmv.x.s	a0,ft0
    800033ec:	ffc003b7          	lui	t2,0xffc00
    800033f0:	62751863          	bne	a0,t2,80003a20 <fail>

00000000800033f4 <test_161>:
    800033f4:	0a100193          	li	gp,161
    800033f8:	ffe125b7          	lui	a1,0xffe12
    800033fc:	3455859b          	addiw	a1,a1,837
    80003400:	00c59593          	slli	a1,a1,0xc
    80003404:	67858593          	addi	a1,a1,1656 # ffffffffffe12678 <_end+0xffffffff7fe09e88>
    80003408:	80000637          	lui	a2,0x80000
    8000340c:	f20580d3          	fmv.d.x	ft1,a1
    80003410:	f2060153          	fmv.d.x	ft2,a2
    80003414:	20208053          	fsgnj.s	ft0,ft1,ft2
    80003418:	e2000553          	fmv.x.d	a0,ft0
    8000341c:	ffc003b7          	lui	t2,0xffc00
    80003420:	60751063          	bne	a0,t2,80003a20 <fail>

0000000080003424 <test_62>:
    80003424:	03e00193          	li	gp,62
    80003428:	fff125b7          	lui	a1,0xfff12
    8000342c:	3455859b          	addiw	a1,a1,837
    80003430:	00c59593          	slli	a1,a1,0xc
    80003434:	67858593          	addi	a1,a1,1656 # fffffffffff12678 <_end+0xffffffff7ff09e88>
    80003438:	80000637          	lui	a2,0x80000
    8000343c:	f20580d3          	fmv.d.x	ft1,a1
    80003440:	f2060153          	fmv.d.x	ft2,a2
    80003444:	20208053          	fsgnj.s	ft0,ft1,ft2
    80003448:	e0000553          	fmv.x.s	a0,ft0
    8000344c:	923453b7          	lui	t2,0x92345
    80003450:	6783839b          	addiw	t2,t2,1656
    80003454:	5c751663          	bne	a0,t2,80003a20 <fail>

0000000080003458 <test_162>:
    80003458:	0a200193          	li	gp,162
    8000345c:	fff125b7          	lui	a1,0xfff12
    80003460:	3455859b          	addiw	a1,a1,837
    80003464:	00c59593          	slli	a1,a1,0xc
    80003468:	67858593          	addi	a1,a1,1656 # fffffffffff12678 <_end+0xffffffff7ff09e88>
    8000346c:	80000637          	lui	a2,0x80000
    80003470:	f20580d3          	fmv.d.x	ft1,a1
    80003474:	f2060153          	fmv.d.x	ft2,a2
    80003478:	20208053          	fsgnj.s	ft0,ft1,ft2
    8000347c:	e2000553          	fmv.x.d	a0,ft0
    80003480:	923453b7          	lui	t2,0x92345
    80003484:	6783839b          	addiw	t2,t2,1656
    80003488:	58751c63          	bne	a0,t2,80003a20 <fail>

000000008000348c <test_63>:
    8000348c:	03f00193          	li	gp,63
    80003490:	fff125b7          	lui	a1,0xfff12
    80003494:	3455859b          	addiw	a1,a1,837
    80003498:	00c59593          	slli	a1,a1,0xc
    8000349c:	67858593          	addi	a1,a1,1656 # fffffffffff12678 <_end+0xffffffff7ff09e88>
    800034a0:	0010061b          	addiw	a2,zero,1
    800034a4:	02061613          	slli	a2,a2,0x20
    800034a8:	fff60613          	addi	a2,a2,-1 # ffffffff7fffffff <_end+0xfffffffeffff780f>
    800034ac:	01f61613          	slli	a2,a2,0x1f
    800034b0:	f20580d3          	fmv.d.x	ft1,a1
    800034b4:	f2060153          	fmv.d.x	ft2,a2
    800034b8:	20208053          	fsgnj.s	ft0,ft1,ft2
    800034bc:	e0000553          	fmv.x.s	a0,ft0
    800034c0:	123453b7          	lui	t2,0x12345
    800034c4:	6783839b          	addiw	t2,t2,1656
    800034c8:	54751c63          	bne	a0,t2,80003a20 <fail>

00000000800034cc <test_163>:
    800034cc:	0a300193          	li	gp,163
    800034d0:	fff125b7          	lui	a1,0xfff12
    800034d4:	3455859b          	addiw	a1,a1,837
    800034d8:	00c59593          	slli	a1,a1,0xc
    800034dc:	67858593          	addi	a1,a1,1656 # fffffffffff12678 <_end+0xffffffff7ff09e88>
    800034e0:	0010061b          	addiw	a2,zero,1
    800034e4:	02061613          	slli	a2,a2,0x20
    800034e8:	fff60613          	addi	a2,a2,-1
    800034ec:	01f61613          	slli	a2,a2,0x1f
    800034f0:	f20580d3          	fmv.d.x	ft1,a1
    800034f4:	f2060153          	fmv.d.x	ft2,a2
    800034f8:	20208053          	fsgnj.s	ft0,ft1,ft2
    800034fc:	e2000553          	fmv.x.d	a0,ft0
    80003500:	fff123b7          	lui	t2,0xfff12
    80003504:	3453839b          	addiw	t2,t2,837
    80003508:	00c39393          	slli	t2,t2,0xc
    8000350c:	67838393          	addi	t2,t2,1656 # fffffffffff12678 <_end+0xffffffff7ff09e88>
    80003510:	50751863          	bne	a0,t2,80003a20 <fail>

0000000080003514 <test_70>:
    80003514:	04600193          	li	gp,70
    80003518:	fff115b7          	lui	a1,0xfff11
    8000351c:	1115859b          	addiw	a1,a1,273
    80003520:	00c59593          	slli	a1,a1,0xc
    80003524:	11158593          	addi	a1,a1,273 # fffffffffff11111 <_end+0xffffffff7ff08921>
    80003528:	fff11637          	lui	a2,0xfff11
    8000352c:	1116061b          	addiw	a2,a2,273
    80003530:	00c61613          	slli	a2,a2,0xc
    80003534:	11160613          	addi	a2,a2,273 # fffffffffff11111 <_end+0xffffffff7ff08921>
    80003538:	f20580d3          	fmv.d.x	ft1,a1
    8000353c:	f2060153          	fmv.d.x	ft2,a2
    80003540:	22208053          	fsgnj.d	ft0,ft1,ft2
    80003544:	a0002553          	feq.s	a0,ft0,ft0
    80003548:	fff50513          	addi	a0,a0,-1
    8000354c:	00051463          	bnez	a0,80003554 <test_70+0x40>
    80003550:	e0000553          	fmv.x.s	a0,ft0
    80003554:	111113b7          	lui	t2,0x11111
    80003558:	1113839b          	addiw	t2,t2,273
    8000355c:	4c751263          	bne	a0,t2,80003a20 <fail>

0000000080003560 <test_170>:
    80003560:	0aa00193          	li	gp,170
    80003564:	fff115b7          	lui	a1,0xfff11
    80003568:	1115859b          	addiw	a1,a1,273
    8000356c:	00c59593          	slli	a1,a1,0xc
    80003570:	11158593          	addi	a1,a1,273 # fffffffffff11111 <_end+0xffffffff7ff08921>
    80003574:	fff11637          	lui	a2,0xfff11
    80003578:	1116061b          	addiw	a2,a2,273
    8000357c:	00c61613          	slli	a2,a2,0xc
    80003580:	11160613          	addi	a2,a2,273 # fffffffffff11111 <_end+0xffffffff7ff08921>
    80003584:	f20580d3          	fmv.d.x	ft1,a1
    80003588:	f2060153          	fmv.d.x	ft2,a2
    8000358c:	22208053          	fsgnj.d	ft0,ft1,ft2
    80003590:	e2000553          	fmv.x.d	a0,ft0
    80003594:	fff113b7          	lui	t2,0xfff11
    80003598:	1113839b          	addiw	t2,t2,273
    8000359c:	00c39393          	slli	t2,t2,0xc
    800035a0:	11138393          	addi	t2,t2,273 # fffffffffff11111 <_end+0xffffffff7ff08921>
    800035a4:	46751e63          	bne	a0,t2,80003a20 <fail>

00000000800035a8 <test_71>:
    800035a8:	04700193          	li	gp,71
    800035ac:	fff115b7          	lui	a1,0xfff11
    800035b0:	1115859b          	addiw	a1,a1,273
    800035b4:	00c59593          	slli	a1,a1,0xc
    800035b8:	11158593          	addi	a1,a1,273 # fffffffffff11111 <_end+0xffffffff7ff08921>
    800035bc:	0010061b          	addiw	a2,zero,1
    800035c0:	02761613          	slli	a2,a2,0x27
    800035c4:	f1160613          	addi	a2,a2,-239
    800035c8:	00c61613          	slli	a2,a2,0xc
    800035cc:	11160613          	addi	a2,a2,273
    800035d0:	00c61613          	slli	a2,a2,0xc
    800035d4:	11160613          	addi	a2,a2,273
    800035d8:	f20580d3          	fmv.d.x	ft1,a1
    800035dc:	f2060153          	fmv.d.x	ft2,a2
    800035e0:	22208053          	fsgnj.d	ft0,ft1,ft2
    800035e4:	a0002553          	feq.s	a0,ft0,ft0
    800035e8:	00050513          	mv	a0,a0
    800035ec:	00051463          	bnez	a0,800035f4 <test_71+0x4c>
    800035f0:	e0000553          	fmv.x.s	a0,ft0
    800035f4:	111113b7          	lui	t2,0x11111
    800035f8:	1113839b          	addiw	t2,t2,273
    800035fc:	42751263          	bne	a0,t2,80003a20 <fail>

0000000080003600 <test_171>:
    80003600:	0ab00193          	li	gp,171
    80003604:	fff115b7          	lui	a1,0xfff11
    80003608:	1115859b          	addiw	a1,a1,273
    8000360c:	00c59593          	slli	a1,a1,0xc
    80003610:	11158593          	addi	a1,a1,273 # fffffffffff11111 <_end+0xffffffff7ff08921>
    80003614:	0010061b          	addiw	a2,zero,1
    80003618:	02761613          	slli	a2,a2,0x27
    8000361c:	f1160613          	addi	a2,a2,-239
    80003620:	00c61613          	slli	a2,a2,0xc
    80003624:	11160613          	addi	a2,a2,273
    80003628:	00c61613          	slli	a2,a2,0xc
    8000362c:	11160613          	addi	a2,a2,273
    80003630:	f20580d3          	fmv.d.x	ft1,a1
    80003634:	f2060153          	fmv.d.x	ft2,a2
    80003638:	22208053          	fsgnj.d	ft0,ft1,ft2
    8000363c:	e2000553          	fmv.x.d	a0,ft0
    80003640:	0010039b          	addiw	t2,zero,1
    80003644:	02739393          	slli	t2,t2,0x27
    80003648:	f1138393          	addi	t2,t2,-239 # 11110f11 <_start-0x6eeef0ef>
    8000364c:	00c39393          	slli	t2,t2,0xc
    80003650:	11138393          	addi	t2,t2,273
    80003654:	00c39393          	slli	t2,t2,0xc
    80003658:	11138393          	addi	t2,t2,273
    8000365c:	3c751263          	bne	a0,t2,80003a20 <fail>

0000000080003660 <test_72>:
    80003660:	04800193          	li	gp,72
    80003664:	fff115b7          	lui	a1,0xfff11
    80003668:	1115859b          	addiw	a1,a1,273
    8000366c:	00c59593          	slli	a1,a1,0xc
    80003670:	11158593          	addi	a1,a1,273 # fffffffffff11111 <_end+0xffffffff7ff08921>
    80003674:	91111637          	lui	a2,0x91111
    80003678:	1116061b          	addiw	a2,a2,273
    8000367c:	f20580d3          	fmv.d.x	ft1,a1
    80003680:	f2060153          	fmv.d.x	ft2,a2
    80003684:	22208053          	fsgnj.d	ft0,ft1,ft2
    80003688:	a0002553          	feq.s	a0,ft0,ft0
    8000368c:	fff50513          	addi	a0,a0,-1
    80003690:	00051463          	bnez	a0,80003698 <test_72+0x38>
    80003694:	e0000553          	fmv.x.s	a0,ft0
    80003698:	111113b7          	lui	t2,0x11111
    8000369c:	1113839b          	addiw	t2,t2,273
    800036a0:	38751063          	bne	a0,t2,80003a20 <fail>

00000000800036a4 <test_172>:
    800036a4:	0ac00193          	li	gp,172
    800036a8:	fff115b7          	lui	a1,0xfff11
    800036ac:	1115859b          	addiw	a1,a1,273
    800036b0:	00c59593          	slli	a1,a1,0xc
    800036b4:	11158593          	addi	a1,a1,273 # fffffffffff11111 <_end+0xffffffff7ff08921>
    800036b8:	91111637          	lui	a2,0x91111
    800036bc:	1116061b          	addiw	a2,a2,273
    800036c0:	f20580d3          	fmv.d.x	ft1,a1
    800036c4:	f2060153          	fmv.d.x	ft2,a2
    800036c8:	22208053          	fsgnj.d	ft0,ft1,ft2
    800036cc:	e2000553          	fmv.x.d	a0,ft0
    800036d0:	fff113b7          	lui	t2,0xfff11
    800036d4:	1113839b          	addiw	t2,t2,273
    800036d8:	00c39393          	slli	t2,t2,0xc
    800036dc:	11138393          	addi	t2,t2,273 # fffffffffff11111 <_end+0xffffffff7ff08921>
    800036e0:	34751063          	bne	a0,t2,80003a20 <fail>

00000000800036e4 <test_73>:
    800036e4:	04900193          	li	gp,73
    800036e8:	fff115b7          	lui	a1,0xfff11
    800036ec:	1115859b          	addiw	a1,a1,273
    800036f0:	00c59593          	slli	a1,a1,0xc
    800036f4:	11158593          	addi	a1,a1,273 # fffffffffff11111 <_end+0xffffffff7ff08921>
    800036f8:	fff0061b          	addiw	a2,zero,-1
    800036fc:	03f61613          	slli	a2,a2,0x3f
    80003700:	f20580d3          	fmv.d.x	ft1,a1
    80003704:	f2060153          	fmv.d.x	ft2,a2
    80003708:	22208053          	fsgnj.d	ft0,ft1,ft2
    8000370c:	a0002553          	feq.s	a0,ft0,ft0
    80003710:	fff50513          	addi	a0,a0,-1
    80003714:	00051463          	bnez	a0,8000371c <test_73+0x38>
    80003718:	e0000553          	fmv.x.s	a0,ft0
    8000371c:	111113b7          	lui	t2,0x11111
    80003720:	1113839b          	addiw	t2,t2,273
    80003724:	2e751e63          	bne	a0,t2,80003a20 <fail>

0000000080003728 <test_173>:
    80003728:	0ad00193          	li	gp,173
    8000372c:	fff115b7          	lui	a1,0xfff11
    80003730:	1115859b          	addiw	a1,a1,273
    80003734:	00c59593          	slli	a1,a1,0xc
    80003738:	11158593          	addi	a1,a1,273 # fffffffffff11111 <_end+0xffffffff7ff08921>
    8000373c:	fff0061b          	addiw	a2,zero,-1
    80003740:	03f61613          	slli	a2,a2,0x3f
    80003744:	f20580d3          	fmv.d.x	ft1,a1
    80003748:	f2060153          	fmv.d.x	ft2,a2
    8000374c:	22208053          	fsgnj.d	ft0,ft1,ft2
    80003750:	e2000553          	fmv.x.d	a0,ft0
    80003754:	fff113b7          	lui	t2,0xfff11
    80003758:	1113839b          	addiw	t2,t2,273
    8000375c:	00c39393          	slli	t2,t2,0xc
    80003760:	11138393          	addi	t2,t2,273 # fffffffffff11111 <_end+0xffffffff7ff08921>
    80003764:	2a751e63          	bne	a0,t2,80003a20 <fail>

0000000080003768 <test_74>:
    80003768:	04a00193          	li	gp,74
    8000376c:	0010059b          	addiw	a1,zero,1
    80003770:	02759593          	slli	a1,a1,0x27
    80003774:	f1158593          	addi	a1,a1,-239
    80003778:	00c59593          	slli	a1,a1,0xc
    8000377c:	11158593          	addi	a1,a1,273
    80003780:	00c59593          	slli	a1,a1,0xc
    80003784:	11158593          	addi	a1,a1,273
    80003788:	fff11637          	lui	a2,0xfff11
    8000378c:	1116061b          	addiw	a2,a2,273
    80003790:	00c61613          	slli	a2,a2,0xc
    80003794:	11160613          	addi	a2,a2,273 # fffffffffff11111 <_end+0xffffffff7ff08921>
    80003798:	f20580d3          	fmv.d.x	ft1,a1
    8000379c:	f2060153          	fmv.d.x	ft2,a2
    800037a0:	22208053          	fsgnj.d	ft0,ft1,ft2
    800037a4:	a0002553          	feq.s	a0,ft0,ft0
    800037a8:	fff50513          	addi	a0,a0,-1
    800037ac:	00051463          	bnez	a0,800037b4 <test_74+0x4c>
    800037b0:	e0000553          	fmv.x.s	a0,ft0
    800037b4:	111113b7          	lui	t2,0x11111
    800037b8:	1113839b          	addiw	t2,t2,273
    800037bc:	26751263          	bne	a0,t2,80003a20 <fail>

00000000800037c0 <test_174>:
    800037c0:	0ae00193          	li	gp,174
    800037c4:	0010059b          	addiw	a1,zero,1
    800037c8:	02759593          	slli	a1,a1,0x27
    800037cc:	f1158593          	addi	a1,a1,-239
    800037d0:	00c59593          	slli	a1,a1,0xc
    800037d4:	11158593          	addi	a1,a1,273
    800037d8:	00c59593          	slli	a1,a1,0xc
    800037dc:	11158593          	addi	a1,a1,273
    800037e0:	fff11637          	lui	a2,0xfff11
    800037e4:	1116061b          	addiw	a2,a2,273
    800037e8:	00c61613          	slli	a2,a2,0xc
    800037ec:	11160613          	addi	a2,a2,273 # fffffffffff11111 <_end+0xffffffff7ff08921>
    800037f0:	f20580d3          	fmv.d.x	ft1,a1
    800037f4:	f2060153          	fmv.d.x	ft2,a2
    800037f8:	22208053          	fsgnj.d	ft0,ft1,ft2
    800037fc:	e2000553          	fmv.x.d	a0,ft0
    80003800:	fff113b7          	lui	t2,0xfff11
    80003804:	1113839b          	addiw	t2,t2,273
    80003808:	00c39393          	slli	t2,t2,0xc
    8000380c:	11138393          	addi	t2,t2,273 # fffffffffff11111 <_end+0xffffffff7ff08921>
    80003810:	20751863          	bne	a0,t2,80003a20 <fail>

0000000080003814 <test_75>:
    80003814:	04b00193          	li	gp,75
    80003818:	0010059b          	addiw	a1,zero,1
    8000381c:	02759593          	slli	a1,a1,0x27
    80003820:	f1158593          	addi	a1,a1,-239
    80003824:	00c59593          	slli	a1,a1,0xc
    80003828:	11158593          	addi	a1,a1,273
    8000382c:	00c59593          	slli	a1,a1,0xc
    80003830:	11158593          	addi	a1,a1,273
    80003834:	0010061b          	addiw	a2,zero,1
    80003838:	02761613          	slli	a2,a2,0x27
    8000383c:	f1160613          	addi	a2,a2,-239
    80003840:	00c61613          	slli	a2,a2,0xc
    80003844:	11160613          	addi	a2,a2,273
    80003848:	00c61613          	slli	a2,a2,0xc
    8000384c:	11160613          	addi	a2,a2,273
    80003850:	f20580d3          	fmv.d.x	ft1,a1
    80003854:	f2060153          	fmv.d.x	ft2,a2
    80003858:	22208053          	fsgnj.d	ft0,ft1,ft2
    8000385c:	a0002553          	feq.s	a0,ft0,ft0
    80003860:	00050513          	mv	a0,a0
    80003864:	00051463          	bnez	a0,8000386c <test_75+0x58>
    80003868:	e0000553          	fmv.x.s	a0,ft0
    8000386c:	111113b7          	lui	t2,0x11111
    80003870:	1113839b          	addiw	t2,t2,273
    80003874:	1a751663          	bne	a0,t2,80003a20 <fail>

0000000080003878 <test_175>:
    80003878:	0af00193          	li	gp,175
    8000387c:	0010059b          	addiw	a1,zero,1
    80003880:	02759593          	slli	a1,a1,0x27
    80003884:	f1158593          	addi	a1,a1,-239
    80003888:	00c59593          	slli	a1,a1,0xc
    8000388c:	11158593          	addi	a1,a1,273
    80003890:	00c59593          	slli	a1,a1,0xc
    80003894:	11158593          	addi	a1,a1,273
    80003898:	0010061b          	addiw	a2,zero,1
    8000389c:	02761613          	slli	a2,a2,0x27
    800038a0:	f1160613          	addi	a2,a2,-239
    800038a4:	00c61613          	slli	a2,a2,0xc
    800038a8:	11160613          	addi	a2,a2,273
    800038ac:	00c61613          	slli	a2,a2,0xc
    800038b0:	11160613          	addi	a2,a2,273
    800038b4:	f20580d3          	fmv.d.x	ft1,a1
    800038b8:	f2060153          	fmv.d.x	ft2,a2
    800038bc:	22208053          	fsgnj.d	ft0,ft1,ft2
    800038c0:	e2000553          	fmv.x.d	a0,ft0
    800038c4:	0010039b          	addiw	t2,zero,1
    800038c8:	02739393          	slli	t2,t2,0x27
    800038cc:	f1138393          	addi	t2,t2,-239 # 11110f11 <_start-0x6eeef0ef>
    800038d0:	00c39393          	slli	t2,t2,0xc
    800038d4:	11138393          	addi	t2,t2,273
    800038d8:	00c39393          	slli	t2,t2,0xc
    800038dc:	11138393          	addi	t2,t2,273
    800038e0:	14751063          	bne	a0,t2,80003a20 <fail>

00000000800038e4 <test_76>:
    800038e4:	04c00193          	li	gp,76
    800038e8:	0010059b          	addiw	a1,zero,1
    800038ec:	02759593          	slli	a1,a1,0x27
    800038f0:	f1158593          	addi	a1,a1,-239
    800038f4:	00c59593          	slli	a1,a1,0xc
    800038f8:	11158593          	addi	a1,a1,273
    800038fc:	00c59593          	slli	a1,a1,0xc
    80003900:	11158593          	addi	a1,a1,273
    80003904:	91111637          	lui	a2,0x91111
    80003908:	1116061b          	addiw	a2,a2,273
    8000390c:	f20580d3          	fmv.d.x	ft1,a1
    80003910:	f2060153          	fmv.d.x	ft2,a2
    80003914:	22208053          	fsgnj.d	ft0,ft1,ft2
    80003918:	a0002553          	feq.s	a0,ft0,ft0
    8000391c:	fff50513          	addi	a0,a0,-1
    80003920:	00051463          	bnez	a0,80003928 <test_76+0x44>
    80003924:	e0000553          	fmv.x.s	a0,ft0
    80003928:	111113b7          	lui	t2,0x11111
    8000392c:	1113839b          	addiw	t2,t2,273
    80003930:	0e751863          	bne	a0,t2,80003a20 <fail>

0000000080003934 <test_176>:
    80003934:	0b000193          	li	gp,176
    80003938:	0010059b          	addiw	a1,zero,1
    8000393c:	02759593          	slli	a1,a1,0x27
    80003940:	f1158593          	addi	a1,a1,-239
    80003944:	00c59593          	slli	a1,a1,0xc
    80003948:	11158593          	addi	a1,a1,273
    8000394c:	00c59593          	slli	a1,a1,0xc
    80003950:	11158593          	addi	a1,a1,273
    80003954:	91111637          	lui	a2,0x91111
    80003958:	1116061b          	addiw	a2,a2,273
    8000395c:	f20580d3          	fmv.d.x	ft1,a1
    80003960:	f2060153          	fmv.d.x	ft2,a2
    80003964:	22208053          	fsgnj.d	ft0,ft1,ft2
    80003968:	e2000553          	fmv.x.d	a0,ft0
    8000396c:	fff113b7          	lui	t2,0xfff11
    80003970:	1113839b          	addiw	t2,t2,273
    80003974:	00c39393          	slli	t2,t2,0xc
    80003978:	11138393          	addi	t2,t2,273 # fffffffffff11111 <_end+0xffffffff7ff08921>
    8000397c:	0a751263          	bne	a0,t2,80003a20 <fail>

0000000080003980 <test_77>:
    80003980:	04d00193          	li	gp,77
    80003984:	0010059b          	addiw	a1,zero,1
    80003988:	02759593          	slli	a1,a1,0x27
    8000398c:	f1158593          	addi	a1,a1,-239
    80003990:	00c59593          	slli	a1,a1,0xc
    80003994:	11158593          	addi	a1,a1,273
    80003998:	00c59593          	slli	a1,a1,0xc
    8000399c:	11158593          	addi	a1,a1,273
    800039a0:	fff0061b          	addiw	a2,zero,-1
    800039a4:	03f61613          	slli	a2,a2,0x3f
    800039a8:	f20580d3          	fmv.d.x	ft1,a1
    800039ac:	f2060153          	fmv.d.x	ft2,a2
    800039b0:	22208053          	fsgnj.d	ft0,ft1,ft2
    800039b4:	a0002553          	feq.s	a0,ft0,ft0
    800039b8:	fff50513          	addi	a0,a0,-1
    800039bc:	00051463          	bnez	a0,800039c4 <test_77+0x44>
    800039c0:	e0000553          	fmv.x.s	a0,ft0
    800039c4:	111113b7          	lui	t2,0x11111
    800039c8:	1113839b          	addiw	t2,t2,273
    800039cc:	04751a63          	bne	a0,t2,80003a20 <fail>

00000000800039d0 <test_177>:
    800039d0:	0b100193          	li	gp,177
    800039d4:	0010059b          	addiw	a1,zero,1
    800039d8:	02759593          	slli	a1,a1,0x27
    800039dc:	f1158593          	addi	a1,a1,-239
    800039e0:	00c59593          	slli	a1,a1,0xc
    800039e4:	11158593          	addi	a1,a1,273
    800039e8:	00c59593          	slli	a1,a1,0xc
    800039ec:	11158593          	addi	a1,a1,273
    800039f0:	fff0061b          	addiw	a2,zero,-1
    800039f4:	03f61613          	slli	a2,a2,0x3f
    800039f8:	f20580d3          	fmv.d.x	ft1,a1
    800039fc:	f2060153          	fmv.d.x	ft2,a2
    80003a00:	22208053          	fsgnj.d	ft0,ft1,ft2
    80003a04:	e2000553          	fmv.x.d	a0,ft0
    80003a08:	fff113b7          	lui	t2,0xfff11
    80003a0c:	1113839b          	addiw	t2,t2,273
    80003a10:	00c39393          	slli	t2,t2,0xc
    80003a14:	11138393          	addi	t2,t2,273 # fffffffffff11111 <_end+0xffffffff7ff08921>
    80003a18:	00751463          	bne	a0,t2,80003a20 <fail>
    80003a1c:	00301a63          	bne	zero,gp,80003a30 <pass>

0000000080003a20 <fail>:
    80003a20:	00119513          	slli	a0,gp,0x1
    80003a24:	00050063          	beqz	a0,80003a24 <fail+0x4>
    80003a28:	00156513          	ori	a0,a0,1
    80003a2c:	00000073          	ecall

0000000080003a30 <pass>:
    80003a30:	00100513          	li	a0,1
    80003a34:	00000073          	ecall
    80003a38:	c0001073          	unimp
