
rv64ui-v-ma_data:     file format elf64-littleriscv


Disassembly of section .text.init:

0000000080000000 <_start>:
    80000000:	00c0006f          	j	8000000c <handle_reset>

0000000080000004 <nmi_vector>:
    80000004:	25c0206f          	j	80002260 <wtf>

0000000080000008 <trap_vector>:
    80000008:	2580206f          	j	80002260 <wtf>

000000008000000c <handle_reset>:
    8000000c:	00000093          	li	ra,0
    80000010:	00000113          	li	sp,0
    80000014:	00000193          	li	gp,0
    80000018:	00000213          	li	tp,0
    8000001c:	00000293          	li	t0,0
    80000020:	00000313          	li	t1,0
    80000024:	00000393          	li	t2,0
    80000028:	00000413          	li	s0,0
    8000002c:	00000493          	li	s1,0
    80000030:	00000513          	li	a0,0
    80000034:	00000593          	li	a1,0
    80000038:	00000613          	li	a2,0
    8000003c:	00000693          	li	a3,0
    80000040:	00000713          	li	a4,0
    80000044:	00000793          	li	a5,0
    80000048:	00000813          	li	a6,0
    8000004c:	00000893          	li	a7,0
    80000050:	00000913          	li	s2,0
    80000054:	00000993          	li	s3,0
    80000058:	00000a13          	li	s4,0
    8000005c:	00000a93          	li	s5,0
    80000060:	00000b13          	li	s6,0
    80000064:	00000b93          	li	s7,0
    80000068:	00000c13          	li	s8,0
    8000006c:	00000c93          	li	s9,0
    80000070:	00000d13          	li	s10,0
    80000074:	00000d93          	li	s11,0
    80000078:	00000e13          	li	t3,0
    8000007c:	00000e93          	li	t4,0
    80000080:	00000f13          	li	t5,0
    80000084:	00000f93          	li	t6,0
    80000088:	00000297          	auipc	t0,0x0
    8000008c:	01028293          	addi	t0,t0,16 # 80000098 <handle_reset+0x8c>
    80000090:	30529073          	csrw	mtvec,t0
    80000094:	74445073          	csrwi	0x744,8
    80000098:	00000297          	auipc	t0,0x0
    8000009c:	f7028293          	addi	t0,t0,-144 # 80000008 <trap_vector>
    800000a0:	30529073          	csrw	mtvec,t0
    800000a4:	0000e117          	auipc	sp,0xe
    800000a8:	62c10113          	addi	sp,sp,1580 # 8000e6d0 <_end+0x3ee0>
    800000ac:	f14022f3          	csrr	t0,mhartid
    800000b0:	00c29293          	slli	t0,t0,0xc
    800000b4:	00510133          	add	sp,sp,t0
    800000b8:	34011073          	csrw	mscratch,sp
    800000bc:	271020ef          	jal	ra,80002b2c <extra_boot>
    800000c0:	00003517          	auipc	a0,0x3
    800000c4:	a8050513          	addi	a0,a0,-1408 # 80002b40 <userstart>
    800000c8:	07d0206f          	j	80002944 <vm_boot>

00000000800000cc <pop_tf>:
    800000cc:	10853283          	ld	t0,264(a0)
    800000d0:	14129073          	csrw	sepc,t0
    800000d4:	00853083          	ld	ra,8(a0)
    800000d8:	01053103          	ld	sp,16(a0)
    800000dc:	01853183          	ld	gp,24(a0)
    800000e0:	02053203          	ld	tp,32(a0)
    800000e4:	02853283          	ld	t0,40(a0)
    800000e8:	03053303          	ld	t1,48(a0)
    800000ec:	03853383          	ld	t2,56(a0)
    800000f0:	04053403          	ld	s0,64(a0)
    800000f4:	04853483          	ld	s1,72(a0)
    800000f8:	05853583          	ld	a1,88(a0)
    800000fc:	06053603          	ld	a2,96(a0)
    80000100:	06853683          	ld	a3,104(a0)
    80000104:	07053703          	ld	a4,112(a0)
    80000108:	07853783          	ld	a5,120(a0)
    8000010c:	08053803          	ld	a6,128(a0)
    80000110:	08853883          	ld	a7,136(a0)
    80000114:	09053903          	ld	s2,144(a0)
    80000118:	09853983          	ld	s3,152(a0)
    8000011c:	0a053a03          	ld	s4,160(a0)
    80000120:	0a853a83          	ld	s5,168(a0)
    80000124:	0b053b03          	ld	s6,176(a0)
    80000128:	0b853b83          	ld	s7,184(a0)
    8000012c:	0c053c03          	ld	s8,192(a0)
    80000130:	0c853c83          	ld	s9,200(a0)
    80000134:	0d053d03          	ld	s10,208(a0)
    80000138:	0d853d83          	ld	s11,216(a0)
    8000013c:	0e053e03          	ld	t3,224(a0)
    80000140:	0e853e83          	ld	t4,232(a0)
    80000144:	0f053f03          	ld	t5,240(a0)
    80000148:	0f853f83          	ld	t6,248(a0)
    8000014c:	05053503          	ld	a0,80(a0)
    80000150:	10200073          	sret

0000000080000154 <trap_entry>:
    80000154:	14011173          	csrrw	sp,sscratch,sp
    80000158:	00113423          	sd	ra,8(sp)
    8000015c:	00313c23          	sd	gp,24(sp)
    80000160:	02413023          	sd	tp,32(sp)
    80000164:	02513423          	sd	t0,40(sp)
    80000168:	02613823          	sd	t1,48(sp)
    8000016c:	02713c23          	sd	t2,56(sp)
    80000170:	04813023          	sd	s0,64(sp)
    80000174:	04913423          	sd	s1,72(sp)
    80000178:	04a13823          	sd	a0,80(sp)
    8000017c:	04b13c23          	sd	a1,88(sp)
    80000180:	06c13023          	sd	a2,96(sp)
    80000184:	06d13423          	sd	a3,104(sp)
    80000188:	06e13823          	sd	a4,112(sp)
    8000018c:	06f13c23          	sd	a5,120(sp)
    80000190:	09013023          	sd	a6,128(sp)
    80000194:	09113423          	sd	a7,136(sp)
    80000198:	09213823          	sd	s2,144(sp)
    8000019c:	09313c23          	sd	s3,152(sp)
    800001a0:	0b413023          	sd	s4,160(sp)
    800001a4:	0b513423          	sd	s5,168(sp)
    800001a8:	0b613823          	sd	s6,176(sp)
    800001ac:	0b713c23          	sd	s7,184(sp)
    800001b0:	0d813023          	sd	s8,192(sp)
    800001b4:	0d913423          	sd	s9,200(sp)
    800001b8:	0da13823          	sd	s10,208(sp)
    800001bc:	0db13c23          	sd	s11,216(sp)
    800001c0:	0fc13023          	sd	t3,224(sp)
    800001c4:	0fd13423          	sd	t4,232(sp)
    800001c8:	0fe13823          	sd	t5,240(sp)
    800001cc:	0ff13c23          	sd	t6,248(sp)
    800001d0:	140112f3          	csrrw	t0,sscratch,sp
    800001d4:	00513823          	sd	t0,16(sp)
    800001d8:	100022f3          	csrr	t0,sstatus
    800001dc:	10513023          	sd	t0,256(sp)
    800001e0:	141022f3          	csrr	t0,sepc
    800001e4:	10513423          	sd	t0,264(sp)
    800001e8:	143022f3          	csrr	t0,sbadaddr
    800001ec:	10513823          	sd	t0,272(sp)
    800001f0:	142022f3          	csrr	t0,scause
    800001f4:	10513c23          	sd	t0,280(sp)
    800001f8:	00010513          	mv	a0,sp
    800001fc:	3ec0206f          	j	800025e8 <handle_trap>
    80000200:	00              	Address 0x0000000080000200 is out of bounds.


Disassembly of section .text:

0000000080002000 <memcpy>:
    80002000:	00c5e7b3          	or	a5,a1,a2
    80002004:	00f567b3          	or	a5,a0,a5
    80002008:	0077f793          	andi	a5,a5,7
    8000200c:	00c506b3          	add	a3,a0,a2
    80002010:	02078463          	beqz	a5,80002038 <memcpy+0x38>
    80002014:	00c58633          	add	a2,a1,a2
    80002018:	00050793          	mv	a5,a0
    8000201c:	02d57e63          	bleu	a3,a0,80002058 <memcpy+0x58>
    80002020:	00158593          	addi	a1,a1,1
    80002024:	fff5c703          	lbu	a4,-1(a1)
    80002028:	00178793          	addi	a5,a5,1
    8000202c:	fee78fa3          	sb	a4,-1(a5)
    80002030:	feb618e3          	bne	a2,a1,80002020 <memcpy+0x20>
    80002034:	00008067          	ret
    80002038:	fed57ee3          	bleu	a3,a0,80002034 <memcpy+0x34>
    8000203c:	00050793          	mv	a5,a0
    80002040:	00858593          	addi	a1,a1,8
    80002044:	ff85b703          	ld	a4,-8(a1)
    80002048:	00878793          	addi	a5,a5,8
    8000204c:	fee7bc23          	sd	a4,-8(a5)
    80002050:	fed7e8e3          	bltu	a5,a3,80002040 <memcpy+0x40>
    80002054:	00008067          	ret
    80002058:	00008067          	ret

000000008000205c <memset>:
    8000205c:	00c567b3          	or	a5,a0,a2
    80002060:	0077f793          	andi	a5,a5,7
    80002064:	00c50633          	add	a2,a0,a2
    80002068:	0ff5f593          	andi	a1,a1,255
    8000206c:	00078e63          	beqz	a5,80002088 <memset+0x2c>
    80002070:	00050793          	mv	a5,a0
    80002074:	04c57263          	bleu	a2,a0,800020b8 <memset+0x5c>
    80002078:	00178793          	addi	a5,a5,1
    8000207c:	feb78fa3          	sb	a1,-1(a5)
    80002080:	fef61ce3          	bne	a2,a5,80002078 <memset+0x1c>
    80002084:	00008067          	ret
    80002088:	00859793          	slli	a5,a1,0x8
    8000208c:	00b7e5b3          	or	a1,a5,a1
    80002090:	01059793          	slli	a5,a1,0x10
    80002094:	00b7e7b3          	or	a5,a5,a1
    80002098:	02079593          	slli	a1,a5,0x20
    8000209c:	00f5e5b3          	or	a1,a1,a5
    800020a0:	fec572e3          	bleu	a2,a0,80002084 <memset+0x28>
    800020a4:	00050793          	mv	a5,a0
    800020a8:	00878793          	addi	a5,a5,8
    800020ac:	feb7bc23          	sd	a1,-8(a5)
    800020b0:	fec7ece3          	bltu	a5,a2,800020a8 <memset+0x4c>
    800020b4:	00008067          	ret
    800020b8:	00008067          	ret

00000000800020bc <strlen>:
    800020bc:	00054783          	lbu	a5,0(a0)
    800020c0:	00050713          	mv	a4,a0
    800020c4:	00078c63          	beqz	a5,800020dc <strlen+0x20>
    800020c8:	00150513          	addi	a0,a0,1
    800020cc:	00054783          	lbu	a5,0(a0)
    800020d0:	fe079ce3          	bnez	a5,800020c8 <strlen+0xc>
    800020d4:	40e50533          	sub	a0,a0,a4
    800020d8:	00008067          	ret
    800020dc:	00000513          	li	a0,0
    800020e0:	00008067          	ret

00000000800020e4 <strcmp>:
    800020e4:	00150513          	addi	a0,a0,1
    800020e8:	fff54783          	lbu	a5,-1(a0)
    800020ec:	00158593          	addi	a1,a1,1
    800020f0:	fff5c703          	lbu	a4,-1(a1)
    800020f4:	00078a63          	beqz	a5,80002108 <strcmp+0x24>
    800020f8:	fee786e3          	beq	a5,a4,800020e4 <strcmp>
    800020fc:	0007851b          	sext.w	a0,a5
    80002100:	40e5053b          	subw	a0,a0,a4
    80002104:	00008067          	ret
    80002108:	00000513          	li	a0,0
    8000210c:	ff5ff06f          	j	80002100 <strcmp+0x1c>

0000000080002110 <memcmp>:
    80002110:	00b567b3          	or	a5,a0,a1
    80002114:	0077f793          	andi	a5,a5,7
    80002118:	04079263          	bnez	a5,8000215c <memcmp+0x4c>
    8000211c:	ff867693          	andi	a3,a2,-8
    80002120:	00d506b3          	add	a3,a0,a3
    80002124:	00050813          	mv	a6,a0
    80002128:	02d57a63          	bleu	a3,a0,8000215c <memcmp+0x4c>
    8000212c:	0005b703          	ld	a4,0(a1)
    80002130:	00053783          	ld	a5,0(a0)
    80002134:	00f70a63          	beq	a4,a5,80002148 <memcmp+0x38>
    80002138:	0240006f          	j	8000215c <memcmp+0x4c>
    8000213c:	00053703          	ld	a4,0(a0)
    80002140:	0005b783          	ld	a5,0(a1)
    80002144:	00f71863          	bne	a4,a5,80002154 <memcmp+0x44>
    80002148:	00850513          	addi	a0,a0,8
    8000214c:	00858593          	addi	a1,a1,8
    80002150:	fed566e3          	bltu	a0,a3,8000213c <memcmp+0x2c>
    80002154:	41050833          	sub	a6,a0,a6
    80002158:	41060633          	sub	a2,a2,a6
    8000215c:	00c58633          	add	a2,a1,a2
    80002160:	0140006f          	j	80002174 <memcmp+0x64>
    80002164:	00158593          	addi	a1,a1,1
    80002168:	fff54783          	lbu	a5,-1(a0)
    8000216c:	fff5c703          	lbu	a4,-1(a1)
    80002170:	00e79a63          	bne	a5,a4,80002184 <memcmp+0x74>
    80002174:	00150513          	addi	a0,a0,1
    80002178:	fec596e3          	bne	a1,a2,80002164 <memcmp+0x54>
    8000217c:	00000513          	li	a0,0
    80002180:	00008067          	ret
    80002184:	40e7853b          	subw	a0,a5,a4
    80002188:	00008067          	ret

000000008000218c <strcpy>:
    8000218c:	00050793          	mv	a5,a0
    80002190:	00158593          	addi	a1,a1,1
    80002194:	fff5c703          	lbu	a4,-1(a1)
    80002198:	00178793          	addi	a5,a5,1
    8000219c:	fee78fa3          	sb	a4,-1(a5)
    800021a0:	fe0718e3          	bnez	a4,80002190 <strcpy+0x4>
    800021a4:	00008067          	ret

00000000800021a8 <atol>:
    800021a8:	00054783          	lbu	a5,0(a0)
    800021ac:	02000713          	li	a4,32
    800021b0:	00e79863          	bne	a5,a4,800021c0 <atol+0x18>
    800021b4:	00150513          	addi	a0,a0,1
    800021b8:	00054783          	lbu	a5,0(a0)
    800021bc:	fee78ce3          	beq	a5,a4,800021b4 <atol+0xc>
    800021c0:	fd57871b          	addiw	a4,a5,-43
    800021c4:	0fd77713          	andi	a4,a4,253
    800021c8:	04070263          	beqz	a4,8000220c <atol+0x64>
    800021cc:	00054683          	lbu	a3,0(a0)
    800021d0:	00050793          	mv	a5,a0
    800021d4:	00000613          	li	a2,0
    800021d8:	04068863          	beqz	a3,80002228 <atol+0x80>
    800021dc:	00000513          	li	a0,0
    800021e0:	00178793          	addi	a5,a5,1
    800021e4:	fd06859b          	addiw	a1,a3,-48
    800021e8:	00251713          	slli	a4,a0,0x2
    800021ec:	0007c683          	lbu	a3,0(a5)
    800021f0:	00a70533          	add	a0,a4,a0
    800021f4:	00151513          	slli	a0,a0,0x1
    800021f8:	00a58533          	add	a0,a1,a0
    800021fc:	fe0692e3          	bnez	a3,800021e0 <atol+0x38>
    80002200:	00060463          	beqz	a2,80002208 <atol+0x60>
    80002204:	40a00533          	neg	a0,a0
    80002208:	00008067          	ret
    8000220c:	00154683          	lbu	a3,1(a0)
    80002210:	fd378793          	addi	a5,a5,-45
    80002214:	0017b613          	seqz	a2,a5
    80002218:	00150793          	addi	a5,a0,1
    8000221c:	fc0690e3          	bnez	a3,800021dc <atol+0x34>
    80002220:	00000513          	li	a0,0
    80002224:	fddff06f          	j	80002200 <atol+0x58>
    80002228:	00000513          	li	a0,0
    8000222c:	00008067          	ret
    80002230:	0000                	unimp
    80002232:	0000                	unimp

0000000080002234 <terminate>:
    80002234:	fffff797          	auipc	a5,0xfffff
    80002238:	dcc78793          	addi	a5,a5,-564 # 80001000 <tohost>
    8000223c:	0007b703          	ld	a4,0(a5)
    80002240:	00070a63          	beqz	a4,80002254 <terminate+0x20>
    80002244:	fffff717          	auipc	a4,0xfffff
    80002248:	de073e23          	sd	zero,-516(a4) # 80001040 <fromhost>
    8000224c:	0007b703          	ld	a4,0(a5)
    80002250:	fe071ae3          	bnez	a4,80002244 <terminate+0x10>
    80002254:	fffff797          	auipc	a5,0xfffff
    80002258:	daa7b623          	sd	a0,-596(a5) # 80001000 <tohost>
    8000225c:	0000006f          	j	8000225c <terminate+0x28>

0000000080002260 <wtf>:
    80002260:	ff010113          	addi	sp,sp,-16
    80002264:	34900513          	li	a0,841
    80002268:	00113423          	sd	ra,8(sp)
    8000226c:	00000097          	auipc	ra,0x0
    80002270:	fc8080e7          	jalr	-56(ra) # 80002234 <terminate>

0000000080002274 <printhex>:
    80002274:	fe010113          	addi	sp,sp,-32
    80002278:	01710713          	addi	a4,sp,23
    8000227c:	00710813          	addi	a6,sp,7
    80002280:	00900593          	li	a1,9
    80002284:	00f57793          	andi	a5,a0,15
    80002288:	03000613          	li	a2,48
    8000228c:	0ff7f693          	andi	a3,a5,255
    80002290:	00f5f463          	bleu	a5,a1,80002298 <printhex+0x24>
    80002294:	05700613          	li	a2,87
    80002298:	00c687bb          	addw	a5,a3,a2
    8000229c:	00f70023          	sb	a5,0(a4)
    800022a0:	fff70713          	addi	a4,a4,-1
    800022a4:	00455513          	srli	a0,a0,0x4
    800022a8:	fd071ee3          	bne	a4,a6,80002284 <printhex+0x10>
    800022ac:	00814783          	lbu	a5,8(sp)
    800022b0:	00010c23          	sb	zero,24(sp)
    800022b4:	04078463          	beqz	a5,800022fc <printhex+0x88>
    800022b8:	10100513          	li	a0,257
    800022bc:	00810693          	addi	a3,sp,8
    800022c0:	fffff717          	auipc	a4,0xfffff
    800022c4:	d4070713          	addi	a4,a4,-704 # 80001000 <tohost>
    800022c8:	03051513          	slli	a0,a0,0x30
    800022cc:	00073583          	ld	a1,0(a4)
    800022d0:	00168693          	addi	a3,a3,1
    800022d4:	00a7e633          	or	a2,a5,a0
    800022d8:	00058a63          	beqz	a1,800022ec <printhex+0x78>
    800022dc:	fffff797          	auipc	a5,0xfffff
    800022e0:	d607b223          	sd	zero,-668(a5) # 80001040 <fromhost>
    800022e4:	00073783          	ld	a5,0(a4)
    800022e8:	fe079ae3          	bnez	a5,800022dc <printhex+0x68>
    800022ec:	0006c783          	lbu	a5,0(a3)
    800022f0:	fffff597          	auipc	a1,0xfffff
    800022f4:	d0c5b823          	sd	a2,-752(a1) # 80001000 <tohost>
    800022f8:	fc079ae3          	bnez	a5,800022cc <printhex+0x58>
    800022fc:	02010113          	addi	sp,sp,32
    80002300:	00008067          	ret

0000000080002304 <handle_fault>:
    80002304:	fb010113          	addi	sp,sp,-80
    80002308:	00100793          	li	a5,1
    8000230c:	02913c23          	sd	s1,56(sp)
    80002310:	fffff4b7          	lui	s1,0xfffff
    80002314:	00f12223          	sw	a5,4(sp)
    80002318:	04113423          	sd	ra,72(sp)
    8000231c:	04813023          	sd	s0,64(sp)
    80002320:	03213823          	sd	s2,48(sp)
    80002324:	03313423          	sd	s3,40(sp)
    80002328:	03413023          	sd	s4,32(sp)
    8000232c:	01513c23          	sd	s5,24(sp)
    80002330:	00013423          	sd	zero,8(sp)
    80002334:	00950733          	add	a4,a0,s1
    80002338:	0003e7b7          	lui	a5,0x3e
    8000233c:	16f77263          	bleu	a5,a4,800024a0 <handle_fault+0x19c>
    80002340:	00c55993          	srli	s3,a0,0xc
    80002344:	60098a13          	addi	s4,s3,1536
    80002348:	00004917          	auipc	s2,0x4
    8000234c:	cb890913          	addi	s2,s2,-840 # 80006000 <pt>
    80002350:	003a1793          	slli	a5,s4,0x3
    80002354:	00f907b3          	add	a5,s2,a5
    80002358:	0007b703          	ld	a4,0(a5) # 3e000 <_start-0x7ffc2000>
    8000235c:	009574b3          	and	s1,a0,s1
    80002360:	0e071263          	bnez	a4,80002444 <handle_fault+0x140>
    80002364:	00008797          	auipc	a5,0x8
    80002368:	48478793          	addi	a5,a5,1156 # 8000a7e8 <freelist_head>
    8000236c:	0007ba83          	ld	s5,0(a5)
    80002370:	220a8463          	beqz	s5,80002598 <handle_fault+0x294>
    80002374:	008ab783          	ld	a5,8(s5)
    80002378:	00008717          	auipc	a4,0x8
    8000237c:	46870713          	addi	a4,a4,1128 # 8000a7e0 <freelist_tail>
    80002380:	00073703          	ld	a4,0(a4)
    80002384:	00008697          	auipc	a3,0x8
    80002388:	46f6b223          	sd	a5,1124(a3) # 8000a7e8 <freelist_head>
    8000238c:	10e78463          	beq	a5,a4,80002494 <handle_fault+0x190>
    80002390:	00410613          	addi	a2,sp,4
    80002394:	00810593          	addi	a1,sp,8
    80002398:	00048513          	mv	a0,s1
    8000239c:	000ab403          	ld	s0,0(s5)
    800023a0:	798000ef          	jal	ra,80002b38 <pf_filter>
    800023a4:	0c051c63          	bnez	a0,8000247c <handle_fault+0x178>
    800023a8:	00c45413          	srli	s0,s0,0xc
    800023ac:	00a41413          	slli	s0,s0,0xa
    800023b0:	01f46413          	ori	s0,s0,31
    800023b4:	003a1a13          	slli	s4,s4,0x3
    800023b8:	01490933          	add	s2,s2,s4
    800023bc:	0c046793          	ori	a5,s0,192
    800023c0:	00f93023          	sd	a5,0(s2)
    800023c4:	12048073          	sfence.vma	s1
    800023c8:	00008797          	auipc	a5,0x8
    800023cc:	02878793          	addi	a5,a5,40 # 8000a3f0 <user_mapping>
    800023d0:	00499993          	slli	s3,s3,0x4
    800023d4:	013789b3          	add	s3,a5,s3
    800023d8:	0009b783          	ld	a5,0(s3)
    800023dc:	10079e63          	bnez	a5,800024f8 <handle_fault+0x1f4>
    800023e0:	000ab783          	ld	a5,0(s5)
    800023e4:	00f9b023          	sd	a5,0(s3)
    800023e8:	008ab783          	ld	a5,8(s5)
    800023ec:	00f9b423          	sd	a5,8(s3)
    800023f0:	000409b7          	lui	s3,0x40
    800023f4:	1009a9f3          	csrrs	s3,sstatus,s3
    800023f8:	ffe005b7          	lui	a1,0xffe00
    800023fc:	00001637          	lui	a2,0x1
    80002400:	00b485b3          	add	a1,s1,a1
    80002404:	00048513          	mv	a0,s1
    80002408:	00000097          	auipc	ra,0x0
    8000240c:	bf8080e7          	jalr	-1032(ra) # 80002000 <memcpy>
    80002410:	10099073          	csrw	sstatus,s3
    80002414:	00893023          	sd	s0,0(s2)
    80002418:	12048073          	sfence.vma	s1
    8000241c:	0000100f          	fence.i
    80002420:	04813083          	ld	ra,72(sp)
    80002424:	04013403          	ld	s0,64(sp)
    80002428:	03813483          	ld	s1,56(sp)
    8000242c:	03013903          	ld	s2,48(sp)
    80002430:	02813983          	ld	s3,40(sp)
    80002434:	02013a03          	ld	s4,32(sp)
    80002438:	01813a83          	ld	s5,24(sp)
    8000243c:	05010113          	addi	sp,sp,80
    80002440:	00008067          	ret
    80002444:	04077693          	andi	a3,a4,64
    80002448:	00069a63          	bnez	a3,8000245c <handle_fault+0x158>
    8000244c:	04076713          	ori	a4,a4,64
    80002450:	00e7b023          	sd	a4,0(a5)
    80002454:	12048073          	sfence.vma	s1
    80002458:	fc9ff06f          	j	80002420 <handle_fault+0x11c>
    8000245c:	08077693          	andi	a3,a4,128
    80002460:	0e069463          	bnez	a3,80002548 <handle_fault+0x244>
    80002464:	00f00693          	li	a3,15
    80002468:	0ed59063          	bne	a1,a3,80002548 <handle_fault+0x244>
    8000246c:	08076713          	ori	a4,a4,128
    80002470:	00e7b023          	sd	a4,0(a5)
    80002474:	12048073          	sfence.vma	s1
    80002478:	fa9ff06f          	j	80002420 <handle_fault+0x11c>
    8000247c:	000ab403          	ld	s0,0(s5)
    80002480:	00813783          	ld	a5,8(sp)
    80002484:	00c45413          	srli	s0,s0,0xc
    80002488:	00a41413          	slli	s0,s0,0xa
    8000248c:	00f46433          	or	s0,s0,a5
    80002490:	f25ff06f          	j	800023b4 <handle_fault+0xb0>
    80002494:	00008797          	auipc	a5,0x8
    80002498:	3407b623          	sd	zero,844(a5) # 8000a7e0 <freelist_tail>
    8000249c:	ef5ff06f          	j	80002390 <handle_fault+0x8c>
    800024a0:	10100613          	li	a2,257
    800024a4:	04100713          	li	a4,65
    800024a8:	00002697          	auipc	a3,0x2
    800024ac:	33068693          	addi	a3,a3,816 # 800047d8 <pass+0x10>
    800024b0:	fffff797          	auipc	a5,0xfffff
    800024b4:	b5078793          	addi	a5,a5,-1200 # 80001000 <tohost>
    800024b8:	03061613          	slli	a2,a2,0x30
    800024bc:	0007b503          	ld	a0,0(a5)
    800024c0:	00168693          	addi	a3,a3,1
    800024c4:	00c765b3          	or	a1,a4,a2
    800024c8:	00050a63          	beqz	a0,800024dc <handle_fault+0x1d8>
    800024cc:	fffff717          	auipc	a4,0xfffff
    800024d0:	b6073a23          	sd	zero,-1164(a4) # 80001040 <fromhost>
    800024d4:	0007b703          	ld	a4,0(a5)
    800024d8:	fe071ae3          	bnez	a4,800024cc <handle_fault+0x1c8>
    800024dc:	0006c703          	lbu	a4,0(a3)
    800024e0:	fffff517          	auipc	a0,0xfffff
    800024e4:	b2b53023          	sd	a1,-1248(a0) # 80001000 <tohost>
    800024e8:	fc071ae3          	bnez	a4,800024bc <handle_fault+0x1b8>
    800024ec:	00300513          	li	a0,3
    800024f0:	00000097          	auipc	ra,0x0
    800024f4:	d44080e7          	jalr	-700(ra) # 80002234 <terminate>
    800024f8:	10100693          	li	a3,257
    800024fc:	04100713          	li	a4,65
    80002500:	00002617          	auipc	a2,0x2
    80002504:	38860613          	addi	a2,a2,904 # 80004888 <pass+0xc0>
    80002508:	fffff797          	auipc	a5,0xfffff
    8000250c:	af878793          	addi	a5,a5,-1288 # 80001000 <tohost>
    80002510:	03069693          	slli	a3,a3,0x30
    80002514:	0007b503          	ld	a0,0(a5)
    80002518:	00160613          	addi	a2,a2,1
    8000251c:	00d765b3          	or	a1,a4,a3
    80002520:	00050a63          	beqz	a0,80002534 <handle_fault+0x230>
    80002524:	fffff717          	auipc	a4,0xfffff
    80002528:	b0073e23          	sd	zero,-1252(a4) # 80001040 <fromhost>
    8000252c:	0007b703          	ld	a4,0(a5)
    80002530:	fe071ae3          	bnez	a4,80002524 <handle_fault+0x220>
    80002534:	00064703          	lbu	a4,0(a2)
    80002538:	fffff517          	auipc	a0,0xfffff
    8000253c:	acb53423          	sd	a1,-1336(a0) # 80001000 <tohost>
    80002540:	fc071ae3          	bnez	a4,80002514 <handle_fault+0x210>
    80002544:	fa9ff06f          	j	800024ec <handle_fault+0x1e8>
    80002548:	10100613          	li	a2,257
    8000254c:	04100713          	li	a4,65
    80002550:	00002697          	auipc	a3,0x2
    80002554:	2d868693          	addi	a3,a3,728 # 80004828 <pass+0x60>
    80002558:	fffff797          	auipc	a5,0xfffff
    8000255c:	aa878793          	addi	a5,a5,-1368 # 80001000 <tohost>
    80002560:	03061613          	slli	a2,a2,0x30
    80002564:	0007b503          	ld	a0,0(a5)
    80002568:	00168693          	addi	a3,a3,1
    8000256c:	00c765b3          	or	a1,a4,a2
    80002570:	00050a63          	beqz	a0,80002584 <handle_fault+0x280>
    80002574:	fffff717          	auipc	a4,0xfffff
    80002578:	ac073623          	sd	zero,-1332(a4) # 80001040 <fromhost>
    8000257c:	0007b703          	ld	a4,0(a5)
    80002580:	fe071ae3          	bnez	a4,80002574 <handle_fault+0x270>
    80002584:	0006c703          	lbu	a4,0(a3)
    80002588:	fffff517          	auipc	a0,0xfffff
    8000258c:	a6b53c23          	sd	a1,-1416(a0) # 80001000 <tohost>
    80002590:	fc071ae3          	bnez	a4,80002564 <handle_fault+0x260>
    80002594:	f59ff06f          	j	800024ec <handle_fault+0x1e8>
    80002598:	10100693          	li	a3,257
    8000259c:	04100713          	li	a4,65
    800025a0:	00002617          	auipc	a2,0x2
    800025a4:	2d060613          	addi	a2,a2,720 # 80004870 <pass+0xa8>
    800025a8:	fffff797          	auipc	a5,0xfffff
    800025ac:	a5878793          	addi	a5,a5,-1448 # 80001000 <tohost>
    800025b0:	03069693          	slli	a3,a3,0x30
    800025b4:	0007b503          	ld	a0,0(a5)
    800025b8:	00160613          	addi	a2,a2,1
    800025bc:	00d765b3          	or	a1,a4,a3
    800025c0:	00050a63          	beqz	a0,800025d4 <handle_fault+0x2d0>
    800025c4:	fffff717          	auipc	a4,0xfffff
    800025c8:	a6073e23          	sd	zero,-1412(a4) # 80001040 <fromhost>
    800025cc:	0007b703          	ld	a4,0(a5)
    800025d0:	fe071ae3          	bnez	a4,800025c4 <handle_fault+0x2c0>
    800025d4:	00064703          	lbu	a4,0(a2)
    800025d8:	fffff517          	auipc	a0,0xfffff
    800025dc:	a2b53423          	sd	a1,-1496(a0) # 80001000 <tohost>
    800025e0:	fc071ae3          	bnez	a4,800025b4 <handle_fault+0x2b0>
    800025e4:	f09ff06f          	j	800024ec <handle_fault+0x1e8>

00000000800025e8 <handle_trap>:
    800025e8:	f9010113          	addi	sp,sp,-112
    800025ec:	06813023          	sd	s0,96(sp)
    800025f0:	06113423          	sd	ra,104(sp)
    800025f4:	04913c23          	sd	s1,88(sp)
    800025f8:	05213823          	sd	s2,80(sp)
    800025fc:	05313423          	sd	s3,72(sp)
    80002600:	05413023          	sd	s4,64(sp)
    80002604:	03513c23          	sd	s5,56(sp)
    80002608:	03613823          	sd	s6,48(sp)
    8000260c:	03713423          	sd	s7,40(sp)
    80002610:	03813023          	sd	s8,32(sp)
    80002614:	01913c23          	sd	s9,24(sp)
    80002618:	01a13823          	sd	s10,16(sp)
    8000261c:	01b13423          	sd	s11,8(sp)
    80002620:	00050413          	mv	s0,a0
    80002624:	00000097          	auipc	ra,0x0
    80002628:	50c080e7          	jalr	1292(ra) # 80002b30 <trap_filter>
    8000262c:	0e051863          	bnez	a0,8000271c <handle_trap+0x134>
    80002630:	11843583          	ld	a1,280(s0)
    80002634:	00800793          	li	a5,8
    80002638:	14f58663          	beq	a1,a5,80002784 <handle_trap+0x19c>
    8000263c:	00200793          	li	a5,2
    80002640:	06f58463          	beq	a1,a5,800026a8 <handle_trap+0xc0>
    80002644:	ff458793          	addi	a5,a1,-12 # ffffffffffdffff4 <_end+0xffffffff7fdf5804>
    80002648:	00100713          	li	a4,1
    8000264c:	00f77663          	bleu	a5,a4,80002658 <handle_trap+0x70>
    80002650:	00f00793          	li	a5,15
    80002654:	20f59063          	bne	a1,a5,80002854 <handle_trap+0x26c>
    80002658:	11043503          	ld	a0,272(s0)
    8000265c:	00000097          	auipc	ra,0x0
    80002660:	ca8080e7          	jalr	-856(ra) # 80002304 <handle_fault>
    80002664:	00040513          	mv	a0,s0
    80002668:	06013403          	ld	s0,96(sp)
    8000266c:	06813083          	ld	ra,104(sp)
    80002670:	05813483          	ld	s1,88(sp)
    80002674:	05013903          	ld	s2,80(sp)
    80002678:	04813983          	ld	s3,72(sp)
    8000267c:	04013a03          	ld	s4,64(sp)
    80002680:	03813a83          	ld	s5,56(sp)
    80002684:	03013b03          	ld	s6,48(sp)
    80002688:	02813b83          	ld	s7,40(sp)
    8000268c:	02013c03          	ld	s8,32(sp)
    80002690:	01813c83          	ld	s9,24(sp)
    80002694:	01013d03          	ld	s10,16(sp)
    80002698:	00813d83          	ld	s11,8(sp)
    8000269c:	07010113          	addi	sp,sp,112
    800026a0:	ffffe317          	auipc	t1,0xffffe
    800026a4:	a2c30067          	jr	-1492(t1) # 800000cc <pop_tf>
    800026a8:	10843703          	ld	a4,264(s0)
    800026ac:	00377793          	andi	a5,a4,3
    800026b0:	08079263          	bnez	a5,80002734 <handle_trap+0x14c>
    800026b4:	008007ef          	jal	a5,800026bc <handle_trap+0xd4>
    800026b8:	00301073          	fssr	zero
    800026bc:	00072703          	lw	a4,0(a4)
    800026c0:	0007a783          	lw	a5,0(a5)
    800026c4:	06f70463          	beq	a4,a5,8000272c <handle_trap+0x144>
    800026c8:	10100513          	li	a0,257
    800026cc:	04100793          	li	a5,65
    800026d0:	00002697          	auipc	a3,0x2
    800026d4:	29068693          	addi	a3,a3,656 # 80004960 <pass+0x198>
    800026d8:	fffff717          	auipc	a4,0xfffff
    800026dc:	92870713          	addi	a4,a4,-1752 # 80001000 <tohost>
    800026e0:	03051513          	slli	a0,a0,0x30
    800026e4:	00073583          	ld	a1,0(a4)
    800026e8:	00168693          	addi	a3,a3,1
    800026ec:	00a7e633          	or	a2,a5,a0
    800026f0:	00058a63          	beqz	a1,80002704 <handle_trap+0x11c>
    800026f4:	fffff797          	auipc	a5,0xfffff
    800026f8:	9407b623          	sd	zero,-1716(a5) # 80001040 <fromhost>
    800026fc:	00073783          	ld	a5,0(a4)
    80002700:	fe079ae3          	bnez	a5,800026f4 <handle_trap+0x10c>
    80002704:	0006c783          	lbu	a5,0(a3)
    80002708:	fffff597          	auipc	a1,0xfffff
    8000270c:	8ec5bc23          	sd	a2,-1800(a1) # 80001000 <tohost>
    80002710:	fc079ae3          	bnez	a5,800026e4 <handle_trap+0xfc>
    80002714:	00300513          	li	a0,3
    80002718:	b1dff0ef          	jal	ra,80002234 <terminate>
    8000271c:	00040513          	mv	a0,s0
    80002720:	ffffe097          	auipc	ra,0xffffe
    80002724:	9ac080e7          	jalr	-1620(ra) # 800000cc <pop_tf>
    80002728:	f09ff06f          	j	80002630 <handle_trap+0x48>
    8000272c:	00100513          	li	a0,1
    80002730:	b05ff0ef          	jal	ra,80002234 <terminate>
    80002734:	10100793          	li	a5,257
    80002738:	00002617          	auipc	a2,0x2
    8000273c:	20060613          	addi	a2,a2,512 # 80004938 <pass+0x170>
    80002740:	04100693          	li	a3,65
    80002744:	fffff717          	auipc	a4,0xfffff
    80002748:	8bc70713          	addi	a4,a4,-1860 # 80001000 <tohost>
    8000274c:	03079793          	slli	a5,a5,0x30
    80002750:	00073503          	ld	a0,0(a4)
    80002754:	00160613          	addi	a2,a2,1
    80002758:	00f6e5b3          	or	a1,a3,a5
    8000275c:	00050a63          	beqz	a0,80002770 <handle_trap+0x188>
    80002760:	fffff697          	auipc	a3,0xfffff
    80002764:	8e06b023          	sd	zero,-1824(a3) # 80001040 <fromhost>
    80002768:	00073683          	ld	a3,0(a4)
    8000276c:	fe069ae3          	bnez	a3,80002760 <handle_trap+0x178>
    80002770:	00064683          	lbu	a3,0(a2)
    80002774:	fffff517          	auipc	a0,0xfffff
    80002778:	88b53623          	sd	a1,-1908(a0) # 80001000 <tohost>
    8000277c:	fc069ae3          	bnez	a3,80002750 <handle_trap+0x168>
    80002780:	f95ff06f          	j	80002714 <handle_trap+0x12c>
    80002784:	05042983          	lw	s3,80(s0)
    80002788:	00008d17          	auipc	s10,0x8
    8000278c:	c68d0d13          	addi	s10,s10,-920 # 8000a3f0 <user_mapping>
    80002790:	00001437          	lui	s0,0x1
    80002794:	00004b97          	auipc	s7,0x4
    80002798:	86cb8b93          	addi	s7,s7,-1940 # 80006000 <pt>
    8000279c:	00040b37          	lui	s6,0x40
    800027a0:	ffe00ab7          	lui	s5,0xffe00
    800027a4:	00008a17          	auipc	s4,0x8
    800027a8:	03ca0a13          	addi	s4,s4,60 # 8000a7e0 <freelist_tail>
    800027ac:	0003f937          	lui	s2,0x3f
    800027b0:	01c0006f          	j	800027cc <handle_trap+0x1e4>
    800027b4:	00f73423          	sd	a5,8(a4)
    800027b8:	00008717          	auipc	a4,0x8
    800027bc:	02f73423          	sd	a5,40(a4) # 8000a7e0 <freelist_tail>
    800027c0:	000017b7          	lui	a5,0x1
    800027c4:	00f40433          	add	s0,s0,a5
    800027c8:	15240663          	beq	s0,s2,80002914 <handle_trap+0x32c>
    800027cc:	00c45793          	srli	a5,s0,0xc
    800027d0:	00479493          	slli	s1,a5,0x4
    800027d4:	009d0733          	add	a4,s10,s1
    800027d8:	00073703          	ld	a4,0(a4)
    800027dc:	fe0702e3          	beqz	a4,800027c0 <handle_trap+0x1d8>
    800027e0:	60078793          	addi	a5,a5,1536 # 1600 <_start-0x7fffea00>
    800027e4:	00379793          	slli	a5,a5,0x3
    800027e8:	00fb87b3          	add	a5,s7,a5
    800027ec:	0007bc03          	ld	s8,0(a5)
    800027f0:	040c7793          	andi	a5,s8,64
    800027f4:	0e078463          	beqz	a5,800028dc <handle_trap+0x2f4>
    800027f8:	100b2cf3          	csrrs	s9,sstatus,s6
    800027fc:	01540db3          	add	s11,s0,s5
    80002800:	00001637          	lui	a2,0x1
    80002804:	000d8593          	mv	a1,s11
    80002808:	00040513          	mv	a0,s0
    8000280c:	905ff0ef          	jal	ra,80002110 <memcmp>
    80002810:	00050e63          	beqz	a0,8000282c <handle_trap+0x244>
    80002814:	080c7c13          	andi	s8,s8,128
    80002818:	080c0663          	beqz	s8,800028a4 <handle_trap+0x2bc>
    8000281c:	00001637          	lui	a2,0x1
    80002820:	00040593          	mv	a1,s0
    80002824:	000d8513          	mv	a0,s11
    80002828:	fd8ff0ef          	jal	ra,80002000 <memcpy>
    8000282c:	009d07b3          	add	a5,s10,s1
    80002830:	100c9073          	csrw	sstatus,s9
    80002834:	000a3703          	ld	a4,0(s4)
    80002838:	0007b023          	sd	zero,0(a5)
    8000283c:	f6071ce3          	bnez	a4,800027b4 <handle_trap+0x1cc>
    80002840:	00008717          	auipc	a4,0x8
    80002844:	faf73023          	sd	a5,-96(a4) # 8000a7e0 <freelist_tail>
    80002848:	00008717          	auipc	a4,0x8
    8000284c:	faf73023          	sd	a5,-96(a4) # 8000a7e8 <freelist_head>
    80002850:	f71ff06f          	j	800027c0 <handle_trap+0x1d8>
    80002854:	10100793          	li	a5,257
    80002858:	04100613          	li	a2,65
    8000285c:	00002697          	auipc	a3,0x2
    80002860:	13468693          	addi	a3,a3,308 # 80004990 <pass+0x1c8>
    80002864:	ffffe717          	auipc	a4,0xffffe
    80002868:	79c70713          	addi	a4,a4,1948 # 80001000 <tohost>
    8000286c:	03079793          	slli	a5,a5,0x30
    80002870:	00073503          	ld	a0,0(a4)
    80002874:	00168693          	addi	a3,a3,1
    80002878:	00f665b3          	or	a1,a2,a5
    8000287c:	00050a63          	beqz	a0,80002890 <handle_trap+0x2a8>
    80002880:	ffffe617          	auipc	a2,0xffffe
    80002884:	7c063023          	sd	zero,1984(a2) # 80001040 <fromhost>
    80002888:	00073603          	ld	a2,0(a4)
    8000288c:	fe061ae3          	bnez	a2,80002880 <handle_trap+0x298>
    80002890:	0006c603          	lbu	a2,0(a3)
    80002894:	ffffe517          	auipc	a0,0xffffe
    80002898:	76b53623          	sd	a1,1900(a0) # 80001000 <tohost>
    8000289c:	fc061ae3          	bnez	a2,80002870 <handle_trap+0x288>
    800028a0:	e75ff06f          	j	80002714 <handle_trap+0x12c>
    800028a4:	10100793          	li	a5,257
    800028a8:	04100613          	li	a2,65
    800028ac:	00002697          	auipc	a3,0x2
    800028b0:	05468693          	addi	a3,a3,84 # 80004900 <pass+0x138>
    800028b4:	ffffe717          	auipc	a4,0xffffe
    800028b8:	74c70713          	addi	a4,a4,1868 # 80001000 <tohost>
    800028bc:	03079793          	slli	a5,a5,0x30
    800028c0:	00168693          	addi	a3,a3,1
    800028c4:	00f665b3          	or	a1,a2,a5
    800028c8:	00073603          	ld	a2,0(a4)
    800028cc:	04060863          	beqz	a2,8000291c <handle_trap+0x334>
    800028d0:	ffffe617          	auipc	a2,0xffffe
    800028d4:	76063823          	sd	zero,1904(a2) # 80001040 <fromhost>
    800028d8:	ff1ff06f          	j	800028c8 <handle_trap+0x2e0>
    800028dc:	10100793          	li	a5,257
    800028e0:	04100613          	li	a2,65
    800028e4:	00002697          	auipc	a3,0x2
    800028e8:	fe468693          	addi	a3,a3,-28 # 800048c8 <pass+0x100>
    800028ec:	ffffe717          	auipc	a4,0xffffe
    800028f0:	71470713          	addi	a4,a4,1812 # 80001000 <tohost>
    800028f4:	03079793          	slli	a5,a5,0x30
    800028f8:	00168693          	addi	a3,a3,1
    800028fc:	00f665b3          	or	a1,a2,a5
    80002900:	00073603          	ld	a2,0(a4)
    80002904:	02060663          	beqz	a2,80002930 <handle_trap+0x348>
    80002908:	ffffe617          	auipc	a2,0xffffe
    8000290c:	72063c23          	sd	zero,1848(a2) # 80001040 <fromhost>
    80002910:	ff1ff06f          	j	80002900 <handle_trap+0x318>
    80002914:	00098513          	mv	a0,s3
    80002918:	91dff0ef          	jal	ra,80002234 <terminate>
    8000291c:	0006c603          	lbu	a2,0(a3)
    80002920:	ffffe517          	auipc	a0,0xffffe
    80002924:	6eb53023          	sd	a1,1760(a0) # 80001000 <tohost>
    80002928:	f8061ce3          	bnez	a2,800028c0 <handle_trap+0x2d8>
    8000292c:	de9ff06f          	j	80002714 <handle_trap+0x12c>
    80002930:	0006c603          	lbu	a2,0(a3)
    80002934:	ffffe517          	auipc	a0,0xffffe
    80002938:	6cb53623          	sd	a1,1740(a0) # 80001000 <tohost>
    8000293c:	fa061ee3          	bnez	a2,800028f8 <handle_trap+0x310>
    80002940:	dd5ff06f          	j	80002714 <handle_trap+0x12c>

0000000080002944 <vm_boot>:
    80002944:	f14027f3          	csrr	a5,mhartid
    80002948:	18079863          	bnez	a5,80002ad8 <vm_boot+0x194>
    8000294c:	00004697          	auipc	a3,0x4
    80002950:	6b468693          	addi	a3,a3,1716 # 80007000 <pt+0x1000>
    80002954:	00005717          	auipc	a4,0x5
    80002958:	6ac70713          	addi	a4,a4,1708 # 80008000 <pt+0x2000>
    8000295c:	00c6d693          	srli	a3,a3,0xc
    80002960:	00c75713          	srli	a4,a4,0xc
    80002964:	00006797          	auipc	a5,0x6
    80002968:	69c78793          	addi	a5,a5,1692 # 80009000 <pt+0x3000>
    8000296c:	00a69693          	slli	a3,a3,0xa
    80002970:	00a71713          	slli	a4,a4,0xa
    80002974:	0016e693          	ori	a3,a3,1
    80002978:	00176713          	ori	a4,a4,1
    8000297c:	00c7d793          	srli	a5,a5,0xc
    80002980:	00003617          	auipc	a2,0x3
    80002984:	68d63023          	sd	a3,1664(a2) # 80006000 <pt>
    80002988:	00a79793          	slli	a5,a5,0xa
    8000298c:	00004697          	auipc	a3,0x4
    80002990:	66e6b623          	sd	a4,1644(a3) # 80006ff8 <pt+0xff8>
    80002994:	20000737          	lui	a4,0x20000
    80002998:	ed010113          	addi	sp,sp,-304
    8000299c:	0cf70713          	addi	a4,a4,207 # 200000cf <_start-0x5fffff31>
    800029a0:	0017e793          	ori	a5,a5,1
    800029a4:	00006697          	auipc	a3,0x6
    800029a8:	64e6ba23          	sd	a4,1620(a3) # 80008ff8 <pt+0x2ff8>
    800029ac:	12113423          	sd	ra,296(sp)
    800029b0:	00004717          	auipc	a4,0x4
    800029b4:	64f73823          	sd	a5,1616(a4) # 80007000 <pt+0x1000>
    800029b8:	12813023          	sd	s0,288(sp)
    800029bc:	800007b7          	lui	a5,0x80000
    800029c0:	12078073          	sfence.vma	a5
    800029c4:	fff00793          	li	a5,-1
    800029c8:	01f00713          	li	a4,31
    800029cc:	00b7d793          	srli	a5,a5,0xb
    800029d0:	00000297          	auipc	t0,0x0
    800029d4:	01428293          	addi	t0,t0,20 # 800029e4 <vm_boot+0xa0>
    800029d8:	305292f3          	csrrw	t0,mtvec,t0
    800029dc:	3b079073          	csrw	pmpaddr0,a5
    800029e0:	3a071073          	csrw	pmpcfg0,a4
    800029e4:	30529073          	csrw	mtvec,t0
    800029e8:	bff00813          	li	a6,-1025
    800029ec:	01581813          	slli	a6,a6,0x15
    800029f0:	ffffd797          	auipc	a5,0xffffd
    800029f4:	76478793          	addi	a5,a5,1892 # 80000154 <trap_entry>
    800029f8:	010787b3          	add	a5,a5,a6
    800029fc:	10579073          	csrw	stvec,a5
    80002a00:	340027f3          	csrr	a5,mscratch
    80002a04:	010787b3          	add	a5,a5,a6
    80002a08:	14079073          	csrw	sscratch,a5
    80002a0c:	0000b7b7          	lui	a5,0xb
    80002a10:	1007879b          	addiw	a5,a5,256
    80002a14:	30279073          	csrw	medeleg,a5
    80002a18:	0001e7b7          	lui	a5,0x1e
    80002a1c:	6007879b          	addiw	a5,a5,1536
    80002a20:	30079073          	csrw	mstatus,a5
    80002a24:	30405073          	csrwi	mie,0
    80002a28:	00007717          	auipc	a4,0x7
    80002a2c:	5d870713          	addi	a4,a4,1496 # 8000a000 <freelist_nodes>
    80002a30:	010707b3          	add	a5,a4,a6
    80002a34:	3e078693          	addi	a3,a5,992 # 1e3e0 <_start-0x7ffe1c20>
    80002a38:	00008617          	auipc	a2,0x8
    80002a3c:	daf63823          	sd	a5,-592(a2) # 8000a7e8 <freelist_head>
    80002a40:	000808b7          	lui	a7,0x80
    80002a44:	00008797          	auipc	a5,0x8
    80002a48:	d8d7be23          	sd	a3,-612(a5) # 8000a7e0 <freelist_tail>
    80002a4c:	00008317          	auipc	t1,0x8
    80002a50:	9a430313          	addi	t1,t1,-1628 # 8000a3f0 <user_mapping>
    80002a54:	00e00793          	li	a5,14
    80002a58:	03f88893          	addi	a7,a7,63 # 8003f <_start-0x7ff7ffc1>
    80002a5c:	01080813          	addi	a6,a6,16
    80002a60:	0017d613          	srli	a2,a5,0x1
    80002a64:	011786b3          	add	a3,a5,a7
    80002a68:	00f647b3          	xor	a5,a2,a5
    80002a6c:	010705b3          	add	a1,a4,a6
    80002a70:	00c69693          	slli	a3,a3,0xc
    80002a74:	00579793          	slli	a5,a5,0x5
    80002a78:	00d73023          	sd	a3,0(a4)
    80002a7c:	00b73423          	sd	a1,8(a4)
    80002a80:	0207f793          	andi	a5,a5,32
    80002a84:	01070713          	addi	a4,a4,16
    80002a88:	00f667b3          	or	a5,a2,a5
    80002a8c:	fce31ae3          	bne	t1,a4,80002a60 <vm_boot+0x11c>
    80002a90:	00050413          	mv	s0,a0
    80002a94:	12000613          	li	a2,288
    80002a98:	00000593          	li	a1,0
    80002a9c:	00010513          	mv	a0,sp
    80002aa0:	00008797          	auipc	a5,0x8
    80002aa4:	9407b423          	sd	zero,-1720(a5) # 8000a3e8 <freelist_nodes+0x3e8>
    80002aa8:	fffff097          	auipc	ra,0xfffff
    80002aac:	5b4080e7          	jalr	1460(ra) # 8000205c <memset>
    80002ab0:	800007b7          	lui	a5,0x80000
    80002ab4:	00f40433          	add	s0,s0,a5
    80002ab8:	00010513          	mv	a0,sp
    80002abc:	10813423          	sd	s0,264(sp)
    80002ac0:	ffffd097          	auipc	ra,0xffffd
    80002ac4:	60c080e7          	jalr	1548(ra) # 800000cc <pop_tf>
    80002ac8:	12813083          	ld	ra,296(sp)
    80002acc:	12013403          	ld	s0,288(sp)
    80002ad0:	13010113          	addi	sp,sp,304
    80002ad4:	00008067          	ret
    80002ad8:	00100613          	li	a2,1
    80002adc:	006367b7          	lui	a5,0x636
    80002ae0:	000805b7          	lui	a1,0x80
    80002ae4:	01f61513          	slli	a0,a2,0x1f
    80002ae8:	3ee78793          	addi	a5,a5,1006 # 6363ee <_start-0x7f9c9c12>
    80002aec:	ffc58593          	addi	a1,a1,-4 # 7fffc <_start-0x7ff80004>
    80002af0:	03e61613          	slli	a2,a2,0x3e
    80002af4:	01c0006f          	j	80002b10 <vm_boot+0x1cc>
    80002af8:	0007202f          	amoadd.w	zero,zero,(a4)
    80002afc:	0017d713          	srli	a4,a5,0x1
    80002b00:	00e7c7b3          	xor	a5,a5,a4
    80002b04:	03e79793          	slli	a5,a5,0x3e
    80002b08:	00c7f7b3          	and	a5,a5,a2
    80002b0c:	00e7e7b3          	or	a5,a5,a4
    80002b10:	00b7f733          	and	a4,a5,a1
    80002b14:	0017f693          	andi	a3,a5,1
    80002b18:	00a70733          	add	a4,a4,a0
    80002b1c:	fc069ee3          	bnez	a3,80002af8 <vm_boot+0x1b4>
    80002b20:	00072003          	lw	zero,0(a4)
    80002b24:	fd9ff06f          	j	80002afc <vm_boot+0x1b8>
    80002b28:	0000                	unimp
    80002b2a:	0000                	unimp

0000000080002b2c <extra_boot>:
    80002b2c:	00008067          	ret

0000000080002b30 <trap_filter>:
    80002b30:	00000513          	li	a0,0
    80002b34:	00008067          	ret

0000000080002b38 <pf_filter>:
    80002b38:	00000513          	li	a0,0
    80002b3c:	00008067          	ret

0000000080002b40 <userstart>:
    80002b40:	00002417          	auipc	s0,0x2
    80002b44:	4c040413          	addi	s0,s0,1216 # 80005000 <begin_signature>
    80002b48:	00100193          	li	gp,1
    80002b4c:	20100313          	li	t1,513
    80002b50:	00141383          	lh	t2,1(s0)
    80002b54:	00730463          	beq	t1,t2,80002b5c <userstart+0x1c>
    80002b58:	4610106f          	j	800047b8 <fail>
    80002b5c:	00200193          	li	gp,2
    80002b60:	20100313          	li	t1,513
    80002b64:	00145383          	lhu	t2,1(s0)
    80002b68:	00730463          	beq	t1,t2,80002b70 <userstart+0x30>
    80002b6c:	44d0106f          	j	800047b8 <fail>
    80002b70:	00300193          	li	gp,3
    80002b74:	04030337          	lui	t1,0x4030
    80002b78:	2013031b          	addiw	t1,t1,513
    80002b7c:	00142383          	lw	t2,1(s0)
    80002b80:	00730463          	beq	t1,t2,80002b88 <userstart+0x48>
    80002b84:	4350106f          	j	800047b8 <fail>
    80002b88:	00400193          	li	gp,4
    80002b8c:	05040337          	lui	t1,0x5040
    80002b90:	3023031b          	addiw	t1,t1,770
    80002b94:	00242383          	lw	t2,2(s0)
    80002b98:	00730463          	beq	t1,t2,80002ba0 <userstart+0x60>
    80002b9c:	41d0106f          	j	800047b8 <fail>
    80002ba0:	00500193          	li	gp,5
    80002ba4:	06050337          	lui	t1,0x6050
    80002ba8:	4033031b          	addiw	t1,t1,1027
    80002bac:	00342383          	lw	t2,3(s0)
    80002bb0:	00730463          	beq	t1,t2,80002bb8 <userstart+0x78>
    80002bb4:	4050106f          	j	800047b8 <fail>
    80002bb8:	00600193          	li	gp,6
    80002bbc:	04030337          	lui	t1,0x4030
    80002bc0:	2013031b          	addiw	t1,t1,513
    80002bc4:	00146383          	lwu	t2,1(s0)
    80002bc8:	00730463          	beq	t1,t2,80002bd0 <userstart+0x90>
    80002bcc:	3ed0106f          	j	800047b8 <fail>
    80002bd0:	00700193          	li	gp,7
    80002bd4:	05040337          	lui	t1,0x5040
    80002bd8:	3023031b          	addiw	t1,t1,770
    80002bdc:	00246383          	lwu	t2,2(s0)
    80002be0:	00730463          	beq	t1,t2,80002be8 <userstart+0xa8>
    80002be4:	3d50106f          	j	800047b8 <fail>
    80002be8:	00800193          	li	gp,8
    80002bec:	06050337          	lui	t1,0x6050
    80002bf0:	4033031b          	addiw	t1,t1,1027
    80002bf4:	00346383          	lwu	t2,3(s0)
    80002bf8:	00730463          	beq	t1,t2,80002c00 <userstart+0xc0>
    80002bfc:	3bd0106f          	j	800047b8 <fail>
    80002c00:	00900193          	li	gp,9
    80002c04:	08070337          	lui	t1,0x8070
    80002c08:	6053031b          	addiw	t1,t1,1541
    80002c0c:	01031313          	slli	t1,t1,0x10
    80002c10:	40330313          	addi	t1,t1,1027 # 8070403 <_start-0x77f8fbfd>
    80002c14:	01031313          	slli	t1,t1,0x10
    80002c18:	20130313          	addi	t1,t1,513
    80002c1c:	00143383          	ld	t2,1(s0)
    80002c20:	00730463          	beq	t1,t2,80002c28 <userstart+0xe8>
    80002c24:	3950106f          	j	800047b8 <fail>
    80002c28:	00a00193          	li	gp,10
    80002c2c:	04840337          	lui	t1,0x4840
    80002c30:	3833031b          	addiw	t1,t1,899
    80002c34:	00f31313          	slli	t1,t1,0xf
    80002c38:	14130313          	addi	t1,t1,321 # 4840141 <_start-0x7b7bfebf>
    80002c3c:	01231313          	slli	t1,t1,0x12
    80002c40:	30230313          	addi	t1,t1,770
    80002c44:	00243383          	ld	t2,2(s0)
    80002c48:	00730463          	beq	t1,t2,80002c50 <userstart+0x110>
    80002c4c:	36d0106f          	j	800047b8 <fail>
    80002c50:	00b00193          	li	gp,11
    80002c54:	0a091337          	lui	t1,0xa091
    80002c58:	8073031b          	addiw	t1,t1,-2041
    80002c5c:	01031313          	slli	t1,t1,0x10
    80002c60:	60530313          	addi	t1,t1,1541 # a091605 <_start-0x75f6e9fb>
    80002c64:	01031313          	slli	t1,t1,0x10
    80002c68:	40330313          	addi	t1,t1,1027
    80002c6c:	00343383          	ld	t2,3(s0)
    80002c70:	00730463          	beq	t1,t2,80002c78 <userstart+0x138>
    80002c74:	3450106f          	j	800047b8 <fail>
    80002c78:	00c00193          	li	gp,12
    80002c7c:	01614337          	lui	t1,0x1614
    80002c80:	1213031b          	addiw	t1,t1,289
    80002c84:	01231313          	slli	t1,t1,0x12
    80002c88:	38330313          	addi	t1,t1,899 # 1614383 <_start-0x7e9ebc7d>
    80002c8c:	01131313          	slli	t1,t1,0x11
    80002c90:	50430313          	addi	t1,t1,1284
    80002c94:	00443383          	ld	t2,4(s0)
    80002c98:	00730463          	beq	t1,t2,80002ca0 <userstart+0x160>
    80002c9c:	31d0106f          	j	800047b8 <fail>
    80002ca0:	00d00193          	li	gp,13
    80002ca4:	00060337          	lui	t1,0x60
    80002ca8:	5853031b          	addiw	t1,t1,1413
    80002cac:	00d31313          	slli	t1,t1,0xd
    80002cb0:	09130313          	addi	t1,t1,145 # 60091 <_start-0x7ff9ff6f>
    80002cb4:	00c31313          	slli	t1,t1,0xc
    80002cb8:	80730313          	addi	t1,t1,-2041
    80002cbc:	01031313          	slli	t1,t1,0x10
    80002cc0:	60530313          	addi	t1,t1,1541
    80002cc4:	00543383          	ld	t2,5(s0)
    80002cc8:	00730463          	beq	t1,t2,80002cd0 <userstart+0x190>
    80002ccc:	2ed0106f          	j	800047b8 <fail>
    80002cd0:	00e00193          	li	gp,14
    80002cd4:	06860337          	lui	t1,0x6860
    80002cd8:	5853031b          	addiw	t1,t1,1413
    80002cdc:	00e31313          	slli	t1,t1,0xe
    80002ce0:	12130313          	addi	t1,t1,289 # 6860121 <_start-0x7979fedf>
    80002ce4:	01331313          	slli	t1,t1,0x13
    80002ce8:	70630313          	addi	t1,t1,1798
    80002cec:	00643383          	ld	t2,6(s0)
    80002cf0:	00730463          	beq	t1,t2,80002cf8 <userstart+0x1b8>
    80002cf4:	2c50106f          	j	800047b8 <fail>
    80002cf8:	00f00193          	li	gp,15
    80002cfc:	00038337          	lui	t1,0x38
    80002d00:	3433031b          	addiw	t1,t1,835
    80002d04:	01131313          	slli	t1,t1,0x11
    80002d08:	58530313          	addi	t1,t1,1413 # 38585 <_start-0x7ffc7a7b>
    80002d0c:	00d31313          	slli	t1,t1,0xd
    80002d10:	09130313          	addi	t1,t1,145
    80002d14:	00c31313          	slli	t1,t1,0xc
    80002d18:	80730313          	addi	t1,t1,-2041
    80002d1c:	00743383          	ld	t2,7(s0)
    80002d20:	00730463          	beq	t1,t2,80002d28 <userstart+0x1e8>
    80002d24:	2950106f          	j	800047b8 <fail>
    80002d28:	01000193          	li	gp,16
    80002d2c:	00002337          	lui	t1,0x2
    80002d30:	01f3031b          	addiw	t1,t1,31
    80002d34:	01f41383          	lh	t2,31(s0)
    80002d38:	00730463          	beq	t1,t2,80002d40 <userstart+0x200>
    80002d3c:	27d0106f          	j	800047b8 <fail>
    80002d40:	01100193          	li	gp,17
    80002d44:	00002337          	lui	t1,0x2
    80002d48:	01f3031b          	addiw	t1,t1,31
    80002d4c:	01f45383          	lhu	t2,31(s0)
    80002d50:	00730463          	beq	t1,t2,80002d58 <userstart+0x218>
    80002d54:	2650106f          	j	800047b8 <fail>
    80002d58:	01200193          	li	gp,18
    80002d5c:	201f2337          	lui	t1,0x201f2
    80002d60:	e1d3031b          	addiw	t1,t1,-483
    80002d64:	01d42383          	lw	t2,29(s0)
    80002d68:	00730463          	beq	t1,t2,80002d70 <userstart+0x230>
    80002d6c:	24d0106f          	j	800047b8 <fail>
    80002d70:	01300193          	li	gp,19
    80002d74:	21202337          	lui	t1,0x21202
    80002d78:	f1e3031b          	addiw	t1,t1,-226
    80002d7c:	01e42383          	lw	t2,30(s0)
    80002d80:	00730463          	beq	t1,t2,80002d88 <userstart+0x248>
    80002d84:	2350106f          	j	800047b8 <fail>
    80002d88:	01400193          	li	gp,20
    80002d8c:	22212337          	lui	t1,0x22212
    80002d90:	01f3031b          	addiw	t1,t1,31
    80002d94:	01f42383          	lw	t2,31(s0)
    80002d98:	00730463          	beq	t1,t2,80002da0 <userstart+0x260>
    80002d9c:	21d0106f          	j	800047b8 <fail>
    80002da0:	01500193          	li	gp,21
    80002da4:	201f2337          	lui	t1,0x201f2
    80002da8:	e1d3031b          	addiw	t1,t1,-483
    80002dac:	01d46383          	lwu	t2,29(s0)
    80002db0:	00730463          	beq	t1,t2,80002db8 <userstart+0x278>
    80002db4:	2050106f          	j	800047b8 <fail>
    80002db8:	01600193          	li	gp,22
    80002dbc:	21202337          	lui	t1,0x21202
    80002dc0:	f1e3031b          	addiw	t1,t1,-226
    80002dc4:	01e46383          	lwu	t2,30(s0)
    80002dc8:	00730463          	beq	t1,t2,80002dd0 <userstart+0x290>
    80002dcc:	1ed0106f          	j	800047b8 <fail>
    80002dd0:	01700193          	li	gp,23
    80002dd4:	22212337          	lui	t1,0x22212
    80002dd8:	01f3031b          	addiw	t1,t1,31
    80002ddc:	01f46383          	lwu	t2,31(s0)
    80002de0:	00730463          	beq	t1,t2,80002de8 <userstart+0x2a8>
    80002de4:	1d50106f          	j	800047b8 <fail>
    80002de8:	01800193          	li	gp,24
    80002dec:	00101337          	lui	t1,0x101
    80002df0:	f8f3031b          	addiw	t1,t1,-113
    80002df4:	00f31313          	slli	t1,t1,0xf
    80002df8:	74730313          	addi	t1,t1,1863 # 101747 <_start-0x7fefe8b9>
    80002dfc:	00d31313          	slli	t1,t1,0xd
    80002e00:	0d930313          	addi	t1,t1,217
    80002e04:	00d31313          	slli	t1,t1,0xd
    80002e08:	a1930313          	addi	t1,t1,-1511
    80002e0c:	01943383          	ld	t2,25(s0)
    80002e10:	00730463          	beq	t1,t2,80002e18 <userstart+0x2d8>
    80002e14:	1a50106f          	j	800047b8 <fail>
    80002e18:	01900193          	li	gp,25
    80002e1c:	01090337          	lui	t1,0x1090
    80002e20:	0f93031b          	addiw	t1,t1,249
    80002e24:	00c31313          	slli	t1,t1,0xc
    80002e28:	f0f30313          	addi	t1,t1,-241 # 108ff0f <_start-0x7ef700f1>
    80002e2c:	00c31313          	slli	t1,t1,0xc
    80002e30:	8e130313          	addi	t1,t1,-1823
    80002e34:	00d31313          	slli	t1,t1,0xd
    80002e38:	b1a30313          	addi	t1,t1,-1254
    80002e3c:	01a43383          	ld	t2,26(s0)
    80002e40:	00730463          	beq	t1,t2,80002e48 <userstart+0x308>
    80002e44:	1750106f          	j	800047b8 <fail>
    80002e48:	01a00193          	li	gp,26
    80002e4c:	01111337          	lui	t1,0x1111
    80002e50:	9013031b          	addiw	t1,t1,-1791
    80002e54:	00c31313          	slli	t1,t1,0xc
    80002e58:	f8f30313          	addi	t1,t1,-113 # 1110f8f <_start-0x7eeef071>
    80002e5c:	00c31313          	slli	t1,t1,0xc
    80002e60:	0e930313          	addi	t1,t1,233
    80002e64:	00d31313          	slli	t1,t1,0xd
    80002e68:	c1b30313          	addi	t1,t1,-997
    80002e6c:	01b43383          	ld	t2,27(s0)
    80002e70:	00730463          	beq	t1,t2,80002e78 <userstart+0x338>
    80002e74:	1450106f          	j	800047b8 <fail>
    80002e78:	01b00193          	li	gp,27
    80002e7c:	00119337          	lui	t1,0x119
    80002e80:	1113031b          	addiw	t1,t1,273
    80002e84:	00c31313          	slli	t1,t1,0xc
    80002e88:	90130313          	addi	t1,t1,-1791 # 118901 <_start-0x7fee76ff>
    80002e8c:	01031313          	slli	t1,t1,0x10
    80002e90:	8f130313          	addi	t1,t1,-1807
    80002e94:	00d31313          	slli	t1,t1,0xd
    80002e98:	d1c30313          	addi	t1,t1,-740
    80002e9c:	01c43383          	ld	t2,28(s0)
    80002ea0:	00730463          	beq	t1,t2,80002ea8 <userstart+0x368>
    80002ea4:	1150106f          	j	800047b8 <fail>
    80002ea8:	01c00193          	li	gp,28
    80002eac:	00121337          	lui	t1,0x121
    80002eb0:	1913031b          	addiw	t1,t1,401
    80002eb4:	00c31313          	slli	t1,t1,0xc
    80002eb8:	10930313          	addi	t1,t1,265 # 121109 <_start-0x7fedeef7>
    80002ebc:	01031313          	slli	t1,t1,0x10
    80002ec0:	0f930313          	addi	t1,t1,249
    80002ec4:	00d31313          	slli	t1,t1,0xd
    80002ec8:	e1d30313          	addi	t1,t1,-483
    80002ecc:	01d43383          	ld	t2,29(s0)
    80002ed0:	00730463          	beq	t1,t2,80002ed8 <userstart+0x398>
    80002ed4:	0e50106f          	j	800047b8 <fail>
    80002ed8:	01d00193          	li	gp,29
    80002edc:	01292337          	lui	t1,0x1292
    80002ee0:	1193031b          	addiw	t1,t1,281
    80002ee4:	00c31313          	slli	t1,t1,0xc
    80002ee8:	11130313          	addi	t1,t1,273 # 1292111 <_start-0x7ed6deef>
    80002eec:	00c31313          	slli	t1,t1,0xc
    80002ef0:	90130313          	addi	t1,t1,-1791
    80002ef4:	00d31313          	slli	t1,t1,0xd
    80002ef8:	f1e30313          	addi	t1,t1,-226
    80002efc:	01e43383          	ld	t2,30(s0)
    80002f00:	00730463          	beq	t1,t2,80002f08 <userstart+0x3c8>
    80002f04:	0b50106f          	j	800047b8 <fail>
    80002f08:	01e00193          	li	gp,30
    80002f0c:	01313337          	lui	t1,0x1313
    80002f10:	9213031b          	addiw	t1,t1,-1759
    80002f14:	00c31313          	slli	t1,t1,0xc
    80002f18:	19130313          	addi	t1,t1,401 # 1313191 <_start-0x7ecece6f>
    80002f1c:	00c31313          	slli	t1,t1,0xc
    80002f20:	10930313          	addi	t1,t1,265
    80002f24:	00d31313          	slli	t1,t1,0xd
    80002f28:	01f30313          	addi	t1,t1,31
    80002f2c:	01f43383          	ld	t2,31(s0)
    80002f30:	00730463          	beq	t1,t2,80002f38 <userstart+0x3f8>
    80002f34:	0850106f          	j	800047b8 <fail>
    80002f38:	01f00193          	li	gp,31
    80002f3c:	00004337          	lui	t1,0x4
    80002f40:	03f3031b          	addiw	t1,t1,63
    80002f44:	03f41383          	lh	t2,63(s0)
    80002f48:	00730463          	beq	t1,t2,80002f50 <userstart+0x410>
    80002f4c:	06d0106f          	j	800047b8 <fail>
    80002f50:	02000193          	li	gp,32
    80002f54:	00004337          	lui	t1,0x4
    80002f58:	03f3031b          	addiw	t1,t1,63
    80002f5c:	03f45383          	lhu	t2,63(s0)
    80002f60:	00730463          	beq	t1,t2,80002f68 <userstart+0x428>
    80002f64:	0550106f          	j	800047b8 <fail>
    80002f68:	02100193          	li	gp,33
    80002f6c:	403f4337          	lui	t1,0x403f4
    80002f70:	e3d3031b          	addiw	t1,t1,-451
    80002f74:	03d42383          	lw	t2,61(s0)
    80002f78:	00730463          	beq	t1,t2,80002f80 <userstart+0x440>
    80002f7c:	03d0106f          	j	800047b8 <fail>
    80002f80:	02200193          	li	gp,34
    80002f84:	41404337          	lui	t1,0x41404
    80002f88:	f3e3031b          	addiw	t1,t1,-194
    80002f8c:	03e42383          	lw	t2,62(s0)
    80002f90:	00730463          	beq	t1,t2,80002f98 <userstart+0x458>
    80002f94:	0250106f          	j	800047b8 <fail>
    80002f98:	02300193          	li	gp,35
    80002f9c:	42414337          	lui	t1,0x42414
    80002fa0:	03f3031b          	addiw	t1,t1,63
    80002fa4:	03f42383          	lw	t2,63(s0)
    80002fa8:	00730463          	beq	t1,t2,80002fb0 <userstart+0x470>
    80002fac:	00d0106f          	j	800047b8 <fail>
    80002fb0:	02400193          	li	gp,36
    80002fb4:	403f4337          	lui	t1,0x403f4
    80002fb8:	e3d3031b          	addiw	t1,t1,-451
    80002fbc:	03d46383          	lwu	t2,61(s0)
    80002fc0:	00730463          	beq	t1,t2,80002fc8 <userstart+0x488>
    80002fc4:	7f40106f          	j	800047b8 <fail>
    80002fc8:	02500193          	li	gp,37
    80002fcc:	41404337          	lui	t1,0x41404
    80002fd0:	f3e3031b          	addiw	t1,t1,-194
    80002fd4:	03e46383          	lwu	t2,62(s0)
    80002fd8:	00730463          	beq	t1,t2,80002fe0 <userstart+0x4a0>
    80002fdc:	7dc0106f          	j	800047b8 <fail>
    80002fe0:	02600193          	li	gp,38
    80002fe4:	42414337          	lui	t1,0x42414
    80002fe8:	03f3031b          	addiw	t1,t1,63
    80002fec:	03f46383          	lwu	t2,63(s0)
    80002ff0:	00730463          	beq	t1,t2,80002ff8 <userstart+0x4b8>
    80002ff4:	7c40106f          	j	800047b8 <fail>
    80002ff8:	02700193          	li	gp,39
    80002ffc:	01010337          	lui	t1,0x1010
    80003000:	cf93031b          	addiw	t1,t1,-775
    80003004:	00c31313          	slli	t1,t1,0xc
    80003008:	f4f30313          	addi	t1,t1,-177 # 100ff4f <_start-0x7eff00b1>
    8000300c:	00c31313          	slli	t1,t1,0xc
    80003010:	0ed30313          	addi	t1,t1,237
    80003014:	00e31313          	slli	t1,t1,0xe
    80003018:	a3930313          	addi	t1,t1,-1479
    8000301c:	03943383          	ld	t2,57(s0)
    80003020:	00730463          	beq	t1,t2,80003028 <userstart+0x4e8>
    80003024:	7940106f          	j	800047b8 <fail>
    80003028:	02800193          	li	gp,40
    8000302c:	01050337          	lui	t1,0x1050
    80003030:	0fd3031b          	addiw	t1,t1,253
    80003034:	00c31313          	slli	t1,t1,0xc
    80003038:	f8f30313          	addi	t1,t1,-113 # 104ff8f <_start-0x7efb0071>
    8000303c:	00c31313          	slli	t1,t1,0xc
    80003040:	4f130313          	addi	t1,t1,1265
    80003044:	00e31313          	slli	t1,t1,0xe
    80003048:	b3a30313          	addi	t1,t1,-1222
    8000304c:	03a43383          	ld	t2,58(s0)
    80003050:	00730463          	beq	t1,t2,80003058 <userstart+0x518>
    80003054:	7640106f          	j	800047b8 <fail>
    80003058:	02900193          	li	gp,41
    8000305c:	00011337          	lui	t1,0x11
    80003060:	9053031b          	addiw	t1,t1,-1787
    80003064:	01031313          	slli	t1,t1,0x10
    80003068:	0fd30313          	addi	t1,t1,253 # 110fd <_start-0x7ffeef03>
    8000306c:	01031313          	slli	t1,t1,0x10
    80003070:	8f530313          	addi	t1,t1,-1803
    80003074:	00e31313          	slli	t1,t1,0xe
    80003078:	c3b30313          	addi	t1,t1,-965
    8000307c:	03b43383          	ld	t2,59(s0)
    80003080:	00730463          	beq	t1,t2,80003088 <userstart+0x548>
    80003084:	7340106f          	j	800047b8 <fail>
    80003088:	02a00193          	li	gp,42
    8000308c:	00011337          	lui	t1,0x11
    80003090:	d093031b          	addiw	t1,t1,-759
    80003094:	01031313          	slli	t1,t1,0x10
    80003098:	50130313          	addi	t1,t1,1281 # 11501 <_start-0x7ffeeaff>
    8000309c:	01031313          	slli	t1,t1,0x10
    800030a0:	cf930313          	addi	t1,t1,-775
    800030a4:	00e31313          	slli	t1,t1,0xe
    800030a8:	d3c30313          	addi	t1,t1,-708
    800030ac:	03c43383          	ld	t2,60(s0)
    800030b0:	00730463          	beq	t1,t2,800030b8 <userstart+0x578>
    800030b4:	7040106f          	j	800047b8 <fail>
    800030b8:	02b00193          	li	gp,43
    800030bc:	00111337          	lui	t1,0x111
    800030c0:	0d13031b          	addiw	t1,t1,209
    800030c4:	00c31313          	slli	t1,t1,0xc
    800030c8:	90530313          	addi	t1,t1,-1787 # 110905 <_start-0x7feef6fb>
    800030cc:	01031313          	slli	t1,t1,0x10
    800030d0:	0fd30313          	addi	t1,t1,253
    800030d4:	00e31313          	slli	t1,t1,0xe
    800030d8:	e3d30313          	addi	t1,t1,-451
    800030dc:	03d43383          	ld	t2,61(s0)
    800030e0:	00730463          	beq	t1,t2,800030e8 <userstart+0x5a8>
    800030e4:	6d40106f          	j	800047b8 <fail>
    800030e8:	02c00193          	li	gp,44
    800030ec:	00115337          	lui	t1,0x115
    800030f0:	1113031b          	addiw	t1,t1,273
    800030f4:	00c31313          	slli	t1,t1,0xc
    800030f8:	d0930313          	addi	t1,t1,-759 # 114d09 <_start-0x7feeb2f7>
    800030fc:	01031313          	slli	t1,t1,0x10
    80003100:	50130313          	addi	t1,t1,1281
    80003104:	00e31313          	slli	t1,t1,0xe
    80003108:	f3e30313          	addi	t1,t1,-194
    8000310c:	03e43383          	ld	t2,62(s0)
    80003110:	00730463          	beq	t1,t2,80003118 <userstart+0x5d8>
    80003114:	6a40106f          	j	800047b8 <fail>
    80003118:	02d00193          	li	gp,45
    8000311c:	01191337          	lui	t1,0x1191
    80003120:	5113031b          	addiw	t1,t1,1297
    80003124:	00c31313          	slli	t1,t1,0xc
    80003128:	0d130313          	addi	t1,t1,209 # 11910d1 <_start-0x7ee6ef2f>
    8000312c:	00c31313          	slli	t1,t1,0xc
    80003130:	90530313          	addi	t1,t1,-1787
    80003134:	00e31313          	slli	t1,t1,0xe
    80003138:	03f30313          	addi	t1,t1,63
    8000313c:	03f43383          	ld	t2,63(s0)
    80003140:	00730463          	beq	t1,t2,80003148 <userstart+0x608>
    80003144:	6740106f          	j	800047b8 <fail>
    80003148:	02e00193          	li	gp,46
    8000314c:	ffff8337          	lui	t1,0xffff8
    80003150:	1803031b          	addiw	t1,t1,384
    80003154:	006410a3          	sh	t1,1(s0)
    80003158:	00141383          	lh	t2,1(s0)
    8000315c:	00730463          	beq	t1,t2,80003164 <userstart+0x624>
    80003160:	6580106f          	j	800047b8 <fail>
    80003164:	02f00193          	li	gp,47
    80003168:	00008337          	lui	t1,0x8
    8000316c:	3823031b          	addiw	t1,t1,898
    80003170:	006410a3          	sh	t1,1(s0)
    80003174:	00145383          	lhu	t2,1(s0)
    80003178:	00730463          	beq	t1,t2,80003180 <userstart+0x640>
    8000317c:	63c0106f          	j	800047b8 <fail>
    80003180:	03000193          	li	gp,48
    80003184:	87868337          	lui	t1,0x87868
    80003188:	5843031b          	addiw	t1,t1,1412
    8000318c:	006420a3          	sw	t1,1(s0)
    80003190:	00142383          	lw	t2,1(s0)
    80003194:	00730463          	beq	t1,t2,8000319c <userstart+0x65c>
    80003198:	6200106f          	j	800047b8 <fail>
    8000319c:	03100193          	li	gp,49
    800031a0:	8b8a9337          	lui	t1,0x8b8a9
    800031a4:	9883031b          	addiw	t1,t1,-1656
    800031a8:	00642123          	sw	t1,2(s0)
    800031ac:	00242383          	lw	t2,2(s0)
    800031b0:	00730463          	beq	t1,t2,800031b8 <userstart+0x678>
    800031b4:	6040106f          	j	800047b8 <fail>
    800031b8:	03200193          	li	gp,50
    800031bc:	8f8e9337          	lui	t1,0x8f8e9
    800031c0:	d8c3031b          	addiw	t1,t1,-628
    800031c4:	006421a3          	sw	t1,3(s0)
    800031c8:	00342383          	lw	t2,3(s0)
    800031cc:	00730463          	beq	t1,t2,800031d4 <userstart+0x694>
    800031d0:	5e80106f          	j	800047b8 <fail>
    800031d4:	03300193          	li	gp,51
    800031d8:	00094337          	lui	t1,0x94
    800031dc:	9293031b          	addiw	t1,t1,-1751
    800031e0:	00c31313          	slli	t1,t1,0xc
    800031e4:	19030313          	addi	t1,t1,400 # 94190 <_start-0x7ff6be70>
    800031e8:	006420a3          	sw	t1,1(s0)
    800031ec:	00146383          	lwu	t2,1(s0)
    800031f0:	00730463          	beq	t1,t2,800031f8 <userstart+0x6b8>
    800031f4:	5c40106f          	j	800047b8 <fail>
    800031f8:	03400193          	li	gp,52
    800031fc:	00098337          	lui	t1,0x98
    80003200:	9693031b          	addiw	t1,t1,-1687
    80003204:	00c31313          	slli	t1,t1,0xc
    80003208:	59430313          	addi	t1,t1,1428 # 98594 <_start-0x7ff67a6c>
    8000320c:	00642123          	sw	t1,2(s0)
    80003210:	00246383          	lwu	t2,2(s0)
    80003214:	00730463          	beq	t1,t2,8000321c <userstart+0x6dc>
    80003218:	5a00106f          	j	800047b8 <fail>
    8000321c:	03500193          	li	gp,53
    80003220:	0004e337          	lui	t1,0x4e
    80003224:	cd53031b          	addiw	t1,t1,-811
    80003228:	00d31313          	slli	t1,t1,0xd
    8000322c:	99830313          	addi	t1,t1,-1640 # 4d998 <_start-0x7ffb2668>
    80003230:	006421a3          	sw	t1,3(s0)
    80003234:	00346383          	lwu	t2,3(s0)
    80003238:	00730463          	beq	t1,t2,80003240 <userstart+0x700>
    8000323c:	57c0106f          	j	800047b8 <fail>
    80003240:	03600193          	li	gp,54
    80003244:	ffd1d337          	lui	t1,0xffd1d
    80003248:	1513031b          	addiw	t1,t1,337
    8000324c:	00c31313          	slli	t1,t1,0xc
    80003250:	d0530313          	addi	t1,t1,-763 # ffffffffffd1cd05 <_end+0xffffffff7fd12515>
    80003254:	01031313          	slli	t1,t1,0x10
    80003258:	cf530313          	addi	t1,t1,-779
    8000325c:	00d31313          	slli	t1,t1,0xd
    80003260:	d9c30313          	addi	t1,t1,-612
    80003264:	006430a3          	sd	t1,1(s0)
    80003268:	00143383          	ld	t2,1(s0)
    8000326c:	00730463          	beq	t1,t2,80003274 <userstart+0x734>
    80003270:	5480106f          	j	800047b8 <fail>
    80003274:	03700193          	li	gp,55
    80003278:	ff575337          	lui	t1,0xff575
    8000327c:	5533031b          	addiw	t1,t1,1363
    80003280:	00c31313          	slli	t1,t1,0xc
    80003284:	51530313          	addi	t1,t1,1301 # ffffffffff575515 <_end+0xffffffff7f56ad25>
    80003288:	00e31313          	slli	t1,t1,0xe
    8000328c:	d3530313          	addi	t1,t1,-715
    80003290:	00d31313          	slli	t1,t1,0xd
    80003294:	5a430313          	addi	t1,t1,1444
    80003298:	00643123          	sd	t1,2(s0)
    8000329c:	00243383          	ld	t2,2(s0)
    800032a0:	00730463          	beq	t1,t2,800032a8 <userstart+0x768>
    800032a4:	5140106f          	j	800047b8 <fail>
    800032a8:	03800193          	li	gp,56
    800032ac:	ffd9e337          	lui	t1,0xffd9e
    800032b0:	9593031b          	addiw	t1,t1,-1703
    800032b4:	00d31313          	slli	t1,t1,0xd
    800032b8:	b0b30313          	addi	t1,t1,-1269 # ffffffffffd9db0b <_end+0xffffffff7fd9331b>
    800032bc:	01031313          	slli	t1,t1,0x10
    800032c0:	aeb30313          	addi	t1,t1,-1301
    800032c4:	00c31313          	slli	t1,t1,0xc
    800032c8:	dac30313          	addi	t1,t1,-596
    800032cc:	006431a3          	sd	t1,3(s0)
    800032d0:	00343383          	ld	t2,3(s0)
    800032d4:	00730463          	beq	t1,t2,800032dc <userstart+0x79c>
    800032d8:	4e00106f          	j	800047b8 <fail>
    800032dc:	03900193          	li	gp,57
    800032e0:	ff777337          	lui	t1,0xff777
    800032e4:	5733031b          	addiw	t1,t1,1395
    800032e8:	00c31313          	slli	t1,t1,0xc
    800032ec:	71730313          	addi	t1,t1,1815 # ffffffffff777717 <_end+0xffffffff7f76cf27>
    800032f0:	00f31313          	slli	t1,t1,0xf
    800032f4:	b6b30313          	addi	t1,t1,-1173
    800032f8:	00c31313          	slli	t1,t1,0xc
    800032fc:	5b430313          	addi	t1,t1,1460
    80003300:	00643223          	sd	t1,4(s0)
    80003304:	00443383          	ld	t2,4(s0)
    80003308:	00730463          	beq	t1,t2,80003310 <userstart+0x7d0>
    8000330c:	4ac0106f          	j	800047b8 <fail>
    80003310:	03a00193          	li	gp,58
    80003314:	ffff1337          	lui	t1,0xffff1
    80003318:	f0b3031b          	addiw	t1,t1,-245
    8000331c:	01031313          	slli	t1,t1,0x10
    80003320:	70330313          	addi	t1,t1,1795 # ffffffffffff1703 <_end+0xffffffff7ffe6f13>
    80003324:	01031313          	slli	t1,t1,0x10
    80003328:	efb30313          	addi	t1,t1,-261
    8000332c:	00e31313          	slli	t1,t1,0xe
    80003330:	dbc30313          	addi	t1,t1,-580
    80003334:	006432a3          	sd	t1,5(s0)
    80003338:	00543383          	ld	t2,5(s0)
    8000333c:	00730463          	beq	t1,t2,80003344 <userstart+0x804>
    80003340:	4780106f          	j	800047b8 <fail>
    80003344:	03b00193          	li	gp,59
    80003348:	ffe5e337          	lui	t1,0xffe5e
    8000334c:	5653031b          	addiw	t1,t1,1381
    80003350:	00e31313          	slli	t1,t1,0xe
    80003354:	91930313          	addi	t1,t1,-1767 # ffffffffffe5d919 <_end+0xffffffff7fe53129>
    80003358:	00d31313          	slli	t1,t1,0xd
    8000335c:	f1b30313          	addi	t1,t1,-229
    80003360:	00e31313          	slli	t1,t1,0xe
    80003364:	5c430313          	addi	t1,t1,1476
    80003368:	00643323          	sd	t1,6(s0)
    8000336c:	00643383          	ld	t2,6(s0)
    80003370:	00730463          	beq	t1,t2,80003378 <userstart+0x838>
    80003374:	4440106f          	j	800047b8 <fail>
    80003378:	03c00193          	li	gp,60
    8000337c:	ffe9f337          	lui	t1,0xffe9f
    80003380:	9693031b          	addiw	t1,t1,-1687
    80003384:	00d31313          	slli	t1,t1,0xd
    80003388:	d0d30313          	addi	t1,t1,-755 # ffffffffffe9ed0d <_end+0xffffffff7fe9451d>
    8000338c:	01031313          	slli	t1,t1,0x10
    80003390:	ced30313          	addi	t1,t1,-787
    80003394:	00c31313          	slli	t1,t1,0xc
    80003398:	dcc30313          	addi	t1,t1,-564
    8000339c:	006433a3          	sd	t1,7(s0)
    800033a0:	00743383          	ld	t2,7(s0)
    800033a4:	00730463          	beq	t1,t2,800033ac <userstart+0x86c>
    800033a8:	4100106f          	j	800047b8 <fail>
    800033ac:	03d00193          	li	gp,61
    800033b0:	ffffd337          	lui	t1,0xffffd
    800033b4:	5d43031b          	addiw	t1,t1,1492
    800033b8:	00641fa3          	sh	t1,31(s0)
    800033bc:	01f41383          	lh	t2,31(s0)
    800033c0:	00730463          	beq	t1,t2,800033c8 <userstart+0x888>
    800033c4:	3f40106f          	j	800047b8 <fail>
    800033c8:	03e00193          	li	gp,62
    800033cc:	0000d337          	lui	t1,0xd
    800033d0:	7d63031b          	addiw	t1,t1,2006
    800033d4:	00641fa3          	sh	t1,31(s0)
    800033d8:	01f45383          	lhu	t2,31(s0)
    800033dc:	00730463          	beq	t1,t2,800033e4 <userstart+0x8a4>
    800033e0:	3d80106f          	j	800047b8 <fail>
    800033e4:	03f00193          	li	gp,63
    800033e8:	dbdae337          	lui	t1,0xdbdae
    800033ec:	9d83031b          	addiw	t1,t1,-1576
    800033f0:	00642ea3          	sw	t1,29(s0)
    800033f4:	01d42383          	lw	t2,29(s0)
    800033f8:	00730463          	beq	t1,t2,80003400 <userstart+0x8c0>
    800033fc:	3bc0106f          	j	800047b8 <fail>
    80003400:	04000193          	li	gp,64
    80003404:	dfdee337          	lui	t1,0xdfdee
    80003408:	ddc3031b          	addiw	t1,t1,-548
    8000340c:	00642f23          	sw	t1,30(s0)
    80003410:	01e42383          	lw	t2,30(s0)
    80003414:	00730463          	beq	t1,t2,8000341c <userstart+0x8dc>
    80003418:	3a00106f          	j	800047b8 <fail>
    8000341c:	04100193          	li	gp,65
    80003420:	e3e2e337          	lui	t1,0xe3e2e
    80003424:	1e03031b          	addiw	t1,t1,480
    80003428:	00642fa3          	sw	t1,31(s0)
    8000342c:	01f42383          	lw	t2,31(s0)
    80003430:	00730463          	beq	t1,t2,80003438 <userstart+0x8f8>
    80003434:	3840106f          	j	800047b8 <fail>
    80003438:	04200193          	li	gp,66
    8000343c:	00074337          	lui	t1,0x74
    80003440:	f373031b          	addiw	t1,t1,-201
    80003444:	00d31313          	slli	t1,t1,0xd
    80003448:	5e430313          	addi	t1,t1,1508 # 745e4 <_start-0x7ff8ba1c>
    8000344c:	00642ea3          	sw	t1,29(s0)
    80003450:	01d46383          	lwu	t2,29(s0)
    80003454:	00730463          	beq	t1,t2,8000345c <userstart+0x91c>
    80003458:	3600106f          	j	800047b8 <fail>
    8000345c:	04300193          	li	gp,67
    80003460:	000ec337          	lui	t1,0xec
    80003464:	eaf3031b          	addiw	t1,t1,-337
    80003468:	00c31313          	slli	t1,t1,0xc
    8000346c:	9e830313          	addi	t1,t1,-1560 # eb9e8 <_start-0x7ff14618>
    80003470:	00642f23          	sw	t1,30(s0)
    80003474:	01e46383          	lwu	t2,30(s0)
    80003478:	00730463          	beq	t1,t2,80003480 <userstart+0x940>
    8000347c:	33c0106f          	j	800047b8 <fail>
    80003480:	04400193          	li	gp,68
    80003484:	000f0337          	lui	t1,0xf0
    80003488:	eef3031b          	addiw	t1,t1,-273
    8000348c:	00c31313          	slli	t1,t1,0xc
    80003490:	dec30313          	addi	t1,t1,-532 # efdec <_start-0x7ff10214>
    80003494:	00642fa3          	sw	t1,31(s0)
    80003498:	01f46383          	lwu	t2,31(s0)
    8000349c:	00730463          	beq	t1,t2,800034a4 <userstart+0x964>
    800034a0:	3180106f          	j	800047b8 <fail>
    800034a4:	04500193          	li	gp,69
    800034a8:	fffc0337          	lui	t1,0xfffc0
    800034ac:	b7b3031b          	addiw	t1,t1,-1157
    800034b0:	00f31313          	slli	t1,t1,0xf
    800034b4:	d3d30313          	addi	t1,t1,-707 # fffffffffffbfd3d <_end+0xffffffff7ffb554d>
    800034b8:	00e31313          	slli	t1,t1,0xe
    800034bc:	f2f30313          	addi	t1,t1,-209
    800034c0:	00c31313          	slli	t1,t1,0xc
    800034c4:	1f030313          	addi	t1,t1,496
    800034c8:	00643ca3          	sd	t1,25(s0)
    800034cc:	01943383          	ld	t2,25(s0)
    800034d0:	00730463          	beq	t1,t2,800034d8 <userstart+0x998>
    800034d4:	2e40106f          	j	800047b8 <fail>
    800034d8:	04600193          	li	gp,70
    800034dc:	ffff0337          	lui	t1,0xffff0
    800034e0:	dfd3031b          	addiw	t1,t1,-515
    800034e4:	01031313          	slli	t1,t1,0x10
    800034e8:	bfb30313          	addi	t1,t1,-1029 # fffffffffffefbfb <_end+0xffffffff7ffe540b>
    800034ec:	01031313          	slli	t1,t1,0x10
    800034f0:	9f830313          	addi	t1,t1,-1544
    800034f4:	00643d23          	sd	t1,26(s0)
    800034f8:	01a43383          	ld	t2,26(s0)
    800034fc:	00730463          	beq	t1,t2,80003504 <userstart+0x9c4>
    80003500:	2b80106f          	j	800047b8 <fail>
    80003504:	04700193          	li	gp,71
    80003508:	01c18337          	lui	t1,0x1c18
    8000350c:	1413031b          	addiw	t1,t1,321
    80003510:	01131313          	slli	t1,t1,0x11
    80003514:	18130313          	addi	t1,t1,385 # 1c18181 <_start-0x7e3e7e7f>
    80003518:	01131313          	slli	t1,t1,0x11
    8000351c:	10030313          	addi	t1,t1,256
    80003520:	00643da3          	sd	t1,27(s0)
    80003524:	01b43383          	ld	t2,27(s0)
    80003528:	00730463          	beq	t1,t2,80003530 <userstart+0x9f0>
    8000352c:	28c0106f          	j	800047b8 <fail>
    80003530:	04800193          	li	gp,72
    80003534:	00f0e337          	lui	t1,0xf0e
    80003538:	0d13031b          	addiw	t1,t1,209
    8000353c:	00c31313          	slli	t1,t1,0xc
    80003540:	c0b30313          	addi	t1,t1,-1013 # f0dc0b <_start-0x7f0f23f5>
    80003544:	00c31313          	slli	t1,t1,0xc
    80003548:	0a130313          	addi	t1,t1,161
    8000354c:	00c31313          	slli	t1,t1,0xc
    80003550:	90830313          	addi	t1,t1,-1784
    80003554:	00643e23          	sd	t1,28(s0)
    80003558:	01c43383          	ld	t2,28(s0)
    8000355c:	00730463          	beq	t1,t2,80003564 <userstart+0xa24>
    80003560:	2580106f          	j	800047b8 <fail>
    80003564:	04900193          	li	gp,73
    80003568:	01716337          	lui	t1,0x1716
    8000356c:	1513031b          	addiw	t1,t1,337
    80003570:	00c31313          	slli	t1,t1,0xc
    80003574:	41330313          	addi	t1,t1,1043 # 1716413 <_start-0x7e8e9bed>
    80003578:	00c31313          	slli	t1,t1,0xc
    8000357c:	12130313          	addi	t1,t1,289
    80003580:	00c31313          	slli	t1,t1,0xc
    80003584:	11030313          	addi	t1,t1,272
    80003588:	00643ea3          	sd	t1,29(s0)
    8000358c:	01d43383          	ld	t2,29(s0)
    80003590:	00730463          	beq	t1,t2,80003598 <userstart+0xa58>
    80003594:	2240106f          	j	800047b8 <fail>
    80003598:	04a00193          	li	gp,74
    8000359c:	001f2337          	lui	t1,0x1f2
    800035a0:	e1d3031b          	addiw	t1,t1,-483
    800035a4:	00e31313          	slli	t1,t1,0xe
    800035a8:	70730313          	addi	t1,t1,1799 # 1f2707 <_start-0x7fe0d8f9>
    800035ac:	00d31313          	slli	t1,t1,0xd
    800035b0:	8d130313          	addi	t1,t1,-1839
    800035b4:	00d31313          	slli	t1,t1,0xd
    800035b8:	91830313          	addi	t1,t1,-1768
    800035bc:	00643f23          	sd	t1,30(s0)
    800035c0:	01e43383          	ld	t2,30(s0)
    800035c4:	00730463          	beq	t1,t2,800035cc <userstart+0xa8c>
    800035c8:	1f00106f          	j	800047b8 <fail>
    800035cc:	04b00193          	li	gp,75
    800035d0:	009ca337          	lui	t1,0x9ca
    800035d4:	8953031b          	addiw	t1,t1,-1899
    800035d8:	00c31313          	slli	t1,t1,0xc
    800035dc:	90930313          	addi	t1,t1,-1783 # 9c9909 <_start-0x7f6366f7>
    800035e0:	00d31313          	slli	t1,t1,0xd
    800035e4:	91130313          	addi	t1,t1,-1775
    800035e8:	00d31313          	slli	t1,t1,0xd
    800035ec:	12030313          	addi	t1,t1,288
    800035f0:	00643fa3          	sd	t1,31(s0)
    800035f4:	01f43383          	ld	t2,31(s0)
    800035f8:	00730463          	beq	t1,t2,80003600 <userstart+0xac0>
    800035fc:	1bc0106f          	j	800047b8 <fail>
    80003600:	04c00193          	li	gp,76
    80003604:	00003337          	lui	t1,0x3
    80003608:	5343031b          	addiw	t1,t1,1332
    8000360c:	02641fa3          	sh	t1,63(s0)
    80003610:	03f41383          	lh	t2,63(s0)
    80003614:	00730463          	beq	t1,t2,8000361c <userstart+0xadc>
    80003618:	1a00106f          	j	800047b8 <fail>
    8000361c:	04d00193          	li	gp,77
    80003620:	00003337          	lui	t1,0x3
    80003624:	7363031b          	addiw	t1,t1,1846
    80003628:	02641fa3          	sh	t1,63(s0)
    8000362c:	03f45383          	lhu	t2,63(s0)
    80003630:	00730463          	beq	t1,t2,80003638 <userstart+0xaf8>
    80003634:	1840106f          	j	800047b8 <fail>
    80003638:	04e00193          	li	gp,78
    8000363c:	3b3a4337          	lui	t1,0x3b3a4
    80003640:	9383031b          	addiw	t1,t1,-1736
    80003644:	02642ea3          	sw	t1,61(s0)
    80003648:	03d42383          	lw	t2,61(s0)
    8000364c:	00730463          	beq	t1,t2,80003654 <userstart+0xb14>
    80003650:	1680106f          	j	800047b8 <fail>
    80003654:	04f00193          	li	gp,79
    80003658:	3f3e4337          	lui	t1,0x3f3e4
    8000365c:	d3c3031b          	addiw	t1,t1,-708
    80003660:	02642f23          	sw	t1,62(s0)
    80003664:	03e42383          	lw	t2,62(s0)
    80003668:	00730463          	beq	t1,t2,80003670 <userstart+0xb30>
    8000366c:	14c0106f          	j	800047b8 <fail>
    80003670:	05000193          	li	gp,80
    80003674:	43424337          	lui	t1,0x43424
    80003678:	1403031b          	addiw	t1,t1,320
    8000367c:	02642fa3          	sw	t1,63(s0)
    80003680:	03f42383          	lw	t2,63(s0)
    80003684:	00730463          	beq	t1,t2,8000368c <userstart+0xb4c>
    80003688:	1300106f          	j	800047b8 <fail>
    8000368c:	05100193          	li	gp,81
    80003690:	47464337          	lui	t1,0x47464
    80003694:	5443031b          	addiw	t1,t1,1348
    80003698:	02642ea3          	sw	t1,61(s0)
    8000369c:	03d46383          	lwu	t2,61(s0)
    800036a0:	00730463          	beq	t1,t2,800036a8 <userstart+0xb68>
    800036a4:	1140106f          	j	800047b8 <fail>
    800036a8:	05200193          	li	gp,82
    800036ac:	4b4a5337          	lui	t1,0x4b4a5
    800036b0:	9483031b          	addiw	t1,t1,-1720
    800036b4:	02642f23          	sw	t1,62(s0)
    800036b8:	03e46383          	lwu	t2,62(s0)
    800036bc:	00730463          	beq	t1,t2,800036c4 <userstart+0xb84>
    800036c0:	0f80106f          	j	800047b8 <fail>
    800036c4:	05300193          	li	gp,83
    800036c8:	4f4e5337          	lui	t1,0x4f4e5
    800036cc:	d4c3031b          	addiw	t1,t1,-692
    800036d0:	02642fa3          	sw	t1,63(s0)
    800036d4:	03f46383          	lwu	t2,63(s0)
    800036d8:	00730463          	beq	t1,t2,800036e0 <userstart+0xba0>
    800036dc:	0dc0106f          	j	800047b8 <fail>
    800036e0:	05400193          	li	gp,84
    800036e4:	05756337          	lui	t1,0x5756
    800036e8:	5553031b          	addiw	t1,t1,1365
    800036ec:	00c31313          	slli	t1,t1,0xc
    800036f0:	45330313          	addi	t1,t1,1107 # 5756453 <_start-0x7a8a9bad>
    800036f4:	00c31313          	slli	t1,t1,0xc
    800036f8:	52530313          	addi	t1,t1,1317
    800036fc:	00c31313          	slli	t1,t1,0xc
    80003700:	15030313          	addi	t1,t1,336
    80003704:	02643ca3          	sd	t1,57(s0)
    80003708:	03943383          	ld	t2,57(s0)
    8000370c:	00730463          	beq	t1,t2,80003714 <userstart+0xbd4>
    80003710:	0a80106f          	j	800047b8 <fail>
    80003714:	05500193          	li	gp,85
    80003718:	017d8337          	lui	t1,0x17d8
    8000371c:	9753031b          	addiw	t1,t1,-1675
    80003720:	00c31313          	slli	t1,t1,0xc
    80003724:	71730313          	addi	t1,t1,1815 # 17d8717 <_start-0x7e8278e9>
    80003728:	00d31313          	slli	t1,t1,0xd
    8000372c:	ad330313          	addi	t1,t1,-1325
    80003730:	00d31313          	slli	t1,t1,0xd
    80003734:	95830313          	addi	t1,t1,-1704
    80003738:	02643d23          	sd	t1,58(s0)
    8000373c:	03a43383          	ld	t2,58(s0)
    80003740:	00730463          	beq	t1,t2,80003748 <userstart+0xc08>
    80003744:	0740106f          	j	800047b8 <fail>
    80003748:	05600193          	li	gp,86
    8000374c:	00ced337          	lui	t1,0xced
    80003750:	ccb3031b          	addiw	t1,t1,-821
    80003754:	00d31313          	slli	t1,t1,0xd
    80003758:	91930313          	addi	t1,t1,-1767 # cec919 <_start-0x7f3136e7>
    8000375c:	00d31313          	slli	t1,t1,0xd
    80003760:	b1330313          	addi	t1,t1,-1261
    80003764:	00d31313          	slli	t1,t1,0xd
    80003768:	16030313          	addi	t1,t1,352
    8000376c:	02643da3          	sd	t1,59(s0)
    80003770:	03b43383          	ld	t2,59(s0)
    80003774:	00730463          	beq	t1,t2,8000377c <userstart+0xc3c>
    80003778:	0400106f          	j	800047b8 <fail>
    8000377c:	05700193          	li	gp,87
    80003780:	06f6e337          	lui	t1,0x6f6e
    80003784:	6d73031b          	addiw	t1,t1,1751
    80003788:	00c31313          	slli	t1,t1,0xc
    8000378c:	c6b30313          	addi	t1,t1,-917 # 6f6dc6b <_start-0x79092395>
    80003790:	00c31313          	slli	t1,t1,0xc
    80003794:	6a730313          	addi	t1,t1,1703
    80003798:	00c31313          	slli	t1,t1,0xc
    8000379c:	96830313          	addi	t1,t1,-1688
    800037a0:	02643e23          	sd	t1,60(s0)
    800037a4:	03c43383          	ld	t2,60(s0)
    800037a8:	00730463          	beq	t1,t2,800037b0 <userstart+0xc70>
    800037ac:	00c0106f          	j	800047b8 <fail>
    800037b0:	05800193          	li	gp,88
    800037b4:	07776337          	lui	t1,0x7776
    800037b8:	7573031b          	addiw	t1,t1,1879
    800037bc:	00c31313          	slli	t1,t1,0xc
    800037c0:	47330313          	addi	t1,t1,1139 # 7776473 <_start-0x78889b8d>
    800037c4:	00c31313          	slli	t1,t1,0xc
    800037c8:	72730313          	addi	t1,t1,1831
    800037cc:	00c31313          	slli	t1,t1,0xc
    800037d0:	17030313          	addi	t1,t1,368
    800037d4:	02643ea3          	sd	t1,61(s0)
    800037d8:	03d43383          	ld	t2,61(s0)
    800037dc:	7c731ee3          	bne	t1,t2,800047b8 <fail>
    800037e0:	05900193          	li	gp,89
    800037e4:	00ff0337          	lui	t1,0xff0
    800037e8:	cfb3031b          	addiw	t1,t1,-773
    800037ec:	00c31313          	slli	t1,t1,0xc
    800037f0:	f8f30313          	addi	t1,t1,-113 # feff8f <_start-0x7f010071>
    800037f4:	00c31313          	slli	t1,t1,0xc
    800037f8:	6f530313          	addi	t1,t1,1781
    800037fc:	00f31313          	slli	t1,t1,0xf
    80003800:	97830313          	addi	t1,t1,-1672
    80003804:	02643f23          	sd	t1,62(s0)
    80003808:	03e43383          	ld	t2,62(s0)
    8000380c:	7a7316e3          	bne	t1,t2,800047b8 <fail>
    80003810:	05a00193          	li	gp,90
    80003814:	fff0f337          	lui	t1,0xfff0f
    80003818:	0d13031b          	addiw	t1,t1,209
    8000381c:	00c31313          	slli	t1,t1,0xc
    80003820:	b0930313          	addi	t1,t1,-1271 # fffffffffff0eb09 <_end+0xffffffff7ff04319>
    80003824:	01031313          	slli	t1,t1,0x10
    80003828:	70530313          	addi	t1,t1,1797
    8000382c:	00f31313          	slli	t1,t1,0xf
    80003830:	18030313          	addi	t1,t1,384
    80003834:	02643fa3          	sd	t1,63(s0)
    80003838:	03f43383          	ld	t2,63(s0)
    8000383c:	76731ee3          	bne	t1,t2,800047b8 <fail>
    80003840:	05b00193          	li	gp,91
    80003844:	0000a337          	lui	t1,0xa
    80003848:	9983031b          	addiw	t1,t1,-1640
    8000384c:	f9800393          	li	t2,-104
    80003850:	006410a3          	sh	t1,1(s0)
    80003854:	00140e03          	lb	t3,1(s0)
    80003858:	77c390e3          	bne	t2,t3,800047b8 <fail>
    8000385c:	05c00193          	li	gp,92
    80003860:	0000a337          	lui	t1,0xa
    80003864:	b9a3031b          	addiw	t1,t1,-1126
    80003868:	f9b00393          	li	t2,-101
    8000386c:	006410a3          	sh	t1,1(s0)
    80003870:	00240e03          	lb	t3,2(s0)
    80003874:	75c392e3          	bne	t2,t3,800047b8 <fail>
    80003878:	05d00193          	li	gp,93
    8000387c:	0000a337          	lui	t1,0xa
    80003880:	d9c3031b          	addiw	t1,t1,-612
    80003884:	09c00393          	li	t2,156
    80003888:	006410a3          	sh	t1,1(s0)
    8000388c:	00144e03          	lbu	t3,1(s0)
    80003890:	73c394e3          	bne	t2,t3,800047b8 <fail>
    80003894:	05e00193          	li	gp,94
    80003898:	0000a337          	lui	t1,0xa
    8000389c:	f9e3031b          	addiw	t1,t1,-98
    800038a0:	09f00393          	li	t2,159
    800038a4:	006410a3          	sh	t1,1(s0)
    800038a8:	00244e03          	lbu	t3,2(s0)
    800038ac:	71c396e3          	bne	t2,t3,800047b8 <fail>
    800038b0:	05f00193          	li	gp,95
    800038b4:	00052337          	lui	t1,0x52
    800038b8:	d153031b          	addiw	t1,t1,-747
    800038bc:	00d31313          	slli	t1,t1,0xd
    800038c0:	1a030313          	addi	t1,t1,416 # 521a0 <_start-0x7ffade60>
    800038c4:	fa000393          	li	t2,-96
    800038c8:	006420a3          	sw	t1,1(s0)
    800038cc:	00140e03          	lb	t3,1(s0)
    800038d0:	6fc394e3          	bne	t2,t3,800047b8 <fail>
    800038d4:	06000193          	li	gp,96
    800038d8:	00054337          	lui	t1,0x54
    800038dc:	d353031b          	addiw	t1,t1,-715
    800038e0:	00d31313          	slli	t1,t1,0xd
    800038e4:	5a430313          	addi	t1,t1,1444 # 545a4 <_start-0x7ffaba5c>
    800038e8:	0a500393          	li	t2,165
    800038ec:	00642123          	sw	t1,2(s0)
    800038f0:	00344e03          	lbu	t3,3(s0)
    800038f4:	6dc392e3          	bne	t2,t3,800047b8 <fail>
    800038f8:	06100193          	li	gp,97
    800038fc:	000ac337          	lui	t1,0xac
    80003900:	aab3031b          	addiw	t1,t1,-1365
    80003904:	00c31313          	slli	t1,t1,0xc
    80003908:	9a830313          	addi	t1,t1,-1624 # ab9a8 <_start-0x7ff54658>
    8000390c:	ffffb3b7          	lui	t2,0xffffb
    80003910:	aa93839b          	addiw	t2,t2,-1367
    80003914:	006421a3          	sw	t1,3(s0)
    80003918:	00441e03          	lh	t3,4(s0)
    8000391c:	69c39ee3          	bne	t2,t3,800047b8 <fail>
    80003920:	06200193          	li	gp,98
    80003924:	000b0337          	lui	t1,0xb0
    80003928:	aeb3031b          	addiw	t1,t1,-1301
    8000392c:	00c31313          	slli	t1,t1,0xc
    80003930:	dac30313          	addi	t1,t1,-596 # afdac <_start-0x7ff50254>
    80003934:	0000b3b7          	lui	t2,0xb
    80003938:	fae3839b          	addiw	t2,t2,-82
    8000393c:	006421a3          	sw	t1,3(s0)
    80003940:	00545e03          	lhu	t3,5(s0)
    80003944:	67c39ae3          	bne	t2,t3,800047b8 <fail>
    80003948:	06300193          	li	gp,99
    8000394c:	fedee337          	lui	t1,0xfedee
    80003950:	ad73031b          	addiw	t1,t1,-1321
    80003954:	00c31313          	slli	t1,t1,0xc
    80003958:	d2d30313          	addi	t1,t1,-723 # fffffffffededd2d <_end+0xffffffff7ede353d>
    8000395c:	00e31313          	slli	t1,t1,0xe
    80003960:	b2b30313          	addi	t1,t1,-1237
    80003964:	00c31313          	slli	t1,t1,0xc
    80003968:	1b030313          	addi	t1,t1,432
    8000396c:	fb600393          	li	t2,-74
    80003970:	006430a3          	sd	t1,1(s0)
    80003974:	00740e03          	lb	t3,7(s0)
    80003978:	65c390e3          	bne	t2,t3,800047b8 <fail>
    8000397c:	06400193          	li	gp,100
    80003980:	feff0337          	lui	t1,0xfeff0
    80003984:	af73031b          	addiw	t1,t1,-1289
    80003988:	00c31313          	slli	t1,t1,0xc
    8000398c:	f2f30313          	addi	t1,t1,-209 # fffffffffefeff2f <_end+0xffffffff7efe573f>
    80003990:	00c31313          	slli	t1,t1,0xc
    80003994:	eeb30313          	addi	t1,t1,-277
    80003998:	00e31313          	slli	t1,t1,0xe
    8000399c:	9b830313          	addi	t1,t1,-1608
    800039a0:	0b900393          	li	t2,185
    800039a4:	00643123          	sd	t1,2(s0)
    800039a8:	00344e03          	lbu	t3,3(s0)
    800039ac:	61c396e3          	bne	t2,t3,800047b8 <fail>
    800039b0:	06500193          	li	gp,101
    800039b4:	ff1f2337          	lui	t1,0xff1f2
    800039b8:	b173031b          	addiw	t1,t1,-1257
    800039bc:	00c31313          	slli	t1,t1,0xc
    800039c0:	13130313          	addi	t1,t1,305 # ffffffffff1f2131 <_end+0xffffffff7f1e7941>
    800039c4:	00c31313          	slli	t1,t1,0xc
    800039c8:	f0b30313          	addi	t1,t1,-245
    800039cc:	00e31313          	slli	t1,t1,0xe
    800039d0:	1c030313          	addi	t1,t1,448
    800039d4:	ffffc3b7          	lui	t2,0xffffc
    800039d8:	7c63839b          	addiw	t2,t2,1990
    800039dc:	006431a3          	sd	t1,3(s0)
    800039e0:	00941e03          	lh	t3,9(s0)
    800039e4:	5dc39ae3          	bne	t2,t3,800047b8 <fail>
    800039e8:	06600193          	li	gp,102
    800039ec:	ff3f4337          	lui	t1,0xff3f4
    800039f0:	b373031b          	addiw	t1,t1,-1225
    800039f4:	00c31313          	slli	t1,t1,0xc
    800039f8:	33330313          	addi	t1,t1,819 # ffffffffff3f4333 <_end+0xffffffff7f3e9b43>
    800039fc:	00e31313          	slli	t1,t1,0xe
    80003a00:	cad30313          	addi	t1,t1,-851
    80003a04:	00c31313          	slli	t1,t1,0xc
    80003a08:	9c830313          	addi	t1,t1,-1592
    80003a0c:	0000d3b7          	lui	t2,0xd
    80003a10:	ac93839b          	addiw	t2,t2,-1335
    80003a14:	00643223          	sd	t1,4(s0)
    80003a18:	00545e03          	lhu	t3,5(s0)
    80003a1c:	59c39ee3          	bne	t2,t3,800047b8 <fail>
    80003a20:	06700193          	li	gp,103
    80003a24:	ff5f6337          	lui	t1,0xff5f6
    80003a28:	b573031b          	addiw	t1,t1,-1193
    80003a2c:	00c31313          	slli	t1,t1,0xc
    80003a30:	53530313          	addi	t1,t1,1333 # ffffffffff5f6535 <_end+0xffffffff7f5ebd45>
    80003a34:	00e31313          	slli	t1,t1,0xe
    80003a38:	d2d30313          	addi	t1,t1,-723
    80003a3c:	00c31313          	slli	t1,t1,0xc
    80003a40:	1d030313          	addi	t1,t1,464
    80003a44:	d7d6d3b7          	lui	t2,0xd7d6d
    80003a48:	5d43839b          	addiw	t2,t2,1492
    80003a4c:	006432a3          	sd	t1,5(s0)
    80003a50:	00942e03          	lw	t3,9(s0)
    80003a54:	57c392e3          	bne	t2,t3,800047b8 <fail>
    80003a58:	06800193          	li	gp,104
    80003a5c:	ff7f8337          	lui	t1,0xff7f8
    80003a60:	b773031b          	addiw	t1,t1,-1161
    80003a64:	00c31313          	slli	t1,t1,0xc
    80003a68:	73730313          	addi	t1,t1,1847 # ffffffffff7f8737 <_end+0xffffffff7f7edf47>
    80003a6c:	00d31313          	slli	t1,t1,0xd
    80003a70:	ed730313          	addi	t1,t1,-297
    80003a74:	00d31313          	slli	t1,t1,0xd
    80003a78:	9d830313          	addi	t1,t1,-1576
    80003a7c:	dddce3b7          	lui	t2,0xdddce
    80003a80:	bda3839b          	addiw	t2,t2,-1062
    80003a84:	00643323          	sd	t1,6(s0)
    80003a88:	00842e03          	lw	t3,8(s0)
    80003a8c:	53c396e3          	bne	t2,t3,800047b8 <fail>
    80003a90:	06900193          	li	gp,105
    80003a94:	fff3f337          	lui	t1,0xfff3f
    80003a98:	3733031b          	addiw	t1,t1,883
    80003a9c:	00f31313          	slli	t1,t1,0xf
    80003aa0:	93930313          	addi	t1,t1,-1735 # fffffffffff3e939 <_end+0xffffffff7ff34149>
    80003aa4:	00d31313          	slli	t1,t1,0xd
    80003aa8:	f1730313          	addi	t1,t1,-233
    80003aac:	00d31313          	slli	t1,t1,0xd
    80003ab0:	1e030313          	addi	t1,t1,480
    80003ab4:	000723b7          	lui	t2,0x72
    80003ab8:	71f3839b          	addiw	t2,t2,1823
    80003abc:	00d39393          	slli	t2,t2,0xd
    80003ac0:	2e138393          	addi	t2,t2,737 # 722e1 <_start-0x7ff8dd1f>
    80003ac4:	006433a3          	sd	t1,7(s0)
    80003ac8:	00846e03          	lwu	t3,8(s0)
    80003acc:	4fc396e3          	bne	t2,t3,800047b8 <fail>
    80003ad0:	06a00193          	li	gp,106
    80003ad4:	0000f337          	lui	t1,0xf
    80003ad8:	9e83031b          	addiw	t1,t1,-1560
    80003adc:	fe800393          	li	t2,-24
    80003ae0:	00641fa3          	sh	t1,31(s0)
    80003ae4:	01f40e03          	lb	t3,31(s0)
    80003ae8:	4dc398e3          	bne	t2,t3,800047b8 <fail>
    80003aec:	06b00193          	li	gp,107
    80003af0:	0000f337          	lui	t1,0xf
    80003af4:	bea3031b          	addiw	t1,t1,-1046
    80003af8:	feb00393          	li	t2,-21
    80003afc:	00641fa3          	sh	t1,31(s0)
    80003b00:	02040e03          	lb	t3,32(s0)
    80003b04:	4bc39ae3          	bne	t2,t3,800047b8 <fail>
    80003b08:	06c00193          	li	gp,108
    80003b0c:	0000f337          	lui	t1,0xf
    80003b10:	dec3031b          	addiw	t1,t1,-532
    80003b14:	0ec00393          	li	t2,236
    80003b18:	00641fa3          	sh	t1,31(s0)
    80003b1c:	01f44e03          	lbu	t3,31(s0)
    80003b20:	49c39ce3          	bne	t2,t3,800047b8 <fail>
    80003b24:	06d00193          	li	gp,109
    80003b28:	0000f337          	lui	t1,0xf
    80003b2c:	fee3031b          	addiw	t1,t1,-18
    80003b30:	0ef00393          	li	t2,239
    80003b34:	00641fa3          	sh	t1,31(s0)
    80003b38:	02044e03          	lbu	t3,32(s0)
    80003b3c:	47c39ee3          	bne	t2,t3,800047b8 <fail>
    80003b40:	06e00193          	li	gp,110
    80003b44:	000f4337          	lui	t1,0xf4
    80003b48:	f2f3031b          	addiw	t1,t1,-209
    80003b4c:	00c31313          	slli	t1,t1,0xc
    80003b50:	1f030313          	addi	t1,t1,496 # f41f0 <_start-0x7ff0be10>
    80003b54:	ff000393          	li	t2,-16
    80003b58:	00642ea3          	sw	t1,29(s0)
    80003b5c:	01d40e03          	lb	t3,29(s0)
    80003b60:	45c39ce3          	bne	t2,t3,800047b8 <fail>
    80003b64:	06f00193          	li	gp,111
    80003b68:	000f8337          	lui	t1,0xf8
    80003b6c:	f6f3031b          	addiw	t1,t1,-145
    80003b70:	00c31313          	slli	t1,t1,0xc
    80003b74:	5f430313          	addi	t1,t1,1524 # f85f4 <_start-0x7ff07a0c>
    80003b78:	0f600393          	li	t2,246
    80003b7c:	00642f23          	sw	t1,30(s0)
    80003b80:	02044e03          	lbu	t3,32(s0)
    80003b84:	43c39ae3          	bne	t2,t3,800047b8 <fail>
    80003b88:	07000193          	li	gp,112
    80003b8c:	00010337          	lui	t1,0x10
    80003b90:	bfb3031b          	addiw	t1,t1,-1029
    80003b94:	01031313          	slli	t1,t1,0x10
    80003b98:	9f830313          	addi	t1,t1,-1544 # f9f8 <_start-0x7fff0608>
    80003b9c:	bfa00393          	li	t2,-1030
    80003ba0:	00642ea3          	sw	t1,29(s0)
    80003ba4:	01f41e03          	lh	t3,31(s0)
    80003ba8:	41c398e3          	bne	t2,t3,800047b8 <fail>
    80003bac:	07100193          	li	gp,113
    80003bb0:	00010337          	lui	t1,0x10
    80003bb4:	fff3031b          	addiw	t1,t1,-1
    80003bb8:	01031313          	slli	t1,t1,0x10
    80003bbc:	dfc30313          	addi	t1,t1,-516 # fdfc <_start-0x7fff0204>
    80003bc0:	000103b7          	lui	t2,0x10
    80003bc4:	dfc3839b          	addiw	t2,t2,-516
    80003bc8:	00642fa3          	sw	t1,31(s0)
    80003bcc:	01f45e03          	lhu	t3,31(s0)
    80003bd0:	3fc394e3          	bne	t2,t3,800047b8 <fail>
    80003bd4:	07200193          	li	gp,114
    80003bd8:	01c18337          	lui	t1,0x1c18
    80003bdc:	1413031b          	addiw	t1,t1,321
    80003be0:	01131313          	slli	t1,t1,0x11
    80003be4:	18130313          	addi	t1,t1,385 # 1c18181 <_start-0x7e3e7e7f>
    80003be8:	01131313          	slli	t1,t1,0x11
    80003bec:	10030313          	addi	t1,t1,256
    80003bf0:	00700393          	li	t2,7
    80003bf4:	00643ca3          	sd	t1,25(s0)
    80003bf8:	02040e03          	lb	t3,32(s0)
    80003bfc:	3bc39ee3          	bne	t2,t3,800047b8 <fail>
    80003c00:	07300193          	li	gp,115
    80003c04:	00f0e337          	lui	t1,0xf0e
    80003c08:	0d13031b          	addiw	t1,t1,209
    80003c0c:	00c31313          	slli	t1,t1,0xc
    80003c10:	c0b30313          	addi	t1,t1,-1013 # f0dc0b <_start-0x7f0f23f5>
    80003c14:	00c31313          	slli	t1,t1,0xc
    80003c18:	0a130313          	addi	t1,t1,161
    80003c1c:	00c31313          	slli	t1,t1,0xc
    80003c20:	90830313          	addi	t1,t1,-1784
    80003c24:	00f00393          	li	t2,15
    80003c28:	00643d23          	sd	t1,26(s0)
    80003c2c:	02144e03          	lbu	t3,33(s0)
    80003c30:	39c394e3          	bne	t2,t3,800047b8 <fail>
    80003c34:	07400193          	li	gp,116
    80003c38:	01716337          	lui	t1,0x1716
    80003c3c:	1513031b          	addiw	t1,t1,337
    80003c40:	00c31313          	slli	t1,t1,0xc
    80003c44:	41330313          	addi	t1,t1,1043 # 1716413 <_start-0x7e8e9bed>
    80003c48:	00c31313          	slli	t1,t1,0xc
    80003c4c:	12130313          	addi	t1,t1,289
    80003c50:	00c31313          	slli	t1,t1,0xc
    80003c54:	11030313          	addi	t1,t1,272
    80003c58:	000013b7          	lui	t2,0x1
    80003c5c:	5143839b          	addiw	t2,t2,1300
    80003c60:	00643da3          	sd	t1,27(s0)
    80003c64:	01f41e03          	lh	t3,31(s0)
    80003c68:	35c398e3          	bne	t2,t3,800047b8 <fail>
    80003c6c:	07500193          	li	gp,117
    80003c70:	001f2337          	lui	t1,0x1f2
    80003c74:	e1d3031b          	addiw	t1,t1,-483
    80003c78:	00e31313          	slli	t1,t1,0xe
    80003c7c:	70730313          	addi	t1,t1,1799 # 1f2707 <_start-0x7fe0d8f9>
    80003c80:	00d31313          	slli	t1,t1,0xd
    80003c84:	8d130313          	addi	t1,t1,-1839
    80003c88:	00d31313          	slli	t1,t1,0xd
    80003c8c:	91830313          	addi	t1,t1,-1768
    80003c90:	000023b7          	lui	t2,0x2
    80003c94:	c1b3839b          	addiw	t2,t2,-997
    80003c98:	00643e23          	sd	t1,28(s0)
    80003c9c:	01f45e03          	lhu	t3,31(s0)
    80003ca0:	31c39ce3          	bne	t2,t3,800047b8 <fail>
    80003ca4:	07600193          	li	gp,118
    80003ca8:	009ca337          	lui	t1,0x9ca
    80003cac:	8953031b          	addiw	t1,t1,-1899
    80003cb0:	00c31313          	slli	t1,t1,0xc
    80003cb4:	90930313          	addi	t1,t1,-1783 # 9c9909 <_start-0x7f6366f7>
    80003cb8:	00d31313          	slli	t1,t1,0xd
    80003cbc:	91130313          	addi	t1,t1,-1775
    80003cc0:	00d31313          	slli	t1,t1,0xd
    80003cc4:	12030313          	addi	t1,t1,288
    80003cc8:	232223b7          	lui	t2,0x23222
    80003ccc:	1203839b          	addiw	t2,t2,288
    80003cd0:	00643ea3          	sd	t1,29(s0)
    80003cd4:	01d42e03          	lw	t3,29(s0)
    80003cd8:	2fc390e3          	bne	t2,t3,800047b8 <fail>
    80003cdc:	07700193          	li	gp,119
    80003ce0:	02f2e337          	lui	t1,0x2f2e
    80003ce4:	2d33031b          	addiw	t1,t1,723
    80003ce8:	00c31313          	slli	t1,t1,0xc
    80003cec:	c2b30313          	addi	t1,t1,-981 # 2f2dc2b <_start-0x7d0d23d5>
    80003cf0:	00c31313          	slli	t1,t1,0xc
    80003cf4:	2a330313          	addi	t1,t1,675
    80003cf8:	00c31313          	slli	t1,t1,0xc
    80003cfc:	92830313          	addi	t1,t1,-1752
    80003d00:	2b2a33b7          	lui	t2,0x2b2a3
    80003d04:	9283839b          	addiw	t2,t2,-1752
    80003d08:	00643f23          	sd	t1,30(s0)
    80003d0c:	01e42e03          	lw	t3,30(s0)
    80003d10:	2bc394e3          	bne	t2,t3,800047b8 <fail>
    80003d14:	07800193          	li	gp,120
    80003d18:	03736337          	lui	t1,0x3736
    80003d1c:	3533031b          	addiw	t1,t1,851
    80003d20:	00c31313          	slli	t1,t1,0xc
    80003d24:	43330313          	addi	t1,t1,1075 # 3736433 <_start-0x7c8c9bcd>
    80003d28:	00c31313          	slli	t1,t1,0xc
    80003d2c:	32330313          	addi	t1,t1,803
    80003d30:	00c31313          	slli	t1,t1,0xc
    80003d34:	13030313          	addi	t1,t1,304
    80003d38:	333233b7          	lui	t2,0x33323
    80003d3c:	1303839b          	addiw	t2,t2,304
    80003d40:	00643fa3          	sd	t1,31(s0)
    80003d44:	01f46e03          	lwu	t3,31(s0)
    80003d48:	27c398e3          	bne	t2,t3,800047b8 <fail>
    80003d4c:	07900193          	li	gp,121
    80003d50:	00005337          	lui	t1,0x5
    80003d54:	9483031b          	addiw	t1,t1,-1720
    80003d58:	04800393          	li	t2,72
    80003d5c:	02641fa3          	sh	t1,63(s0)
    80003d60:	03f40e03          	lb	t3,63(s0)
    80003d64:	25c39ae3          	bne	t2,t3,800047b8 <fail>
    80003d68:	07a00193          	li	gp,122
    80003d6c:	00005337          	lui	t1,0x5
    80003d70:	b4a3031b          	addiw	t1,t1,-1206
    80003d74:	04b00393          	li	t2,75
    80003d78:	02641fa3          	sh	t1,63(s0)
    80003d7c:	04040e03          	lb	t3,64(s0)
    80003d80:	23c39ce3          	bne	t2,t3,800047b8 <fail>
    80003d84:	07b00193          	li	gp,123
    80003d88:	00005337          	lui	t1,0x5
    80003d8c:	d4c3031b          	addiw	t1,t1,-692
    80003d90:	04c00393          	li	t2,76
    80003d94:	02641fa3          	sh	t1,63(s0)
    80003d98:	03f44e03          	lbu	t3,63(s0)
    80003d9c:	21c39ee3          	bne	t2,t3,800047b8 <fail>
    80003da0:	07c00193          	li	gp,124
    80003da4:	00005337          	lui	t1,0x5
    80003da8:	f4e3031b          	addiw	t1,t1,-178
    80003dac:	04f00393          	li	t2,79
    80003db0:	02641fa3          	sh	t1,63(s0)
    80003db4:	04044e03          	lbu	t3,64(s0)
    80003db8:	21c390e3          	bne	t2,t3,800047b8 <fail>
    80003dbc:	07d00193          	li	gp,125
    80003dc0:	53525337          	lui	t1,0x53525
    80003dc4:	1503031b          	addiw	t1,t1,336
    80003dc8:	05000393          	li	t2,80
    80003dcc:	02642ea3          	sw	t1,61(s0)
    80003dd0:	03d40e03          	lb	t3,61(s0)
    80003dd4:	1fc392e3          	bne	t2,t3,800047b8 <fail>
    80003dd8:	07e00193          	li	gp,126
    80003ddc:	57565337          	lui	t1,0x57565
    80003de0:	5543031b          	addiw	t1,t1,1364
    80003de4:	05600393          	li	t2,86
    80003de8:	02642f23          	sw	t1,62(s0)
    80003dec:	04044e03          	lbu	t3,64(s0)
    80003df0:	1dc394e3          	bne	t2,t3,800047b8 <fail>
    80003df4:	07f00193          	li	gp,127
    80003df8:	5b5a6337          	lui	t1,0x5b5a6
    80003dfc:	9583031b          	addiw	t1,t1,-1704
    80003e00:	000063b7          	lui	t2,0x6
    80003e04:	b5a3839b          	addiw	t2,t2,-1190
    80003e08:	02642ea3          	sw	t1,61(s0)
    80003e0c:	03f41e03          	lh	t3,63(s0)
    80003e10:	1bc394e3          	bne	t2,t3,800047b8 <fail>
    80003e14:	08000193          	li	gp,128
    80003e18:	5f5e6337          	lui	t1,0x5f5e6
    80003e1c:	d5c3031b          	addiw	t1,t1,-676
    80003e20:	000063b7          	lui	t2,0x6
    80003e24:	d5c3839b          	addiw	t2,t2,-676
    80003e28:	02642fa3          	sw	t1,63(s0)
    80003e2c:	03f45e03          	lhu	t3,63(s0)
    80003e30:	19c394e3          	bne	t2,t3,800047b8 <fail>
    80003e34:	08100193          	li	gp,129
    80003e38:	00ced337          	lui	t1,0xced
    80003e3c:	ccb3031b          	addiw	t1,t1,-821
    80003e40:	00d31313          	slli	t1,t1,0xd
    80003e44:	91930313          	addi	t1,t1,-1767 # cec919 <_start-0x7f3136e7>
    80003e48:	00d31313          	slli	t1,t1,0xd
    80003e4c:	b1330313          	addi	t1,t1,-1261
    80003e50:	00d31313          	slli	t1,t1,0xd
    80003e54:	16030313          	addi	t1,t1,352
    80003e58:	06700393          	li	t2,103
    80003e5c:	02643ca3          	sd	t1,57(s0)
    80003e60:	04040e03          	lb	t3,64(s0)
    80003e64:	15c39ae3          	bne	t2,t3,800047b8 <fail>
    80003e68:	08200193          	li	gp,130
    80003e6c:	06f6e337          	lui	t1,0x6f6e
    80003e70:	6d73031b          	addiw	t1,t1,1751
    80003e74:	00c31313          	slli	t1,t1,0xc
    80003e78:	c6b30313          	addi	t1,t1,-917 # 6f6dc6b <_start-0x79092395>
    80003e7c:	00c31313          	slli	t1,t1,0xc
    80003e80:	6a730313          	addi	t1,t1,1703
    80003e84:	00c31313          	slli	t1,t1,0xc
    80003e88:	96830313          	addi	t1,t1,-1688
    80003e8c:	06f00393          	li	t2,111
    80003e90:	02643d23          	sd	t1,58(s0)
    80003e94:	04144e03          	lbu	t3,65(s0)
    80003e98:	13c390e3          	bne	t2,t3,800047b8 <fail>
    80003e9c:	08300193          	li	gp,131
    80003ea0:	07776337          	lui	t1,0x7776
    80003ea4:	7573031b          	addiw	t1,t1,1879
    80003ea8:	00c31313          	slli	t1,t1,0xc
    80003eac:	47330313          	addi	t1,t1,1139 # 7776473 <_start-0x78889b8d>
    80003eb0:	00c31313          	slli	t1,t1,0xc
    80003eb4:	72730313          	addi	t1,t1,1831
    80003eb8:	00c31313          	slli	t1,t1,0xc
    80003ebc:	17030313          	addi	t1,t1,368
    80003ec0:	000073b7          	lui	t2,0x7
    80003ec4:	5743839b          	addiw	t2,t2,1396
    80003ec8:	02643da3          	sd	t1,59(s0)
    80003ecc:	03f41e03          	lh	t3,63(s0)
    80003ed0:	0fc394e3          	bne	t2,t3,800047b8 <fail>
    80003ed4:	08400193          	li	gp,132
    80003ed8:	00ff0337          	lui	t1,0xff0
    80003edc:	cfb3031b          	addiw	t1,t1,-773
    80003ee0:	00c31313          	slli	t1,t1,0xc
    80003ee4:	f8f30313          	addi	t1,t1,-113 # feff8f <_start-0x7f010071>
    80003ee8:	00c31313          	slli	t1,t1,0xc
    80003eec:	6f530313          	addi	t1,t1,1781
    80003ef0:	00f31313          	slli	t1,t1,0xf
    80003ef4:	97830313          	addi	t1,t1,-1672
    80003ef8:	000083b7          	lui	t2,0x8
    80003efc:	c7b3839b          	addiw	t2,t2,-901
    80003f00:	02643e23          	sd	t1,60(s0)
    80003f04:	03f45e03          	lhu	t3,63(s0)
    80003f08:	0bc398e3          	bne	t2,t3,800047b8 <fail>
    80003f0c:	08500193          	li	gp,133
    80003f10:	fff0f337          	lui	t1,0xfff0f
    80003f14:	0d13031b          	addiw	t1,t1,209
    80003f18:	00c31313          	slli	t1,t1,0xc
    80003f1c:	b0930313          	addi	t1,t1,-1271 # fffffffffff0eb09 <_end+0xffffffff7ff04319>
    80003f20:	01031313          	slli	t1,t1,0x10
    80003f24:	70530313          	addi	t1,t1,1797
    80003f28:	00f31313          	slli	t1,t1,0xf
    80003f2c:	18030313          	addi	t1,t1,384
    80003f30:	838283b7          	lui	t2,0x83828
    80003f34:	1803839b          	addiw	t2,t2,384
    80003f38:	02643ea3          	sd	t1,61(s0)
    80003f3c:	03d42e03          	lw	t3,61(s0)
    80003f40:	07c39ce3          	bne	t2,t3,800047b8 <fail>
    80003f44:	08600193          	li	gp,134
    80003f48:	ff1f2337          	lui	t1,0xff1f2
    80003f4c:	d1b3031b          	addiw	t1,t1,-741
    80003f50:	00d31313          	slli	t1,t1,0xd
    80003f54:	32330313          	addi	t1,t1,803 # ffffffffff1f2323 <_end+0xffffffff7f1e7b33>
    80003f58:	00e31313          	slli	t1,t1,0xe
    80003f5c:	8a930313          	addi	t1,t1,-1879
    80003f60:	00c31313          	slli	t1,t1,0xc
    80003f64:	98830313          	addi	t1,t1,-1656
    80003f68:	8b8a93b7          	lui	t2,0x8b8a9
    80003f6c:	9883839b          	addiw	t2,t2,-1656
    80003f70:	02643f23          	sd	t1,62(s0)
    80003f74:	03e42e03          	lw	t3,62(s0)
    80003f78:	05c390e3          	bne	t2,t3,800047b8 <fail>
    80003f7c:	08700193          	li	gp,135
    80003f80:	ff2f3337          	lui	t1,0xff2f3
    80003f84:	d2b3031b          	addiw	t1,t1,-725
    80003f88:	00d31313          	slli	t1,t1,0xd
    80003f8c:	52530313          	addi	t1,t1,1317 # ffffffffff2f3525 <_end+0xffffffff7f2e8d35>
    80003f90:	00e31313          	slli	t1,t1,0xe
    80003f94:	92930313          	addi	t1,t1,-1751
    80003f98:	00c31313          	slli	t1,t1,0xc
    80003f9c:	19030313          	addi	t1,t1,400
    80003fa0:	000943b7          	lui	t2,0x94
    80003fa4:	9293839b          	addiw	t2,t2,-1751
    80003fa8:	00c39393          	slli	t2,t2,0xc
    80003fac:	19038393          	addi	t2,t2,400 # 94190 <_start-0x7ff6be70>
    80003fb0:	02643fa3          	sd	t1,63(s0)
    80003fb4:	03f46e03          	lwu	t3,63(s0)
    80003fb8:	01c390e3          	bne	t2,t3,800047b8 <fail>
    80003fbc:	08800193          	li	gp,136
    80003fc0:	09800313          	li	t1,152
    80003fc4:	ffffc3b7          	lui	t2,0xffffc
    80003fc8:	8983839b          	addiw	t2,t2,-1896
    80003fcc:	006400a3          	sb	t1,1(s0)
    80003fd0:	00141e03          	lh	t3,1(s0)
    80003fd4:	7fc39263          	bne	t2,t3,800047b8 <fail>
    80003fd8:	08900193          	li	gp,137
    80003fdc:	09900313          	li	t1,153
    80003fe0:	0000a3b7          	lui	t2,0xa
    80003fe4:	9983839b          	addiw	t2,t2,-1640
    80003fe8:	00640123          	sb	t1,2(s0)
    80003fec:	00145e03          	lhu	t3,1(s0)
    80003ff0:	7dc39463          	bne	t2,t3,800047b8 <fail>
    80003ff4:	08a00193          	li	gp,138
    80003ff8:	0000a337          	lui	t1,0xa
    80003ffc:	b9a3031b          	addiw	t1,t1,-1126
    80004000:	c8c0a3b7          	lui	t2,0xc8c0a
    80004004:	b9a3839b          	addiw	t2,t2,-1126
    80004008:	006410a3          	sh	t1,1(s0)
    8000400c:	00142e03          	lw	t3,1(s0)
    80004010:	7bc39463          	bne	t2,t3,800047b8 <fail>
    80004014:	08b00193          	li	gp,139
    80004018:	0000a337          	lui	t1,0xa
    8000401c:	d9c3031b          	addiw	t1,t1,-612
    80004020:	d09da3b7          	lui	t2,0xd09da
    80004024:	c9b3839b          	addiw	t2,t2,-869
    80004028:	006411a3          	sh	t1,3(s0)
    8000402c:	00242e03          	lw	t3,2(s0)
    80004030:	79c39463          	bne	t2,t3,800047b8 <fail>
    80004034:	08c00193          	li	gp,140
    80004038:	0000a337          	lui	t1,0xa
    8000403c:	f9e3031b          	addiw	t1,t1,-98
    80004040:	9f9ea3b7          	lui	t2,0x9f9ea
    80004044:	d9c3839b          	addiw	t2,t2,-612
    80004048:	006412a3          	sh	t1,5(s0)
    8000404c:	00342e03          	lw	t3,3(s0)
    80004050:	77c39463          	bne	t2,t3,800047b8 <fail>
    80004054:	08d00193          	li	gp,141
    80004058:	0a000313          	li	t1,160
    8000405c:	0004f3b7          	lui	t2,0x4f
    80004060:	ce53839b          	addiw	t2,t2,-795
    80004064:	00d39393          	slli	t2,t2,0xd
    80004068:	09a38393          	addi	t2,t2,154 # 4f09a <_start-0x7ffb0f66>
    8000406c:	00640123          	sb	t1,2(s0)
    80004070:	00146e03          	lwu	t3,1(s0)
    80004074:	75c39263          	bne	t2,t3,800047b8 <fail>
    80004078:	08e00193          	li	gp,142
    8000407c:	0000a337          	lui	t1,0xa
    80004080:	2a13031b          	addiw	t1,t1,673
    80004084:	0004f3b7          	lui	t2,0x4f
    80004088:	5153839b          	addiw	t2,t2,1301
    8000408c:	00d39393          	slli	t2,t2,0xd
    80004090:	1a038393          	addi	t2,t2,416 # 4f1a0 <_start-0x7ffb0e60>
    80004094:	006411a3          	sh	t1,3(s0)
    80004098:	00246e03          	lwu	t3,2(s0)
    8000409c:	71c39e63          	bne	t2,t3,800047b8 <fail>
    800040a0:	08f00193          	li	gp,143
    800040a4:	0000a337          	lui	t1,0xa
    800040a8:	4a33031b          	addiw	t1,t1,1187
    800040ac:	000523b7          	lui	t2,0x52
    800040b0:	51d3839b          	addiw	t2,t2,1309
    800040b4:	00d39393          	slli	t2,t2,0xd
    800040b8:	2a138393          	addi	t2,t2,673 # 522a1 <_start-0x7ffadd5f>
    800040bc:	006412a3          	sh	t1,5(s0)
    800040c0:	00346e03          	lwu	t3,3(s0)
    800040c4:	6fc39a63          	bne	t2,t3,800047b8 <fail>
    800040c8:	09000193          	li	gp,144
    800040cc:	0a500313          	li	t1,165
    800040d0:	ff0f03b7          	lui	t2,0xff0f0
    800040d4:	5253839b          	addiw	t2,t2,1317
    800040d8:	00c39393          	slli	t2,t2,0xc
    800040dc:	1d138393          	addi	t2,t2,465 # ffffffffff0f01d1 <_end+0xffffffff7f0e59e1>
    800040e0:	00c39393          	slli	t2,t2,0xc
    800040e4:	50d38393          	addi	t2,t2,1293
    800040e8:	00d39393          	slli	t2,t2,0xd
    800040ec:	59a38393          	addi	t2,t2,1434
    800040f0:	00640123          	sb	t1,2(s0)
    800040f4:	00143e03          	ld	t3,1(s0)
    800040f8:	6dc39063          	bne	t2,t3,800047b8 <fail>
    800040fc:	09100193          	li	gp,145
    80004100:	0000a337          	lui	t1,0xa
    80004104:	7a63031b          	addiw	t1,t1,1958
    80004108:	ff8aa3b7          	lui	t2,0xff8aa
    8000410c:	e9b3839b          	addiw	t2,t2,-357
    80004110:	00c39393          	slli	t2,t2,0xc
    80004114:	92938393          	addi	t2,t2,-1751 # ffffffffff8a9929 <_end+0xffffffff7f89f139>
    80004118:	00d39393          	slli	t2,t2,0xd
    8000411c:	d1538393          	addi	t2,t2,-747
    80004120:	00d39393          	slli	t2,t2,0xd
    80004124:	1a538393          	addi	t2,t2,421
    80004128:	006413a3          	sh	t1,7(s0)
    8000412c:	00243e03          	ld	t3,2(s0)
    80004130:	69c39463          	bne	t2,t3,800047b8 <fail>
    80004134:	09200193          	li	gp,146
    80004138:	0000b337          	lui	t1,0xb
    8000413c:	9a83031b          	addiw	t1,t1,-1624
    80004140:	fea6a3b7          	lui	t2,0xfea6a
    80004144:	29f3839b          	addiw	t2,t2,671
    80004148:	00c39393          	slli	t2,t2,0xc
    8000414c:	9a938393          	addi	t2,t2,-1623 # fffffffffea699a9 <_end+0xffffffff7ea5f1b9>
    80004150:	00d39393          	slli	t2,t2,0xd
    80004154:	51d38393          	addi	t2,t2,1309
    80004158:	00d39393          	slli	t2,t2,0xd
    8000415c:	2a138393          	addi	t2,t2,673
    80004160:	006414a3          	sh	t1,9(s0)
    80004164:	00343e03          	ld	t3,3(s0)
    80004168:	65c39863          	bne	t2,t3,800047b8 <fail>
    8000416c:	09300193          	li	gp,147
    80004170:	000ae337          	lui	t1,0xae
    80004174:	acb3031b          	addiw	t1,t1,-1333
    80004178:	00c31313          	slli	t1,t1,0xc
    8000417c:	baa30313          	addi	t1,t1,-1110 # adbaa <_start-0x7ff52456>
    80004180:	fe4aa3b7          	lui	t2,0xfe4aa
    80004184:	a8b3839b          	addiw	t2,t2,-1397
    80004188:	00c39393          	slli	t2,t2,0xc
    8000418c:	dad38393          	addi	t2,t2,-595 # fffffffffe4a9dad <_end+0xffffffff7e49f5bd>
    80004190:	00c39393          	slli	t2,t2,0xc
    80004194:	abb38393          	addi	t2,t2,-1349
    80004198:	00c39393          	slli	t2,t2,0xc
    8000419c:	aa238393          	addi	t2,t2,-1374
    800041a0:	006422a3          	sw	t1,5(s0)
    800041a4:	00443e03          	ld	t3,4(s0)
    800041a8:	61c39863          	bne	t2,t3,800047b8 <fail>
    800041ac:	09400193          	li	gp,148
    800041b0:	000b2337          	lui	t1,0xb2
    800041b4:	b0b3031b          	addiw	t1,t1,-1269
    800041b8:	00c31313          	slli	t1,t1,0xc
    800041bc:	fae30313          	addi	t1,t1,-82 # b1fae <_start-0x7ff4e052>
    800041c0:	fff2f3b7          	lui	t2,0xfff2f
    800041c4:	2593839b          	addiw	t2,t2,601
    800041c8:	00d39393          	slli	t2,t2,0xd
    800041cc:	b0b38393          	addi	t2,t2,-1269 # fffffffffff2eb0b <_end+0xffffffff7ff2431b>
    800041d0:	01039393          	slli	t2,t2,0x10
    800041d4:	aeb38393          	addi	t2,t2,-1301
    800041d8:	00c39393          	slli	t2,t2,0xc
    800041dc:	baa38393          	addi	t2,t2,-1110
    800041e0:	006423a3          	sw	t1,7(s0)
    800041e4:	00543e03          	ld	t3,5(s0)
    800041e8:	5dc39863          	bne	t2,t3,800047b8 <fail>
    800041ec:	09500193          	li	gp,149
    800041f0:	000b6337          	lui	t1,0xb6
    800041f4:	b4b3031b          	addiw	t1,t1,-1205
    800041f8:	00c31313          	slli	t1,t1,0xc
    800041fc:	3b230313          	addi	t1,t1,946 # b63b2 <_start-0x7ff49c4e>
    80004200:	fe6b63b7          	lui	t2,0xfe6b6
    80004204:	b4b3839b          	addiw	t2,t2,-1205
    80004208:	00c39393          	slli	t2,t2,0xc
    8000420c:	3b338393          	addi	t2,t2,947 # fffffffffe6b63b3 <_end+0xffffffff7e6abbc3>
    80004210:	00c39393          	slli	t2,t2,0xc
    80004214:	afb38393          	addi	t2,t2,-1285
    80004218:	00c39393          	slli	t2,t2,0xc
    8000421c:	eab38393          	addi	t2,t2,-341
    80004220:	006424a3          	sw	t1,9(s0)
    80004224:	00643e03          	ld	t3,6(s0)
    80004228:	59c39863          	bne	t2,t3,800047b8 <fail>
    8000422c:	09600193          	li	gp,150
    80004230:	000ba337          	lui	t1,0xba
    80004234:	b8b3031b          	addiw	t1,t1,-1141
    80004238:	00c31313          	slli	t1,t1,0xc
    8000423c:	7b630313          	addi	t1,t1,1974 # ba7b6 <_start-0x7ff4584a>
    80004240:	fee6e3b7          	lui	t2,0xfee6e
    80004244:	2df3839b          	addiw	t2,t2,735
    80004248:	00c39393          	slli	t2,t2,0xc
    8000424c:	dad38393          	addi	t2,t2,-595 # fffffffffee6ddad <_end+0xffffffff7ee635bd>
    80004250:	00e39393          	slli	t2,t2,0xe
    80004254:	b2b38393          	addi	t2,t2,-1237
    80004258:	00c39393          	slli	t2,t2,0xc
    8000425c:	fae38393          	addi	t2,t2,-82
    80004260:	006425a3          	sw	t1,11(s0)
    80004264:	00743e03          	ld	t3,7(s0)
    80004268:	55c39863          	bne	t2,t3,800047b8 <fail>
    8000426c:	09700193          	li	gp,151
    80004270:	0ba00313          	li	t1,186
    80004274:	000033b7          	lui	t2,0x3
    80004278:	1ba3839b          	addiw	t2,t2,442
    8000427c:	00640fa3          	sb	t1,31(s0)
    80004280:	01f41e03          	lh	t3,31(s0)
    80004284:	53c39a63          	bne	t2,t3,800047b8 <fail>
    80004288:	09800193          	li	gp,152
    8000428c:	0bb00313          	li	t1,187
    80004290:	0000c3b7          	lui	t2,0xc
    80004294:	bba3839b          	addiw	t2,t2,-1094
    80004298:	02640023          	sb	t1,32(s0)
    8000429c:	01f45e03          	lhu	t3,31(s0)
    800042a0:	51c39c63          	bne	t2,t3,800047b8 <fail>
    800042a4:	09900193          	li	gp,153
    800042a8:	0000c337          	lui	t1,0xc
    800042ac:	dbc3031b          	addiw	t1,t1,-580
    800042b0:	32bbc3b7          	lui	t2,0x32bbc
    800042b4:	dbc3839b          	addiw	t2,t2,-580
    800042b8:	00641f23          	sh	t1,30(s0)
    800042bc:	01e42e03          	lw	t3,30(s0)
    800042c0:	4fc39c63          	bne	t2,t3,800047b8 <fail>
    800042c4:	09a00193          	li	gp,154
    800042c8:	0000c337          	lui	t1,0xc
    800042cc:	fbe3031b          	addiw	t1,t1,-66
    800042d0:	32bfc3b7          	lui	t2,0x32bfc
    800042d4:	ebc3839b          	addiw	t2,t2,-324
    800042d8:	00641fa3          	sh	t1,31(s0)
    800042dc:	01e42e03          	lw	t3,30(s0)
    800042e0:	4dc39c63          	bne	t2,t3,800047b8 <fail>
    800042e4:	09b00193          	li	gp,155
    800042e8:	0000c337          	lui	t1,0xc
    800042ec:	1c03031b          	addiw	t1,t1,448
    800042f0:	c1c0c3b7          	lui	t2,0xc1c0c
    800042f4:	ebc3839b          	addiw	t2,t2,-324
    800042f8:	02641023          	sh	t1,32(s0)
    800042fc:	01e42e03          	lw	t3,30(s0)
    80004300:	4bc39c63          	bne	t2,t3,800047b8 <fail>
    80004304:	09c00193          	li	gp,156
    80004308:	0c200313          	li	t1,194
    8000430c:	33c1c3b7          	lui	t2,0x33c1c
    80004310:	2be3839b          	addiw	t2,t2,702
    80004314:	02640023          	sb	t1,32(s0)
    80004318:	01f46e03          	lwu	t3,31(s0)
    8000431c:	49c39e63          	bne	t2,t3,800047b8 <fail>
    80004320:	09d00193          	li	gp,157
    80004324:	0000c337          	lui	t1,0xc
    80004328:	4c33031b          	addiw	t1,t1,1219
    8000432c:	000313b7          	lui	t2,0x31
    80004330:	30f3839b          	addiw	t2,t2,783
    80004334:	00e39393          	slli	t2,t2,0xe
    80004338:	c2038393          	addi	t2,t2,-992 # 30c20 <_start-0x7ffcf3e0>
    8000433c:	00641fa3          	sh	t1,31(s0)
    80004340:	01d46e03          	lwu	t3,29(s0)
    80004344:	47c39a63          	bne	t2,t3,800047b8 <fail>
    80004348:	09e00193          	li	gp,158
    8000434c:	0000c337          	lui	t1,0xc
    80004350:	6c53031b          	addiw	t1,t1,1733
    80004354:	000323b7          	lui	t2,0x32
    80004358:	b173839b          	addiw	t2,t2,-1257
    8000435c:	00e39393          	slli	t2,t2,0xe
    80004360:	3bc38393          	addi	t2,t2,956 # 323bc <_start-0x7ffcdc44>
    80004364:	02641023          	sh	t1,32(s0)
    80004368:	01e46e03          	lwu	t3,30(s0)
    8000436c:	45c39663          	bne	t2,t3,800047b8 <fail>
    80004370:	09f00193          	li	gp,159
    80004374:	0c700313          	li	t1,199
    80004378:	fff1f3b7          	lui	t2,0xfff1f
    8000437c:	0ef3839b          	addiw	t2,t2,239
    80004380:	00f39393          	slli	t2,t2,0xf
    80004384:	40338393          	addi	t2,t2,1027 # fffffffffff1f403 <_end+0xffffffff7ff14c13>
    80004388:	00f39393          	slli	t2,t2,0xf
    8000438c:	10138393          	addi	t2,t2,257
    80004390:	00c39393          	slli	t2,t2,0xc
    80004394:	80038393          	addi	t2,t2,-2048
    80004398:	02640023          	sb	t1,32(s0)
    8000439c:	01943e03          	ld	t3,25(s0)
    800043a0:	41c39c63          	bne	t2,t3,800047b8 <fail>
    800043a4:	0a000193          	li	gp,160
    800043a8:	0000d337          	lui	t1,0xd
    800043ac:	9c83031b          	addiw	t1,t1,-1592
    800043b0:	fff8e3b7          	lui	t2,0xfff8e
    800043b4:	9393839b          	addiw	t2,t2,-1735
    800043b8:	00e39393          	slli	t2,t2,0xe
    800043bc:	5e138393          	addi	t2,t2,1505 # fffffffffff8e5e1 <_end+0xffffffff7ff83df1>
    800043c0:	01139393          	slli	t2,t2,0x11
    800043c4:	18138393          	addi	t2,t2,385
    800043c8:	00c39393          	slli	t2,t2,0xc
    800043cc:	00838393          	addi	t2,t2,8
    800043d0:	00641fa3          	sh	t1,31(s0)
    800043d4:	01a43e03          	ld	t3,26(s0)
    800043d8:	3fc39063          	bne	t2,t3,800047b8 <fail>
    800043dc:	0a100193          	li	gp,161
    800043e0:	0000d337          	lui	t1,0xd
    800043e4:	bca3031b          	addiw	t1,t1,-1078
    800043e8:	00cf23b7          	lui	t2,0xcf2
    800043ec:	b2f3839b          	addiw	t2,t2,-1233
    800043f0:	00c39393          	slli	t2,t2,0xc
    800043f4:	2af38393          	addi	t2,t2,687 # cf22af <_start-0x7f30dd51>
    800043f8:	00d39393          	slli	t2,t2,0xd
    800043fc:	10138393          	addi	t2,t2,257
    80004400:	00d39393          	slli	t2,t2,0xd
    80004404:	81038393          	addi	t2,t2,-2032
    80004408:	00641fa3          	sh	t1,31(s0)
    8000440c:	01b43e03          	ld	t3,27(s0)
    80004410:	3bc39463          	bne	t2,t3,800047b8 <fail>
    80004414:	0a200193          	li	gp,162
    80004418:	000d0337          	lui	t1,0xd0
    8000441c:	ced3031b          	addiw	t1,t1,-787
    80004420:	00c31313          	slli	t1,t1,0xc
    80004424:	dcc30313          	addi	t1,t1,-564 # cfdcc <_start-0x7ff30234>
    80004428:	ff3f43b7          	lui	t2,0xff3f4
    8000442c:	b373839b          	addiw	t2,t2,-1225
    80004430:	00d39393          	slli	t2,t2,0xd
    80004434:	66538393          	addi	t2,t2,1637 # ffffffffff3f4665 <_end+0xffffffff7f3e9e75>
    80004438:	00c39393          	slli	t2,t2,0xc
    8000443c:	5e138393          	addi	t2,t2,1505
    80004440:	00d39393          	slli	t2,t2,0xd
    80004444:	01838393          	addi	t2,t2,24
    80004448:	02642023          	sw	t1,32(s0)
    8000444c:	01c43e03          	ld	t3,28(s0)
    80004450:	37c39463          	bne	t2,t3,800047b8 <fail>
    80004454:	0a300193          	li	gp,163
    80004458:	000d4337          	lui	t1,0xd4
    8000445c:	d2d3031b          	addiw	t1,t1,-723
    80004460:	00c31313          	slli	t1,t1,0xc
    80004464:	1d030313          	addi	t1,t1,464 # d41d0 <_start-0x7ff2be30>
    80004468:	000d73b7          	lui	t2,0xd7
    8000446c:	3f53839b          	addiw	t2,t2,1013
    80004470:	00e39393          	slli	t2,t2,0xe
    80004474:	d2d38393          	addi	t2,t2,-723 # d6d2d <_start-0x7ff292d3>
    80004478:	00e39393          	slli	t2,t2,0xe
    8000447c:	74338393          	addi	t2,t2,1859
    80004480:	00e39393          	slli	t2,t2,0xe
    80004484:	c2038393          	addi	t2,t2,-992
    80004488:	00642fa3          	sw	t1,31(s0)
    8000448c:	01d43e03          	ld	t3,29(s0)
    80004490:	33c39463          	bne	t2,t3,800047b8 <fail>
    80004494:	0a400193          	li	gp,164
    80004498:	000d8337          	lui	t1,0xd8
    8000449c:	d6d3031b          	addiw	t1,t1,-659
    800044a0:	00c31313          	slli	t1,t1,0xc
    800044a4:	5d430313          	addi	t1,t1,1492 # d85d4 <_start-0x7ff27a2c>
    800044a8:	000363b7          	lui	t2,0x36
    800044ac:	35d3839b          	addiw	t2,t2,861
    800044b0:	01139393          	slli	t2,t2,0x11
    800044b4:	a7b38393          	addi	t2,t2,-1413 # 35a7b <_start-0x7ffca585>
    800044b8:	00f39393          	slli	t2,t2,0xf
    800044bc:	d6d38393          	addi	t2,t2,-659
    800044c0:	00c39393          	slli	t2,t2,0xc
    800044c4:	5d438393          	addi	t2,t2,1492
    800044c8:	00642f23          	sw	t1,30(s0)
    800044cc:	01e43e03          	ld	t3,30(s0)
    800044d0:	2fc39463          	bne	t2,t3,800047b8 <fail>
    800044d4:	0a500193          	li	gp,165
    800044d8:	0006e337          	lui	t1,0x6e
    800044dc:	ed73031b          	addiw	t1,t1,-297
    800044e0:	00d31313          	slli	t1,t1,0xd
    800044e4:	9d830313          	addi	t1,t1,-1576 # 6d9d8 <_start-0x7ff92628>
    800044e8:	00dce3b7          	lui	t2,0xdce
    800044ec:	8d73839b          	addiw	t2,t2,-1833
    800044f0:	00c39393          	slli	t2,t2,0xc
    800044f4:	3f538393          	addi	t2,t2,1013 # dce3f5 <_start-0x7f231c0b>
    800044f8:	00d39393          	slli	t2,t2,0xd
    800044fc:	ebf38393          	addi	t2,t2,-321
    80004500:	00d39393          	slli	t2,t2,0xd
    80004504:	bda38393          	addi	t2,t2,-1062
    80004508:	00642ea3          	sw	t1,29(s0)
    8000450c:	01f43e03          	ld	t3,31(s0)
    80004510:	2bc39463          	bne	t2,t3,800047b8 <fail>
    80004514:	0a600193          	li	gp,166
    80004518:	0dc00313          	li	t1,220
    8000451c:	ffff93b7          	lui	t2,0xffff9
    80004520:	1dc3839b          	addiw	t2,t2,476
    80004524:	02640fa3          	sb	t1,63(s0)
    80004528:	03f41e03          	lh	t3,63(s0)
    8000452c:	29c39663          	bne	t2,t3,800047b8 <fail>
    80004530:	0a700193          	li	gp,167
    80004534:	0dd00313          	li	t1,221
    80004538:	0000e3b7          	lui	t2,0xe
    8000453c:	ddc3839b          	addiw	t2,t2,-548
    80004540:	04640023          	sb	t1,64(s0)
    80004544:	03f45e03          	lhu	t3,63(s0)
    80004548:	27c39863          	bne	t2,t3,800047b8 <fail>
    8000454c:	0a800193          	li	gp,168
    80004550:	0000e337          	lui	t1,0xe
    80004554:	fde3031b          	addiw	t1,t1,-34
    80004558:	92dde3b7          	lui	t2,0x92dde
    8000455c:	fde3839b          	addiw	t2,t2,-34
    80004560:	02641f23          	sh	t1,62(s0)
    80004564:	03e42e03          	lw	t3,62(s0)
    80004568:	25c39863          	bne	t2,t3,800047b8 <fail>
    8000456c:	0a900193          	li	gp,169
    80004570:	0000e337          	lui	t1,0xe
    80004574:	1e03031b          	addiw	t1,t1,480
    80004578:	92e1e3b7          	lui	t2,0x92e1e
    8000457c:	0de3839b          	addiw	t2,t2,222
    80004580:	02641fa3          	sh	t1,63(s0)
    80004584:	03e42e03          	lw	t3,62(s0)
    80004588:	23c39863          	bne	t2,t3,800047b8 <fail>
    8000458c:	0aa00193          	li	gp,170
    80004590:	0000e337          	lui	t1,0xe
    80004594:	3e23031b          	addiw	t1,t1,994
    80004598:	e3e2e3b7          	lui	t2,0xe3e2e
    8000459c:	0de3839b          	addiw	t2,t2,222
    800045a0:	04641023          	sh	t1,64(s0)
    800045a4:	03e42e03          	lw	t3,62(s0)
    800045a8:	21c39863          	bne	t2,t3,800047b8 <fail>
    800045ac:	0ab00193          	li	gp,171
    800045b0:	0e400313          	li	t1,228
    800045b4:	0004a3b7          	lui	t2,0x4a
    800045b8:	f1f3839b          	addiw	t2,t2,-225
    800045bc:	00d39393          	slli	t2,t2,0xd
    800045c0:	4e038393          	addi	t2,t2,1248 # 4a4e0 <_start-0x7ffb5b20>
    800045c4:	04640023          	sb	t1,64(s0)
    800045c8:	03f46e03          	lwu	t3,63(s0)
    800045cc:	1fc39663          	bne	t2,t3,800047b8 <fail>
    800045d0:	0ac00193          	li	gp,172
    800045d4:	0000e337          	lui	t1,0xe
    800045d8:	6e53031b          	addiw	t1,t1,1765
    800045dc:	000733b7          	lui	t2,0x73
    800045e0:	72f3839b          	addiw	t2,t2,1839
    800045e4:	00d39393          	slli	t2,t2,0xd
    800045e8:	e8038393          	addi	t2,t2,-384 # 72e80 <_start-0x7ff8d180>
    800045ec:	02641fa3          	sh	t1,63(s0)
    800045f0:	03d46e03          	lwu	t3,61(s0)
    800045f4:	1dc39263          	bne	t2,t3,800047b8 <fail>
    800045f8:	0ad00193          	li	gp,173
    800045fc:	0000f337          	lui	t1,0xf
    80004600:	8e73031b          	addiw	t1,t1,-1817
    80004604:	000743b7          	lui	t2,0x74
    80004608:	73f3839b          	addiw	t2,t2,1855
    8000460c:	00d39393          	slli	t2,t2,0xd
    80004610:	5de38393          	addi	t2,t2,1502 # 745de <_start-0x7ff8ba22>
    80004614:	04641023          	sh	t1,64(s0)
    80004618:	03e46e03          	lwu	t3,62(s0)
    8000461c:	19c39e63          	bne	t2,t3,800047b8 <fail>
    80004620:	0ae00193          	li	gp,174
    80004624:	0e900313          	li	t1,233
    80004628:	ffd3d3b7          	lui	t2,0xffd3d
    8000462c:	bbd3839b          	addiw	t2,t2,-1091
    80004630:	00c39393          	slli	t2,t2,0xc
    80004634:	00f38393          	addi	t2,t2,15 # ffffffffffd3d00f <_end+0xffffffff7fd3281f>
    80004638:	00f39393          	slli	t2,t2,0xf
    8000463c:	70738393          	addi	t2,t2,1799
    80004640:	00c39393          	slli	t2,t2,0xc
    80004644:	86038393          	addi	t2,t2,-1952
    80004648:	04640023          	sb	t1,64(s0)
    8000464c:	03943e03          	ld	t3,57(s0)
    80004650:	17c39463          	bne	t2,t3,800047b8 <fail>
    80004654:	0af00193          	li	gp,175
    80004658:	0000f337          	lui	t1,0xf
    8000465c:	bea3031b          	addiw	t1,t1,-1046
    80004660:	d1d7d3b7          	lui	t2,0xd1d7d
    80004664:	5bd3839b          	addiw	t2,t2,1469
    80004668:	01339393          	slli	t2,t2,0x13
    8000466c:	78738393          	addi	t2,t2,1927 # ffffffffd1d7d787 <_end+0xffffffff51d72f97>
    80004670:	00c39393          	slli	t2,t2,0xc
    80004674:	06838393          	addi	t2,t2,104
    80004678:	02641fa3          	sh	t1,63(s0)
    8000467c:	03a43e03          	ld	t3,58(s0)
    80004680:	13c39c63          	bne	t2,t3,800047b8 <fail>
    80004684:	0b000193          	li	gp,176
    80004688:	0000f337          	lui	t1,0xf
    8000468c:	dec3031b          	addiw	t1,t1,-532
    80004690:	ffc9f3b7          	lui	t2,0xffc9f
    80004694:	4773839b          	addiw	t2,t2,1143
    80004698:	00c39393          	slli	t2,t2,0xc
    8000469c:	f6738393          	addi	t2,t2,-153 # ffffffffffc9ef67 <_end+0xffffffff7fc94777>
    800046a0:	00e39393          	slli	t2,t2,0xe
    800046a4:	d0138393          	addi	t2,t2,-767
    800046a8:	00f39393          	slli	t2,t2,0xf
    800046ac:	87038393          	addi	t2,t2,-1936
    800046b0:	02641fa3          	sh	t1,63(s0)
    800046b4:	03b43e03          	ld	t3,59(s0)
    800046b8:	11c39063          	bne	t2,t3,800047b8 <fail>
    800046bc:	0b100193          	li	gp,177
    800046c0:	000f2337          	lui	t1,0xf2
    800046c4:	f0f3031b          	addiw	t1,t1,-241
    800046c8:	00c31313          	slli	t1,t1,0xc
    800046cc:	fee30313          	addi	t1,t1,-18 # f1fee <_start-0x7ff0e012>
    800046d0:	ffff23b7          	lui	t2,0xffff2
    800046d4:	f0f3839b          	addiw	t2,t2,-241
    800046d8:	01039393          	slli	t2,t2,0x10
    800046dc:	eef38393          	addi	t2,t2,-273 # ffffffffffff1eef <_end+0xffffffff7ffe76ff>
    800046e0:	00d39393          	slli	t2,t2,0xd
    800046e4:	9bd38393          	addi	t2,t2,-1603
    800046e8:	00f39393          	slli	t2,t2,0xf
    800046ec:	07838393          	addi	t2,t2,120
    800046f0:	04642023          	sw	t1,64(s0)
    800046f4:	03c43e03          	ld	t3,60(s0)
    800046f8:	0dc39063          	bne	t2,t3,800047b8 <fail>
    800046fc:	0b200193          	li	gp,178
    80004700:	000f6337          	lui	t1,0xf6
    80004704:	f4f3031b          	addiw	t1,t1,-177
    80004708:	00c31313          	slli	t1,t1,0xc
    8000470c:	3f230313          	addi	t1,t1,1010 # f63f2 <_start-0x7ff09c0e>
    80004710:	ffcb03b7          	lui	t2,0xffcb0
    80004714:	8fb3839b          	addiw	t2,t2,-1797
    80004718:	00f39393          	slli	t2,t2,0xf
    8000471c:	d3d38393          	addi	t2,t2,-707 # ffffffffffcafd3d <_end+0xffffffff7fca554d>
    80004720:	00d39393          	slli	t2,t2,0xd
    80004724:	f9738393          	addi	t2,t2,-105
    80004728:	00d39393          	slli	t2,t2,0xd
    8000472c:	e8038393          	addi	t2,t2,-384
    80004730:	02642fa3          	sw	t1,63(s0)
    80004734:	03d43e03          	ld	t3,61(s0)
    80004738:	09c39063          	bne	t2,t3,800047b8 <fail>
    8000473c:	0b300193          	li	gp,179
    80004740:	000fa337          	lui	t1,0xfa
    80004744:	f8f3031b          	addiw	t1,t1,-113
    80004748:	00c31313          	slli	t1,t1,0xc
    8000474c:	7f630313          	addi	t1,t1,2038 # fa7f6 <_start-0x7ff0580a>
    80004750:	ffcb53b7          	lui	t2,0xffcb5
    80004754:	af93839b          	addiw	t2,t2,-1287
    80004758:	01039393          	slli	t2,t2,0x10
    8000475c:	afd38393          	addi	t2,t2,-1283 # ffffffffffcb4afd <_end+0xffffffff7fcaa30d>
    80004760:	00d39393          	slli	t2,t2,0xd
    80004764:	f8f38393          	addi	t2,t2,-113
    80004768:	00c39393          	slli	t2,t2,0xc
    8000476c:	7f638393          	addi	t2,t2,2038
    80004770:	02642f23          	sw	t1,62(s0)
    80004774:	03e43e03          	ld	t3,62(s0)
    80004778:	05c39063          	bne	t2,t3,800047b8 <fail>
    8000477c:	0b400193          	li	gp,180
    80004780:	00010337          	lui	t1,0x10
    80004784:	dfd3031b          	addiw	t1,t1,-515
    80004788:	01031313          	slli	t1,t1,0x10
    8000478c:	bfa30313          	addi	t1,t1,-1030 # fbfa <_start-0x7fff0406>
    80004790:	cbcb53b7          	lui	t2,0xcbcb5
    80004794:	af93839b          	addiw	t2,t2,-1287
    80004798:	01039393          	slli	t2,t2,0x10
    8000479c:	afd38393          	addi	t2,t2,-1283 # ffffffffcbcb4afd <_end+0xffffffff4bcaa30d>
    800047a0:	01139393          	slli	t2,t2,0x11
    800047a4:	dfc38393          	addi	t2,t2,-516
    800047a8:	02642ea3          	sw	t1,61(s0)
    800047ac:	03f43e03          	ld	t3,63(s0)
    800047b0:	01c39463          	bne	t2,t3,800047b8 <fail>
    800047b4:	00301a63          	bne	zero,gp,800047c8 <pass>

00000000800047b8 <fail>:
    800047b8:	00119513          	slli	a0,gp,0x1
    800047bc:	00050063          	beqz	a0,800047bc <fail+0x4>
    800047c0:	00156513          	ori	a0,a0,1
    800047c4:	00000073          	ecall

00000000800047c8 <pass>:
    800047c8:	00100513          	li	a0,1
    800047cc:	00000073          	ecall
    800047d0:	c0001073          	unimp
