
rv64uf-p-fcvt_w:     file format elf64-littleriscv


Disassembly of section .text.init:

0000000080000000 <_start>:
    80000000:	0540006f          	j	80000054 <reset_vector>

0000000080000004 <trap_vector>:
    80000004:	34202f73          	csrr	t5,mcause
    80000008:	00800f93          	li	t6,8
    8000000c:	03ff0a63          	beq	t5,t6,80000040 <write_tohost>
    80000010:	00900f93          	li	t6,9
    80000014:	03ff0663          	beq	t5,t6,80000040 <write_tohost>
    80000018:	00b00f93          	li	t6,11
    8000001c:	03ff0263          	beq	t5,t6,80000040 <write_tohost>
    80000020:	80000f17          	auipc	t5,0x80000
    80000024:	fe0f0f13          	addi	t5,t5,-32 # 0 <_start-0x80000000>
    80000028:	000f0463          	beqz	t5,80000030 <trap_vector+0x2c>
    8000002c:	000f0067          	jr	t5
    80000030:	34202f73          	csrr	t5,mcause
    80000034:	000f5463          	bgez	t5,8000003c <handle_exception>
    80000038:	0040006f          	j	8000003c <handle_exception>

000000008000003c <handle_exception>:
    8000003c:	5391e193          	ori	gp,gp,1337

0000000080000040 <write_tohost>:
    80000040:	00001f17          	auipc	t5,0x1
    80000044:	fc3f2023          	sw	gp,-64(t5) # 80001000 <tohost>
    80000048:	00001f17          	auipc	t5,0x1
    8000004c:	fa0f2e23          	sw	zero,-68(t5) # 80001004 <tohost+0x4>
    80000050:	ff1ff06f          	j	80000040 <write_tohost>

0000000080000054 <reset_vector>:
    80000054:	00000093          	li	ra,0
    80000058:	00000113          	li	sp,0
    8000005c:	00000193          	li	gp,0
    80000060:	00000213          	li	tp,0
    80000064:	00000293          	li	t0,0
    80000068:	00000313          	li	t1,0
    8000006c:	00000393          	li	t2,0
    80000070:	00000413          	li	s0,0
    80000074:	00000493          	li	s1,0
    80000078:	00000513          	li	a0,0
    8000007c:	00000593          	li	a1,0
    80000080:	00000613          	li	a2,0
    80000084:	00000693          	li	a3,0
    80000088:	00000713          	li	a4,0
    8000008c:	00000793          	li	a5,0
    80000090:	00000813          	li	a6,0
    80000094:	00000893          	li	a7,0
    80000098:	00000913          	li	s2,0
    8000009c:	00000993          	li	s3,0
    800000a0:	00000a13          	li	s4,0
    800000a4:	00000a93          	li	s5,0
    800000a8:	00000b13          	li	s6,0
    800000ac:	00000b93          	li	s7,0
    800000b0:	00000c13          	li	s8,0
    800000b4:	00000c93          	li	s9,0
    800000b8:	00000d13          	li	s10,0
    800000bc:	00000d93          	li	s11,0
    800000c0:	00000e13          	li	t3,0
    800000c4:	00000e93          	li	t4,0
    800000c8:	00000f13          	li	t5,0
    800000cc:	00000f93          	li	t6,0
    800000d0:	f1402573          	csrr	a0,mhartid
    800000d4:	00051063          	bnez	a0,800000d4 <reset_vector+0x80>
    800000d8:	00000297          	auipc	t0,0x0
    800000dc:	01028293          	addi	t0,t0,16 # 800000e8 <reset_vector+0x94>
    800000e0:	30529073          	csrw	mtvec,t0
    800000e4:	74445073          	csrwi	0x744,8
    800000e8:	00000297          	auipc	t0,0x0
    800000ec:	01028293          	addi	t0,t0,16 # 800000f8 <reset_vector+0xa4>
    800000f0:	30529073          	csrw	mtvec,t0
    800000f4:	18005073          	csrwi	sptbr,0
    800000f8:	00000297          	auipc	t0,0x0
    800000fc:	02428293          	addi	t0,t0,36 # 8000011c <reset_vector+0xc8>
    80000100:	30529073          	csrw	mtvec,t0
    80000104:	0010029b          	addiw	t0,zero,1
    80000108:	03529293          	slli	t0,t0,0x35
    8000010c:	fff28293          	addi	t0,t0,-1
    80000110:	3b029073          	csrw	pmpaddr0,t0
    80000114:	01f00293          	li	t0,31
    80000118:	3a029073          	csrw	pmpcfg0,t0
    8000011c:	30405073          	csrwi	mie,0
    80000120:	00000297          	auipc	t0,0x0
    80000124:	01428293          	addi	t0,t0,20 # 80000134 <reset_vector+0xe0>
    80000128:	30529073          	csrw	mtvec,t0
    8000012c:	30205073          	csrwi	medeleg,0
    80000130:	30305073          	csrwi	mideleg,0
    80000134:	00000193          	li	gp,0
    80000138:	00000297          	auipc	t0,0x0
    8000013c:	ecc28293          	addi	t0,t0,-308 # 80000004 <trap_vector>
    80000140:	30529073          	csrw	mtvec,t0
    80000144:	00100513          	li	a0,1
    80000148:	01f51513          	slli	a0,a0,0x1f
    8000014c:	00055c63          	bgez	a0,80000164 <reset_vector+0x110>
    80000150:	0ff0000f          	fence
    80000154:	00100193          	li	gp,1
    80000158:	05d00893          	li	a7,93
    8000015c:	00000513          	li	a0,0
    80000160:	00000073          	ecall
    80000164:	80000297          	auipc	t0,0x80000
    80000168:	e9c28293          	addi	t0,t0,-356 # 0 <_start-0x80000000>
    8000016c:	00028a63          	beqz	t0,80000180 <reset_vector+0x12c>
    80000170:	10529073          	csrw	stvec,t0
    80000174:	0000b2b7          	lui	t0,0xb
    80000178:	1092829b          	addiw	t0,t0,265
    8000017c:	30229073          	csrw	medeleg,t0
    80000180:	30005073          	csrwi	mstatus,0
    80000184:	00002537          	lui	a0,0x2
    80000188:	30052073          	csrs	mstatus,a0
    8000018c:	00305073          	csrwi	fcsr,0
    80000190:	00000297          	auipc	t0,0x0
    80000194:	01428293          	addi	t0,t0,20 # 800001a4 <test_2>
    80000198:	34129073          	csrw	mepc,t0
    8000019c:	f1402573          	csrr	a0,mhartid
    800001a0:	30200073          	mret

00000000800001a4 <test_2>:
    800001a4:	00200193          	li	gp,2
    800001a8:	00002517          	auipc	a0,0x2
    800001ac:	e5850513          	addi	a0,a0,-424 # 80002000 <test_2_data>
    800001b0:	00052507          	flw	fa0,0(a0)
    800001b4:	00452587          	flw	fa1,4(a0)
    800001b8:	00852607          	flw	fa2,8(a0)
    800001bc:	00c52683          	lw	a3,12(a0)
    800001c0:	c0051553          	fcvt.w.s	a0,fa0,rtz
    800001c4:	001015f3          	fsflags	a1,zero
    800001c8:	00100613          	li	a2,1
    800001cc:	72d51a63          	bne	a0,a3,80000900 <fail>
    800001d0:	72c59863          	bne	a1,a2,80000900 <fail>

00000000800001d4 <test_3>:
    800001d4:	00300193          	li	gp,3
    800001d8:	00002517          	auipc	a0,0x2
    800001dc:	e3850513          	addi	a0,a0,-456 # 80002010 <test_3_data>
    800001e0:	00052507          	flw	fa0,0(a0)
    800001e4:	00452587          	flw	fa1,4(a0)
    800001e8:	00852607          	flw	fa2,8(a0)
    800001ec:	00c52683          	lw	a3,12(a0)
    800001f0:	c0051553          	fcvt.w.s	a0,fa0,rtz
    800001f4:	001015f3          	fsflags	a1,zero
    800001f8:	00000613          	li	a2,0
    800001fc:	70d51263          	bne	a0,a3,80000900 <fail>
    80000200:	70c59063          	bne	a1,a2,80000900 <fail>

0000000080000204 <test_4>:
    80000204:	00400193          	li	gp,4
    80000208:	00002517          	auipc	a0,0x2
    8000020c:	e1850513          	addi	a0,a0,-488 # 80002020 <test_4_data>
    80000210:	00052507          	flw	fa0,0(a0)
    80000214:	00452587          	flw	fa1,4(a0)
    80000218:	00852607          	flw	fa2,8(a0)
    8000021c:	00c52683          	lw	a3,12(a0)
    80000220:	c0051553          	fcvt.w.s	a0,fa0,rtz
    80000224:	001015f3          	fsflags	a1,zero
    80000228:	00100613          	li	a2,1
    8000022c:	6cd51a63          	bne	a0,a3,80000900 <fail>
    80000230:	6cc59863          	bne	a1,a2,80000900 <fail>

0000000080000234 <test_5>:
    80000234:	00500193          	li	gp,5
    80000238:	00002517          	auipc	a0,0x2
    8000023c:	df850513          	addi	a0,a0,-520 # 80002030 <test_5_data>
    80000240:	00052507          	flw	fa0,0(a0)
    80000244:	00452587          	flw	fa1,4(a0)
    80000248:	00852607          	flw	fa2,8(a0)
    8000024c:	00c52683          	lw	a3,12(a0)
    80000250:	c0051553          	fcvt.w.s	a0,fa0,rtz
    80000254:	001015f3          	fsflags	a1,zero
    80000258:	00100613          	li	a2,1
    8000025c:	6ad51263          	bne	a0,a3,80000900 <fail>
    80000260:	6ac59063          	bne	a1,a2,80000900 <fail>

0000000080000264 <test_6>:
    80000264:	00600193          	li	gp,6
    80000268:	00002517          	auipc	a0,0x2
    8000026c:	dd850513          	addi	a0,a0,-552 # 80002040 <test_6_data>
    80000270:	00052507          	flw	fa0,0(a0)
    80000274:	00452587          	flw	fa1,4(a0)
    80000278:	00852607          	flw	fa2,8(a0)
    8000027c:	00c52683          	lw	a3,12(a0)
    80000280:	c0051553          	fcvt.w.s	a0,fa0,rtz
    80000284:	001015f3          	fsflags	a1,zero
    80000288:	00000613          	li	a2,0
    8000028c:	66d51a63          	bne	a0,a3,80000900 <fail>
    80000290:	66c59863          	bne	a1,a2,80000900 <fail>

0000000080000294 <test_7>:
    80000294:	00700193          	li	gp,7
    80000298:	00002517          	auipc	a0,0x2
    8000029c:	db850513          	addi	a0,a0,-584 # 80002050 <test_7_data>
    800002a0:	00052507          	flw	fa0,0(a0)
    800002a4:	00452587          	flw	fa1,4(a0)
    800002a8:	00852607          	flw	fa2,8(a0)
    800002ac:	00c52683          	lw	a3,12(a0)
    800002b0:	c0051553          	fcvt.w.s	a0,fa0,rtz
    800002b4:	001015f3          	fsflags	a1,zero
    800002b8:	00100613          	li	a2,1
    800002bc:	64d51263          	bne	a0,a3,80000900 <fail>
    800002c0:	64c59063          	bne	a1,a2,80000900 <fail>

00000000800002c4 <test_8>:
    800002c4:	00800193          	li	gp,8
    800002c8:	00002517          	auipc	a0,0x2
    800002cc:	d9850513          	addi	a0,a0,-616 # 80002060 <test_8_data>
    800002d0:	00052507          	flw	fa0,0(a0)
    800002d4:	00452587          	flw	fa1,4(a0)
    800002d8:	00852607          	flw	fa2,8(a0)
    800002dc:	00c52683          	lw	a3,12(a0)
    800002e0:	c0051553          	fcvt.w.s	a0,fa0,rtz
    800002e4:	001015f3          	fsflags	a1,zero
    800002e8:	01000613          	li	a2,16
    800002ec:	60d51a63          	bne	a0,a3,80000900 <fail>
    800002f0:	60c59863          	bne	a1,a2,80000900 <fail>

00000000800002f4 <test_9>:
    800002f4:	00900193          	li	gp,9
    800002f8:	00002517          	auipc	a0,0x2
    800002fc:	d7850513          	addi	a0,a0,-648 # 80002070 <test_9_data>
    80000300:	00052507          	flw	fa0,0(a0)
    80000304:	00452587          	flw	fa1,4(a0)
    80000308:	00852607          	flw	fa2,8(a0)
    8000030c:	00c52683          	lw	a3,12(a0)
    80000310:	c0051553          	fcvt.w.s	a0,fa0,rtz
    80000314:	001015f3          	fsflags	a1,zero
    80000318:	01000613          	li	a2,16
    8000031c:	5ed51263          	bne	a0,a3,80000900 <fail>
    80000320:	5ec59063          	bne	a1,a2,80000900 <fail>

0000000080000324 <test_12>:
    80000324:	00c00193          	li	gp,12
    80000328:	00002517          	auipc	a0,0x2
    8000032c:	d5850513          	addi	a0,a0,-680 # 80002080 <test_12_data>
    80000330:	00052507          	flw	fa0,0(a0)
    80000334:	00452587          	flw	fa1,4(a0)
    80000338:	00852607          	flw	fa2,8(a0)
    8000033c:	00c52683          	lw	a3,12(a0)
    80000340:	c0151553          	fcvt.wu.s	a0,fa0,rtz
    80000344:	001015f3          	fsflags	a1,zero
    80000348:	01000613          	li	a2,16
    8000034c:	5ad51a63          	bne	a0,a3,80000900 <fail>
    80000350:	5ac59863          	bne	a1,a2,80000900 <fail>

0000000080000354 <test_13>:
    80000354:	00d00193          	li	gp,13
    80000358:	00002517          	auipc	a0,0x2
    8000035c:	d3850513          	addi	a0,a0,-712 # 80002090 <test_13_data>
    80000360:	00052507          	flw	fa0,0(a0)
    80000364:	00452587          	flw	fa1,4(a0)
    80000368:	00852607          	flw	fa2,8(a0)
    8000036c:	00c52683          	lw	a3,12(a0)
    80000370:	c0151553          	fcvt.wu.s	a0,fa0,rtz
    80000374:	001015f3          	fsflags	a1,zero
    80000378:	01000613          	li	a2,16
    8000037c:	58d51263          	bne	a0,a3,80000900 <fail>
    80000380:	58c59063          	bne	a1,a2,80000900 <fail>

0000000080000384 <test_14>:
    80000384:	00e00193          	li	gp,14
    80000388:	00002517          	auipc	a0,0x2
    8000038c:	d1850513          	addi	a0,a0,-744 # 800020a0 <test_14_data>
    80000390:	00052507          	flw	fa0,0(a0)
    80000394:	00452587          	flw	fa1,4(a0)
    80000398:	00852607          	flw	fa2,8(a0)
    8000039c:	00c52683          	lw	a3,12(a0)
    800003a0:	c0151553          	fcvt.wu.s	a0,fa0,rtz
    800003a4:	001015f3          	fsflags	a1,zero
    800003a8:	00100613          	li	a2,1
    800003ac:	54d51a63          	bne	a0,a3,80000900 <fail>
    800003b0:	54c59863          	bne	a1,a2,80000900 <fail>

00000000800003b4 <test_15>:
    800003b4:	00f00193          	li	gp,15
    800003b8:	00002517          	auipc	a0,0x2
    800003bc:	cf850513          	addi	a0,a0,-776 # 800020b0 <test_15_data>
    800003c0:	00052507          	flw	fa0,0(a0)
    800003c4:	00452587          	flw	fa1,4(a0)
    800003c8:	00852607          	flw	fa2,8(a0)
    800003cc:	00c52683          	lw	a3,12(a0)
    800003d0:	c0151553          	fcvt.wu.s	a0,fa0,rtz
    800003d4:	001015f3          	fsflags	a1,zero
    800003d8:	00100613          	li	a2,1
    800003dc:	52d51263          	bne	a0,a3,80000900 <fail>
    800003e0:	52c59063          	bne	a1,a2,80000900 <fail>

00000000800003e4 <test_16>:
    800003e4:	01000193          	li	gp,16
    800003e8:	00002517          	auipc	a0,0x2
    800003ec:	cd850513          	addi	a0,a0,-808 # 800020c0 <test_16_data>
    800003f0:	00052507          	flw	fa0,0(a0)
    800003f4:	00452587          	flw	fa1,4(a0)
    800003f8:	00852607          	flw	fa2,8(a0)
    800003fc:	00c52683          	lw	a3,12(a0)
    80000400:	c0151553          	fcvt.wu.s	a0,fa0,rtz
    80000404:	001015f3          	fsflags	a1,zero
    80000408:	00000613          	li	a2,0
    8000040c:	4ed51a63          	bne	a0,a3,80000900 <fail>
    80000410:	4ec59863          	bne	a1,a2,80000900 <fail>

0000000080000414 <test_17>:
    80000414:	01100193          	li	gp,17
    80000418:	00002517          	auipc	a0,0x2
    8000041c:	cb850513          	addi	a0,a0,-840 # 800020d0 <test_17_data>
    80000420:	00052507          	flw	fa0,0(a0)
    80000424:	00452587          	flw	fa1,4(a0)
    80000428:	00852607          	flw	fa2,8(a0)
    8000042c:	00c52683          	lw	a3,12(a0)
    80000430:	c0151553          	fcvt.wu.s	a0,fa0,rtz
    80000434:	001015f3          	fsflags	a1,zero
    80000438:	00100613          	li	a2,1
    8000043c:	4cd51263          	bne	a0,a3,80000900 <fail>
    80000440:	4cc59063          	bne	a1,a2,80000900 <fail>

0000000080000444 <test_18>:
    80000444:	01200193          	li	gp,18
    80000448:	00002517          	auipc	a0,0x2
    8000044c:	c9850513          	addi	a0,a0,-872 # 800020e0 <test_18_data>
    80000450:	00052507          	flw	fa0,0(a0)
    80000454:	00452587          	flw	fa1,4(a0)
    80000458:	00852607          	flw	fa2,8(a0)
    8000045c:	00c52683          	lw	a3,12(a0)
    80000460:	c0151553          	fcvt.wu.s	a0,fa0,rtz
    80000464:	001015f3          	fsflags	a1,zero
    80000468:	01000613          	li	a2,16
    8000046c:	48d51a63          	bne	a0,a3,80000900 <fail>
    80000470:	48c59863          	bne	a1,a2,80000900 <fail>

0000000080000474 <test_19>:
    80000474:	01300193          	li	gp,19
    80000478:	00002517          	auipc	a0,0x2
    8000047c:	c7850513          	addi	a0,a0,-904 # 800020f0 <test_19_data>
    80000480:	00052507          	flw	fa0,0(a0)
    80000484:	00452587          	flw	fa1,4(a0)
    80000488:	00852607          	flw	fa2,8(a0)
    8000048c:	00c52683          	lw	a3,12(a0)
    80000490:	c0151553          	fcvt.wu.s	a0,fa0,rtz
    80000494:	001015f3          	fsflags	a1,zero
    80000498:	00000613          	li	a2,0
    8000049c:	46d51263          	bne	a0,a3,80000900 <fail>
    800004a0:	46c59063          	bne	a1,a2,80000900 <fail>

00000000800004a4 <test_22>:
    800004a4:	01600193          	li	gp,22
    800004a8:	00002517          	auipc	a0,0x2
    800004ac:	c5850513          	addi	a0,a0,-936 # 80002100 <test_22_data>
    800004b0:	00052507          	flw	fa0,0(a0)
    800004b4:	00452587          	flw	fa1,4(a0)
    800004b8:	00852607          	flw	fa2,8(a0)
    800004bc:	00c52683          	lw	a3,12(a0)
    800004c0:	c0251553          	fcvt.l.s	a0,fa0,rtz
    800004c4:	001015f3          	fsflags	a1,zero
    800004c8:	00100613          	li	a2,1
    800004cc:	42d51a63          	bne	a0,a3,80000900 <fail>
    800004d0:	42c59863          	bne	a1,a2,80000900 <fail>

00000000800004d4 <test_23>:
    800004d4:	01700193          	li	gp,23
    800004d8:	00002517          	auipc	a0,0x2
    800004dc:	c3850513          	addi	a0,a0,-968 # 80002110 <test_23_data>
    800004e0:	00052507          	flw	fa0,0(a0)
    800004e4:	00452587          	flw	fa1,4(a0)
    800004e8:	00852607          	flw	fa2,8(a0)
    800004ec:	00c52683          	lw	a3,12(a0)
    800004f0:	c0251553          	fcvt.l.s	a0,fa0,rtz
    800004f4:	001015f3          	fsflags	a1,zero
    800004f8:	00000613          	li	a2,0
    800004fc:	40d51263          	bne	a0,a3,80000900 <fail>
    80000500:	40c59063          	bne	a1,a2,80000900 <fail>

0000000080000504 <test_24>:
    80000504:	01800193          	li	gp,24
    80000508:	00002517          	auipc	a0,0x2
    8000050c:	c1850513          	addi	a0,a0,-1000 # 80002120 <test_24_data>
    80000510:	00052507          	flw	fa0,0(a0)
    80000514:	00452587          	flw	fa1,4(a0)
    80000518:	00852607          	flw	fa2,8(a0)
    8000051c:	00c52683          	lw	a3,12(a0)
    80000520:	c0251553          	fcvt.l.s	a0,fa0,rtz
    80000524:	001015f3          	fsflags	a1,zero
    80000528:	00100613          	li	a2,1
    8000052c:	3cd51a63          	bne	a0,a3,80000900 <fail>
    80000530:	3cc59863          	bne	a1,a2,80000900 <fail>

0000000080000534 <test_25>:
    80000534:	01900193          	li	gp,25
    80000538:	00002517          	auipc	a0,0x2
    8000053c:	bf850513          	addi	a0,a0,-1032 # 80002130 <test_25_data>
    80000540:	00052507          	flw	fa0,0(a0)
    80000544:	00452587          	flw	fa1,4(a0)
    80000548:	00852607          	flw	fa2,8(a0)
    8000054c:	00c52683          	lw	a3,12(a0)
    80000550:	c0251553          	fcvt.l.s	a0,fa0,rtz
    80000554:	001015f3          	fsflags	a1,zero
    80000558:	00100613          	li	a2,1
    8000055c:	3ad51263          	bne	a0,a3,80000900 <fail>
    80000560:	3ac59063          	bne	a1,a2,80000900 <fail>

0000000080000564 <test_26>:
    80000564:	01a00193          	li	gp,26
    80000568:	00002517          	auipc	a0,0x2
    8000056c:	bd850513          	addi	a0,a0,-1064 # 80002140 <test_26_data>
    80000570:	00052507          	flw	fa0,0(a0)
    80000574:	00452587          	flw	fa1,4(a0)
    80000578:	00852607          	flw	fa2,8(a0)
    8000057c:	00c52683          	lw	a3,12(a0)
    80000580:	c0251553          	fcvt.l.s	a0,fa0,rtz
    80000584:	001015f3          	fsflags	a1,zero
    80000588:	00000613          	li	a2,0
    8000058c:	36d51a63          	bne	a0,a3,80000900 <fail>
    80000590:	36c59863          	bne	a1,a2,80000900 <fail>

0000000080000594 <test_27>:
    80000594:	01b00193          	li	gp,27
    80000598:	00002517          	auipc	a0,0x2
    8000059c:	bb850513          	addi	a0,a0,-1096 # 80002150 <test_27_data>
    800005a0:	00052507          	flw	fa0,0(a0)
    800005a4:	00452587          	flw	fa1,4(a0)
    800005a8:	00852607          	flw	fa2,8(a0)
    800005ac:	00c52683          	lw	a3,12(a0)
    800005b0:	c0251553          	fcvt.l.s	a0,fa0,rtz
    800005b4:	001015f3          	fsflags	a1,zero
    800005b8:	00100613          	li	a2,1
    800005bc:	34d51263          	bne	a0,a3,80000900 <fail>
    800005c0:	34c59063          	bne	a1,a2,80000900 <fail>

00000000800005c4 <test_32>:
    800005c4:	02000193          	li	gp,32
    800005c8:	00002517          	auipc	a0,0x2
    800005cc:	b9850513          	addi	a0,a0,-1128 # 80002160 <test_32_data>
    800005d0:	00052507          	flw	fa0,0(a0)
    800005d4:	00452587          	flw	fa1,4(a0)
    800005d8:	00852607          	flw	fa2,8(a0)
    800005dc:	00c52683          	lw	a3,12(a0)
    800005e0:	c0351553          	fcvt.lu.s	a0,fa0,rtz
    800005e4:	001015f3          	fsflags	a1,zero
    800005e8:	01000613          	li	a2,16
    800005ec:	30d51a63          	bne	a0,a3,80000900 <fail>
    800005f0:	30c59863          	bne	a1,a2,80000900 <fail>

00000000800005f4 <test_33>:
    800005f4:	02100193          	li	gp,33
    800005f8:	00002517          	auipc	a0,0x2
    800005fc:	b7850513          	addi	a0,a0,-1160 # 80002170 <test_33_data>
    80000600:	00052507          	flw	fa0,0(a0)
    80000604:	00452587          	flw	fa1,4(a0)
    80000608:	00852607          	flw	fa2,8(a0)
    8000060c:	00c52683          	lw	a3,12(a0)
    80000610:	c0351553          	fcvt.lu.s	a0,fa0,rtz
    80000614:	001015f3          	fsflags	a1,zero
    80000618:	01000613          	li	a2,16
    8000061c:	2ed51263          	bne	a0,a3,80000900 <fail>
    80000620:	2ec59063          	bne	a1,a2,80000900 <fail>

0000000080000624 <test_34>:
    80000624:	02200193          	li	gp,34
    80000628:	00002517          	auipc	a0,0x2
    8000062c:	b5850513          	addi	a0,a0,-1192 # 80002180 <test_34_data>
    80000630:	00052507          	flw	fa0,0(a0)
    80000634:	00452587          	flw	fa1,4(a0)
    80000638:	00852607          	flw	fa2,8(a0)
    8000063c:	00c52683          	lw	a3,12(a0)
    80000640:	c0351553          	fcvt.lu.s	a0,fa0,rtz
    80000644:	001015f3          	fsflags	a1,zero
    80000648:	00100613          	li	a2,1
    8000064c:	2ad51a63          	bne	a0,a3,80000900 <fail>
    80000650:	2ac59863          	bne	a1,a2,80000900 <fail>

0000000080000654 <test_35>:
    80000654:	02300193          	li	gp,35
    80000658:	00002517          	auipc	a0,0x2
    8000065c:	b3850513          	addi	a0,a0,-1224 # 80002190 <test_35_data>
    80000660:	00052507          	flw	fa0,0(a0)
    80000664:	00452587          	flw	fa1,4(a0)
    80000668:	00852607          	flw	fa2,8(a0)
    8000066c:	00c52683          	lw	a3,12(a0)
    80000670:	c0351553          	fcvt.lu.s	a0,fa0,rtz
    80000674:	001015f3          	fsflags	a1,zero
    80000678:	00100613          	li	a2,1
    8000067c:	28d51263          	bne	a0,a3,80000900 <fail>
    80000680:	28c59063          	bne	a1,a2,80000900 <fail>

0000000080000684 <test_36>:
    80000684:	02400193          	li	gp,36
    80000688:	00002517          	auipc	a0,0x2
    8000068c:	b1850513          	addi	a0,a0,-1256 # 800021a0 <test_36_data>
    80000690:	00052507          	flw	fa0,0(a0)
    80000694:	00452587          	flw	fa1,4(a0)
    80000698:	00852607          	flw	fa2,8(a0)
    8000069c:	00c52683          	lw	a3,12(a0)
    800006a0:	c0351553          	fcvt.lu.s	a0,fa0,rtz
    800006a4:	001015f3          	fsflags	a1,zero
    800006a8:	00000613          	li	a2,0
    800006ac:	24d51a63          	bne	a0,a3,80000900 <fail>
    800006b0:	24c59863          	bne	a1,a2,80000900 <fail>

00000000800006b4 <test_37>:
    800006b4:	02500193          	li	gp,37
    800006b8:	00002517          	auipc	a0,0x2
    800006bc:	af850513          	addi	a0,a0,-1288 # 800021b0 <test_37_data>
    800006c0:	00052507          	flw	fa0,0(a0)
    800006c4:	00452587          	flw	fa1,4(a0)
    800006c8:	00852607          	flw	fa2,8(a0)
    800006cc:	00c52683          	lw	a3,12(a0)
    800006d0:	c0351553          	fcvt.lu.s	a0,fa0,rtz
    800006d4:	001015f3          	fsflags	a1,zero
    800006d8:	00100613          	li	a2,1
    800006dc:	22d51263          	bne	a0,a3,80000900 <fail>
    800006e0:	22c59063          	bne	a1,a2,80000900 <fail>

00000000800006e4 <test_38>:
    800006e4:	02600193          	li	gp,38
    800006e8:	00002517          	auipc	a0,0x2
    800006ec:	ad850513          	addi	a0,a0,-1320 # 800021c0 <test_38_data>
    800006f0:	00052507          	flw	fa0,0(a0)
    800006f4:	00452587          	flw	fa1,4(a0)
    800006f8:	00852607          	flw	fa2,8(a0)
    800006fc:	00c52683          	lw	a3,12(a0)
    80000700:	c0351553          	fcvt.lu.s	a0,fa0,rtz
    80000704:	001015f3          	fsflags	a1,zero
    80000708:	01000613          	li	a2,16
    8000070c:	1ed51a63          	bne	a0,a3,80000900 <fail>
    80000710:	1ec59863          	bne	a1,a2,80000900 <fail>

0000000080000714 <test_42>:
    80000714:	02a00193          	li	gp,42
    80000718:	00002097          	auipc	ra,0x2
    8000071c:	ab808093          	addi	ra,ra,-1352 # 800021d0 <begin_signature>
    80000720:	0000a087          	flw	ft1,0(ra)
    80000724:	c000f0d3          	fcvt.w.s	ra,ft1
    80000728:	800003b7          	lui	t2,0x80000
    8000072c:	fff3839b          	addiw	t2,t2,-1
    80000730:	1c709863          	bne	ra,t2,80000900 <fail>

0000000080000734 <test_44>:
    80000734:	02c00193          	li	gp,44
    80000738:	00002097          	auipc	ra,0x2
    8000073c:	a9808093          	addi	ra,ra,-1384 # 800021d0 <begin_signature>
    80000740:	0080a087          	flw	ft1,8(ra)
    80000744:	c000f0d3          	fcvt.w.s	ra,ft1
    80000748:	800003b7          	lui	t2,0x80000
    8000074c:	1a709a63          	bne	ra,t2,80000900 <fail>

0000000080000750 <test_43>:
    80000750:	02b00193          	li	gp,43
    80000754:	00002097          	auipc	ra,0x2
    80000758:	a7c08093          	addi	ra,ra,-1412 # 800021d0 <begin_signature>
    8000075c:	0000a087          	flw	ft1,0(ra)
    80000760:	c020f0d3          	fcvt.l.s	ra,ft1
    80000764:	fff0039b          	addiw	t2,zero,-1
    80000768:	03f39393          	slli	t2,t2,0x3f
    8000076c:	fff38393          	addi	t2,t2,-1 # ffffffff7fffffff <_end+0xfffffffeffffddff>
    80000770:	18709863          	bne	ra,t2,80000900 <fail>

0000000080000774 <test_45>:
    80000774:	02d00193          	li	gp,45
    80000778:	00002097          	auipc	ra,0x2
    8000077c:	a5808093          	addi	ra,ra,-1448 # 800021d0 <begin_signature>
    80000780:	0080a087          	flw	ft1,8(ra)
    80000784:	c020f0d3          	fcvt.l.s	ra,ft1
    80000788:	fff0039b          	addiw	t2,zero,-1
    8000078c:	03f39393          	slli	t2,t2,0x3f
    80000790:	16709863          	bne	ra,t2,80000900 <fail>

0000000080000794 <test_52>:
    80000794:	03400193          	li	gp,52
    80000798:	00002097          	auipc	ra,0x2
    8000079c:	a3808093          	addi	ra,ra,-1480 # 800021d0 <begin_signature>
    800007a0:	0040a087          	flw	ft1,4(ra)
    800007a4:	c000f0d3          	fcvt.w.s	ra,ft1
    800007a8:	800003b7          	lui	t2,0x80000
    800007ac:	fff3839b          	addiw	t2,t2,-1
    800007b0:	14709863          	bne	ra,t2,80000900 <fail>

00000000800007b4 <test_54>:
    800007b4:	03600193          	li	gp,54
    800007b8:	00002097          	auipc	ra,0x2
    800007bc:	a1808093          	addi	ra,ra,-1512 # 800021d0 <begin_signature>
    800007c0:	00c0a087          	flw	ft1,12(ra)
    800007c4:	c000f0d3          	fcvt.w.s	ra,ft1
    800007c8:	800003b7          	lui	t2,0x80000
    800007cc:	fff3839b          	addiw	t2,t2,-1
    800007d0:	12709863          	bne	ra,t2,80000900 <fail>

00000000800007d4 <test_53>:
    800007d4:	03500193          	li	gp,53
    800007d8:	00002097          	auipc	ra,0x2
    800007dc:	9f808093          	addi	ra,ra,-1544 # 800021d0 <begin_signature>
    800007e0:	0040a087          	flw	ft1,4(ra)
    800007e4:	c020f0d3          	fcvt.l.s	ra,ft1
    800007e8:	fff0039b          	addiw	t2,zero,-1
    800007ec:	03f39393          	slli	t2,t2,0x3f
    800007f0:	fff38393          	addi	t2,t2,-1 # ffffffff7fffffff <_end+0xfffffffeffffddff>
    800007f4:	10709663          	bne	ra,t2,80000900 <fail>

00000000800007f8 <test_55>:
    800007f8:	03700193          	li	gp,55
    800007fc:	00002097          	auipc	ra,0x2
    80000800:	9d408093          	addi	ra,ra,-1580 # 800021d0 <begin_signature>
    80000804:	00c0a087          	flw	ft1,12(ra)
    80000808:	c020f0d3          	fcvt.l.s	ra,ft1
    8000080c:	fff0039b          	addiw	t2,zero,-1
    80000810:	03f39393          	slli	t2,t2,0x3f
    80000814:	fff38393          	addi	t2,t2,-1
    80000818:	0e709463          	bne	ra,t2,80000900 <fail>

000000008000081c <test_62>:
    8000081c:	03e00193          	li	gp,62
    80000820:	00002097          	auipc	ra,0x2
    80000824:	9b008093          	addi	ra,ra,-1616 # 800021d0 <begin_signature>
    80000828:	0000a087          	flw	ft1,0(ra)
    8000082c:	c010f0d3          	fcvt.wu.s	ra,ft1
    80000830:	fff00393          	li	t2,-1
    80000834:	0c709663          	bne	ra,t2,80000900 <fail>

0000000080000838 <test_63>:
    80000838:	03f00193          	li	gp,63
    8000083c:	00002097          	auipc	ra,0x2
    80000840:	99408093          	addi	ra,ra,-1644 # 800021d0 <begin_signature>
    80000844:	0040a087          	flw	ft1,4(ra)
    80000848:	c010f0d3          	fcvt.wu.s	ra,ft1
    8000084c:	fff00393          	li	t2,-1
    80000850:	0a709863          	bne	ra,t2,80000900 <fail>

0000000080000854 <test_64>:
    80000854:	04000193          	li	gp,64
    80000858:	00002097          	auipc	ra,0x2
    8000085c:	97808093          	addi	ra,ra,-1672 # 800021d0 <begin_signature>
    80000860:	0080a087          	flw	ft1,8(ra)
    80000864:	c010f0d3          	fcvt.wu.s	ra,ft1
    80000868:	00000393          	li	t2,0
    8000086c:	08709a63          	bne	ra,t2,80000900 <fail>

0000000080000870 <test_65>:
    80000870:	04100193          	li	gp,65
    80000874:	00002097          	auipc	ra,0x2
    80000878:	95c08093          	addi	ra,ra,-1700 # 800021d0 <begin_signature>
    8000087c:	00c0a087          	flw	ft1,12(ra)
    80000880:	c010f0d3          	fcvt.wu.s	ra,ft1
    80000884:	fff00393          	li	t2,-1
    80000888:	06709c63          	bne	ra,t2,80000900 <fail>

000000008000088c <test_66>:
    8000088c:	04200193          	li	gp,66
    80000890:	00002097          	auipc	ra,0x2
    80000894:	94008093          	addi	ra,ra,-1728 # 800021d0 <begin_signature>
    80000898:	0000a087          	flw	ft1,0(ra)
    8000089c:	c030f0d3          	fcvt.lu.s	ra,ft1
    800008a0:	fff00393          	li	t2,-1
    800008a4:	04709e63          	bne	ra,t2,80000900 <fail>

00000000800008a8 <test_67>:
    800008a8:	04300193          	li	gp,67
    800008ac:	00002097          	auipc	ra,0x2
    800008b0:	92408093          	addi	ra,ra,-1756 # 800021d0 <begin_signature>
    800008b4:	0040a087          	flw	ft1,4(ra)
    800008b8:	c030f0d3          	fcvt.lu.s	ra,ft1
    800008bc:	fff00393          	li	t2,-1
    800008c0:	04709063          	bne	ra,t2,80000900 <fail>

00000000800008c4 <test_68>:
    800008c4:	04400193          	li	gp,68
    800008c8:	00002097          	auipc	ra,0x2
    800008cc:	90808093          	addi	ra,ra,-1784 # 800021d0 <begin_signature>
    800008d0:	0080a087          	flw	ft1,8(ra)
    800008d4:	c030f0d3          	fcvt.lu.s	ra,ft1
    800008d8:	00000393          	li	t2,0
    800008dc:	02709263          	bne	ra,t2,80000900 <fail>

00000000800008e0 <test_69>:
    800008e0:	04500193          	li	gp,69
    800008e4:	00002097          	auipc	ra,0x2
    800008e8:	8ec08093          	addi	ra,ra,-1812 # 800021d0 <begin_signature>
    800008ec:	00c0a087          	flw	ft1,12(ra)
    800008f0:	c030f0d3          	fcvt.lu.s	ra,ft1
    800008f4:	fff00393          	li	t2,-1
    800008f8:	00709463          	bne	ra,t2,80000900 <fail>
    800008fc:	02301063          	bne	zero,gp,8000091c <pass>

0000000080000900 <fail>:
    80000900:	0ff0000f          	fence
    80000904:	00018063          	beqz	gp,80000904 <fail+0x4>
    80000908:	00119193          	slli	gp,gp,0x1
    8000090c:	0011e193          	ori	gp,gp,1
    80000910:	05d00893          	li	a7,93
    80000914:	00018513          	mv	a0,gp
    80000918:	00000073          	ecall

000000008000091c <pass>:
    8000091c:	0ff0000f          	fence
    80000920:	00100193          	li	gp,1
    80000924:	05d00893          	li	a7,93
    80000928:	00000513          	li	a0,0
    8000092c:	00000073          	ecall
    80000930:	c0001073          	unimp
    80000934:	0000                	unimp
    80000936:	0000                	unimp
    80000938:	0000                	unimp
    8000093a:	0000                	unimp
    8000093c:	0000                	unimp
    8000093e:	0000                	unimp
    80000940:	0000                	unimp
    80000942:	0000                	unimp
    80000944:	0000                	unimp
    80000946:	0000                	unimp
    80000948:	0000                	unimp
    8000094a:	0000                	unimp
    8000094c:	0000                	unimp
    8000094e:	0000                	unimp
    80000950:	0000                	unimp
    80000952:	0000                	unimp
    80000954:	0000                	unimp
    80000956:	0000                	unimp
    80000958:	0000                	unimp
    8000095a:	0000                	unimp
    8000095c:	0000                	unimp
    8000095e:	0000                	unimp
    80000960:	0000                	unimp
    80000962:	0000                	unimp
    80000964:	0000                	unimp
    80000966:	0000                	unimp
    80000968:	0000                	unimp
    8000096a:	0000                	unimp
    8000096c:	0000                	unimp
    8000096e:	0000                	unimp
    80000970:	0000                	unimp
